   1              		.cpu arm926ej-s
   2              		.eabi_attribute 20, 1
   3              		.eabi_attribute 21, 1
   4              		.eabi_attribute 23, 3
   5              		.eabi_attribute 24, 1
   6              		.eabi_attribute 25, 1
   7              		.eabi_attribute 26, 1
   8              		.eabi_attribute 30, 4
   9              		.eabi_attribute 34, 0
  10              		.eabi_attribute 18, 4
  11              		.file	"wb_config.c"
  12              		.text
  13              	.Ltext0:
  14              		.cfi_sections	.debug_frame
  15              		.global	bIsFirstReadClkSkew
  16              		.global	u32ClkSkewInit
  17              		.global	__aeabi_uidiv
  18              		.section	.text.sysGetPLLOutputHz,"ax",%progbits
  19              		.align	2
  20              		.global	sysGetPLLOutputHz
  21              		.syntax unified
  22              		.arm
  23              		.fpu softvfp
  25              	sysGetPLLOutputHz:
  26              	.LFB6:
  27              		.file 1 "F:/ARM_Project/W55FA92/N9H20/BSP/Driver/Source/SYS/wb_config.c"
   1:F:/ARM_Project/W55FA92/N9H20/BSP/Driver/Source/SYS\wb_config.c **** 
   2:F:/ARM_Project/W55FA92/N9H20/BSP/Driver/Source/SYS\wb_config.c **** /***************************************************************************
   3:F:/ARM_Project/W55FA92/N9H20/BSP/Driver/Source/SYS\wb_config.c ****  *                                                                         *
   4:F:/ARM_Project/W55FA92/N9H20/BSP/Driver/Source/SYS\wb_config.c ****  * Copyright (c) 2008 Nuvoton Technolog. All rights reserved.              *
   5:F:/ARM_Project/W55FA92/N9H20/BSP/Driver/Source/SYS\wb_config.c ****  *                                                                         *
   6:F:/ARM_Project/W55FA92/N9H20/BSP/Driver/Source/SYS\wb_config.c ****  ***************************************************************************/
   7:F:/ARM_Project/W55FA92/N9H20/BSP/Driver/Source/SYS\wb_config.c **** /****************************************************************************
   8:F:/ARM_Project/W55FA92/N9H20/BSP/Driver/Source/SYS\wb_config.c ****  *
   9:F:/ARM_Project/W55FA92/N9H20/BSP/Driver/Source/SYS\wb_config.c ****  * FILENAME : wb_config.c
  10:F:/ARM_Project/W55FA92/N9H20/BSP/Driver/Source/SYS\wb_config.c ****  *
  11:F:/ARM_Project/W55FA92/N9H20/BSP/Driver/Source/SYS\wb_config.c ****  * VERSION  : 1.1
  12:F:/ARM_Project/W55FA92/N9H20/BSP/Driver/Source/SYS\wb_config.c ****  *
  13:F:/ARM_Project/W55FA92/N9H20/BSP/Driver/Source/SYS\wb_config.c ****  * DESCRIPTION : 
  14:F:/ARM_Project/W55FA92/N9H20/BSP/Driver/Source/SYS\wb_config.c ****  *               PLL control functions of Nuvoton ARM9 MCU
  15:F:/ARM_Project/W55FA92/N9H20/BSP/Driver/Source/SYS\wb_config.c ****  *
  16:F:/ARM_Project/W55FA92/N9H20/BSP/Driver/Source/SYS\wb_config.c ****  * HISTORY
  17:F:/ARM_Project/W55FA92/N9H20/BSP/Driver/Source/SYS\wb_config.c ****  *   2008-06-25  Ver 1.0 draft by Min-Nan Cheng
  18:F:/ARM_Project/W55FA92/N9H20/BSP/Driver/Source/SYS\wb_config.c ****  * Modification
  19:F:/ARM_Project/W55FA92/N9H20/BSP/Driver/Source/SYS\wb_config.c ****  *   2011-06-01  Ver 1.1 draft by Shih-Wen Chou
  20:F:/ARM_Project/W55FA92/N9H20/BSP/Driver/Source/SYS\wb_config.c ****  *
  21:F:/ARM_Project/W55FA92/N9H20/BSP/Driver/Source/SYS\wb_config.c ****  *		IBR set clocks default value	
  22:F:/ARM_Project/W55FA92/N9H20/BSP/Driver/Source/SYS\wb_config.c ****  * 			UPLL= 240MHz
  23:F:/ARM_Project/W55FA92/N9H20/BSP/Driver/Source/SYS\wb_config.c ****  *			SYS = 120MHz
  24:F:/ARM_Project/W55FA92/N9H20/BSP/Driver/Source/SYS\wb_config.c ****  *			CPU = 60MHz
  25:F:/ARM_Project/W55FA92/N9H20/BSP/Driver/Source/SYS\wb_config.c ****  *			HCLK = 60MHz
  26:F:/ARM_Project/W55FA92/N9H20/BSP/Driver/Source/SYS\wb_config.c ****  *			
  27:F:/ARM_Project/W55FA92/N9H20/BSP/Driver/Source/SYS\wb_config.c ****  *
  28:F:/ARM_Project/W55FA92/N9H20/BSP/Driver/Source/SYS\wb_config.c ****  *
  29:F:/ARM_Project/W55FA92/N9H20/BSP/Driver/Source/SYS\wb_config.c ****  *
  30:F:/ARM_Project/W55FA92/N9H20/BSP/Driver/Source/SYS\wb_config.c ****  ****************************************************************************/
  31:F:/ARM_Project/W55FA92/N9H20/BSP/Driver/Source/SYS\wb_config.c **** #include <string.h>
  32:F:/ARM_Project/W55FA92/N9H20/BSP/Driver/Source/SYS\wb_config.c **** #include "wblib.h"
  33:F:/ARM_Project/W55FA92/N9H20/BSP/Driver/Source/SYS\wb_config.c **** #define REAL_CHIP
  34:F:/ARM_Project/W55FA92/N9H20/BSP/Driver/Source/SYS\wb_config.c **** 
  35:F:/ARM_Project/W55FA92/N9H20/BSP/Driver/Source/SYS\wb_config.c **** //static UINT32 g_u32SysClkSrc; 
  36:F:/ARM_Project/W55FA92/N9H20/BSP/Driver/Source/SYS\wb_config.c **** static UINT32 g_u32UpllHz = 240000000, g_u32ApllHz=240000000; //g_u32SysHz = 120000000, g_u32CpuHz 
  37:F:/ARM_Project/W55FA92/N9H20/BSP/Driver/Source/SYS\wb_config.c **** static UINT32 g_u32MpllHz = 180000000;
  38:F:/ARM_Project/W55FA92/N9H20/BSP/Driver/Source/SYS\wb_config.c **** static INT32 g_i32REG_APLL, g_i32REG_UPLL, g_i32REG_MPLL;
  39:F:/ARM_Project/W55FA92/N9H20/BSP/Driver/Source/SYS\wb_config.c **** static UINT32 g_u32ExtClk = 12000000;
  40:F:/ARM_Project/W55FA92/N9H20/BSP/Driver/Source/SYS\wb_config.c **** 
  41:F:/ARM_Project/W55FA92/N9H20/BSP/Driver/Source/SYS\wb_config.c **** UINT32 sysGetHCLK234Clock(void);
  42:F:/ARM_Project/W55FA92/N9H20/BSP/Driver/Source/SYS\wb_config.c **** 
  43:F:/ARM_Project/W55FA92/N9H20/BSP/Driver/Source/SYS\wb_config.c **** extern UINT8  _tmp_buf[];	
  44:F:/ARM_Project/W55FA92/N9H20/BSP/Driver/Source/SYS\wb_config.c **** 
  45:F:/ARM_Project/W55FA92/N9H20/BSP/Driver/Source/SYS\wb_config.c **** //#define N9H26K_A_VERSION
  46:F:/ARM_Project/W55FA92/N9H20/BSP/Driver/Source/SYS\wb_config.c **** #ifdef N9H26K_A_VERSION
  47:F:/ARM_Project/W55FA92/N9H20/BSP/Driver/Source/SYS\wb_config.c **** 	#define REG_DLLMODE_R 0xb0003058		
  48:F:/ARM_Project/W55FA92/N9H20/BSP/Driver/Source/SYS\wb_config.c **** #else
  49:F:/ARM_Project/W55FA92/N9H20/BSP/Driver/Source/SYS\wb_config.c **** 	#define REG_DLLMODE_R	0xb0003058	/* Not fix in B version. still read in 3058 */
  50:F:/ARM_Project/W55FA92/N9H20/BSP/Driver/Source/SYS\wb_config.c **** #endif
  51:F:/ARM_Project/W55FA92/N9H20/BSP/Driver/Source/SYS\wb_config.c **** 
  52:F:/ARM_Project/W55FA92/N9H20/BSP/Driver/Source/SYS\wb_config.c **** 
  53:F:/ARM_Project/W55FA92/N9H20/BSP/Driver/Source/SYS\wb_config.c **** extern UINT32 u32UartPort;
  54:F:/ARM_Project/W55FA92/N9H20/BSP/Driver/Source/SYS\wb_config.c **** 
  55:F:/ARM_Project/W55FA92/N9H20/BSP/Driver/Source/SYS\wb_config.c **** BOOL bIsFirstReadClkSkew = TRUE;
  56:F:/ARM_Project/W55FA92/N9H20/BSP/Driver/Source/SYS\wb_config.c **** UINT32 u32ClkSkewInit = 0; 
  57:F:/ARM_Project/W55FA92/N9H20/BSP/Driver/Source/SYS\wb_config.c **** 
  58:F:/ARM_Project/W55FA92/N9H20/BSP/Driver/Source/SYS\wb_config.c **** //#define DBG_PRINTF		sysprintf
  59:F:/ARM_Project/W55FA92/N9H20/BSP/Driver/Source/SYS\wb_config.c **** #define DBG_PRINTF(...)
  60:F:/ARM_Project/W55FA92/N9H20/BSP/Driver/Source/SYS\wb_config.c **** /*-------------------------------------------------------------------------------------------------
  61:F:/ARM_Project/W55FA92/N9H20/BSP/Driver/Source/SYS\wb_config.c ****  *
  62:F:/ARM_Project/W55FA92/N9H20/BSP/Driver/Source/SYS\wb_config.c ****  * Function : sysGetPLLOutputHz
  63:F:/ARM_Project/W55FA92/N9H20/BSP/Driver/Source/SYS\wb_config.c ****  * 
  64:F:/ARM_Project/W55FA92/N9H20/BSP/Driver/Source/SYS\wb_config.c ****  * DESCRIPTION : 
  65:F:/ARM_Project/W55FA92/N9H20/BSP/Driver/Source/SYS\wb_config.c ****  *               According to the external clock and expected PLL output clock to get the content o
  66:F:/ARM_Project/W55FA92/N9H20/BSP/Driver/Source/SYS\wb_config.c ****  *
  67:F:/ARM_Project/W55FA92/N9H20/BSP/Driver/Source/SYS\wb_config.c ****  * Parameters 
  68:F:/ARM_Project/W55FA92/N9H20/BSP/Driver/Source/SYS\wb_config.c ****  *             	eSysPll : eSYS_APLL or eSYS_UPLL
  69:F:/ARM_Project/W55FA92/N9H20/BSP/Driver/Source/SYS\wb_config.c ****  *			u32FinKHz: External clock. Unit: KHz
  70:F:/ARM_Project/W55FA92/N9H20/BSP/Driver/Source/SYS\wb_config.c ****  * Return 
  71:F:/ARM_Project/W55FA92/N9H20/BSP/Driver/Source/SYS\wb_config.c ****  *			PLL clock. 
  72:F:/ARM_Project/W55FA92/N9H20/BSP/Driver/Source/SYS\wb_config.c ****  * HISTORY
  73:F:/ARM_Project/W55FA92/N9H20/BSP/Driver/Source/SYS\wb_config.c ****  *               2010-07-15 
  74:F:/ARM_Project/W55FA92/N9H20/BSP/Driver/Source/SYS\wb_config.c ****  *
  75:F:/ARM_Project/W55FA92/N9H20/BSP/Driver/Source/SYS\wb_config.c **** ---------------------------------------------------------------------------------------------------
  76:F:/ARM_Project/W55FA92/N9H20/BSP/Driver/Source/SYS\wb_config.c **** UINT32 sysGetPLLOutputHz(
  77:F:/ARM_Project/W55FA92/N9H20/BSP/Driver/Source/SYS\wb_config.c **** 	E_SYS_SRC_CLK eSysPll,
  78:F:/ARM_Project/W55FA92/N9H20/BSP/Driver/Source/SYS\wb_config.c **** 	UINT32 u32FinHz
  79:F:/ARM_Project/W55FA92/N9H20/BSP/Driver/Source/SYS\wb_config.c **** 	)
  80:F:/ARM_Project/W55FA92/N9H20/BSP/Driver/Source/SYS\wb_config.c **** {
  28              		.loc 1 80 0
  29              		.cfi_startproc
  30              		@ args = 0, pretend = 0, frame = 16
  31              		@ frame_needed = 0, uses_anonymous_args = 0
  32              	.LVL0:
  81:F:/ARM_Project/W55FA92/N9H20/BSP/Driver/Source/SYS\wb_config.c **** 	UINT32 u32PllCntlReg, u32Fout;
  82:F:/ARM_Project/W55FA92/N9H20/BSP/Driver/Source/SYS\wb_config.c **** 	UINT32 NF, NR, NO;
  83:F:/ARM_Project/W55FA92/N9H20/BSP/Driver/Source/SYS\wb_config.c **** 	UINT32 u32NOArray[] = { 1, 2, 4, 8}; 
  33              		.loc 1 83 0
  34 0000 90309FE5 		ldr	r3, .L8
  80:F:/ARM_Project/W55FA92/N9H20/BSP/Driver/Source/SYS\wb_config.c **** 	UINT32 u32PllCntlReg, u32Fout;
  35              		.loc 1 80 0
  36 0004 30402DE9 		push	{r4, r5, lr}
  37              		.cfi_def_cfa_offset 12
  38              		.cfi_offset 4, -12
  39              		.cfi_offset 5, -8
  40              		.cfi_offset 14, -4
  41 0008 01C0A0E1 		mov	ip, r1
  42 000c 00E0A0E1 		mov	lr, r0
  43              		.loc 1 83 0
  44 0010 0F0093E8 		ldm	r3, {r0, r1, r2, r3}
  45              	.LVL1:
  80:F:/ARM_Project/W55FA92/N9H20/BSP/Driver/Source/SYS\wb_config.c **** 	UINT32 u32PllCntlReg, u32Fout;
  46              		.loc 1 80 0
  47 0014 14D04DE2 		sub	sp, sp, #20
  48              		.cfi_def_cfa_offset 32
  84:F:/ARM_Project/W55FA92/N9H20/BSP/Driver/Source/SYS\wb_config.c **** 	
  85:F:/ARM_Project/W55FA92/N9H20/BSP/Driver/Source/SYS\wb_config.c **** 	
  86:F:/ARM_Project/W55FA92/N9H20/BSP/Driver/Source/SYS\wb_config.c **** 	if(eSysPll==eSYS_APLL)
  49              		.loc 1 86 0
  50 0018 02005EE3 		cmp	lr, #2
  83:F:/ARM_Project/W55FA92/N9H20/BSP/Driver/Source/SYS\wb_config.c **** 	
  51              		.loc 1 83 0
  52 001c 10508DE2 		add	r5, sp, #16
  53 0020 0F0005E9 		stmdb	r5, {r0, r1, r2, r3}
  87:F:/ARM_Project/W55FA92/N9H20/BSP/Driver/Source/SYS\wb_config.c **** 		u32PllCntlReg = inp32(REG_APLLCON);
  54              		.loc 1 87 0
  55 0024 0B32A003 		moveq	r3, #-1342177280
  56 0028 20429305 		ldreq	r4, [r3, #544]
  86:F:/ARM_Project/W55FA92/N9H20/BSP/Driver/Source/SYS\wb_config.c **** 		u32PllCntlReg = inp32(REG_APLLCON);
  57              		.loc 1 86 0
  58 002c 0600000A 		beq	.L3
  88:F:/ARM_Project/W55FA92/N9H20/BSP/Driver/Source/SYS\wb_config.c **** 	else if(eSysPll==eSYS_UPLL)	
  59              		.loc 1 88 0
  60 0030 03005EE3 		cmp	lr, #3
  89:F:/ARM_Project/W55FA92/N9H20/BSP/Driver/Source/SYS\wb_config.c **** 		u32PllCntlReg = inp32(REG_UPLLCON);
  61              		.loc 1 89 0
  62 0034 0B32A003 		moveq	r3, #-1342177280
  63 0038 24429305 		ldreq	r4, [r3, #548]
  88:F:/ARM_Project/W55FA92/N9H20/BSP/Driver/Source/SYS\wb_config.c **** 	else if(eSysPll==eSYS_UPLL)	
  64              		.loc 1 88 0
  65 003c 0200000A 		beq	.L3
  90:F:/ARM_Project/W55FA92/N9H20/BSP/Driver/Source/SYS\wb_config.c **** 	else if(eSysPll==eSYS_MPLL)	
  66              		.loc 1 90 0
  67 0040 01005EE3 		cmp	lr, #1
  91:F:/ARM_Project/W55FA92/N9H20/BSP/Driver/Source/SYS\wb_config.c **** 		u32PllCntlReg = inp32(REG_MPLLCON);			
  68              		.loc 1 91 0
  69 0044 0B32A003 		moveq	r3, #-1342177280
  70 0048 28429305 		ldreq	r4, [r3, #552]
  71              	.LVL2:
  72              	.L3:
  92:F:/ARM_Project/W55FA92/N9H20/BSP/Driver/Source/SYS\wb_config.c **** 		
  93:F:/ARM_Project/W55FA92/N9H20/BSP/Driver/Source/SYS\wb_config.c **** 	if(u32PllCntlReg&0x10000)			//PLL power down. 
  73              		.loc 1 93 0
  74 004c 010814E3 		tst	r4, #65536
  94:F:/ARM_Project/W55FA92/N9H20/BSP/Driver/Source/SYS\wb_config.c **** 		return 0;
  75              		.loc 1 94 0
  76 0050 0030A013 		movne	r3, #0
  93:F:/ARM_Project/W55FA92/N9H20/BSP/Driver/Source/SYS\wb_config.c **** 		return 0;
  77              		.loc 1 93 0
  78 0054 0C00001A 		bne	.L1
  95:F:/ARM_Project/W55FA92/N9H20/BSP/Driver/Source/SYS\wb_config.c **** 	
  96:F:/ARM_Project/W55FA92/N9H20/BSP/Driver/Source/SYS\wb_config.c **** 	NF = (u32PllCntlReg & 0x7F)<<1;
  97:F:/ARM_Project/W55FA92/N9H20/BSP/Driver/Source/SYS\wb_config.c **** 	NR = (u32PllCntlReg & 0x780)>>7; 
  98:F:/ARM_Project/W55FA92/N9H20/BSP/Driver/Source/SYS\wb_config.c **** 	NO = u32NOArray[((u32PllCntlReg&0x1800)>>11)];
  79              		.loc 1 98 0
  80 0058 A434A0E1 		lsr	r3, r4, #9
  81 005c 10208DE2 		add	r2, sp, #16
  82 0060 0C3003E2 		and	r3, r3, #12
  83 0064 033082E0 		add	r3, r2, r3
  99:F:/ARM_Project/W55FA92/N9H20/BSP/Driver/Source/SYS\wb_config.c **** 
 100:F:/ARM_Project/W55FA92/N9H20/BSP/Driver/Source/SYS\wb_config.c **** 	u32Fout = u32FinHz/NO/NR*NF;
  84              		.loc 1 100 0
  85 0068 101013E5 		ldr	r1, [r3, #-16]
  86 006c 0C00A0E1 		mov	r0, ip
  87              	.LVL3:
  88 0070 FEFFFFEB 		bl	__aeabi_uidiv
  89              	.LVL4:
  97:F:/ARM_Project/W55FA92/N9H20/BSP/Driver/Source/SYS\wb_config.c **** 	NO = u32NOArray[((u32PllCntlReg&0x1800)>>11)];
  90              		.loc 1 97 0
  91 0074 A413A0E1 		lsr	r1, r4, #7
  92              		.loc 1 100 0
  93 0078 0F1001E2 		and	r1, r1, #15
  94              	.LVL5:
  95 007c FEFFFFEB 		bl	__aeabi_uidiv
  96              	.LVL6:
  96:F:/ARM_Project/W55FA92/N9H20/BSP/Driver/Source/SYS\wb_config.c **** 	NR = (u32PllCntlReg & 0x780)>>7; 
  97              		.loc 1 96 0
  98 0080 8440A0E1 		lsl	r4, r4, #1
  99              	.LVL7:
 100 0084 FF4004E2 		and	r4, r4, #255
 101              	.LVL8:
 102              		.loc 1 100 0
 103 0088 940003E0 		mul	r3, r4, r0
 104              	.LVL9:
 105              	.L1:
 101:F:/ARM_Project/W55FA92/N9H20/BSP/Driver/Source/SYS\wb_config.c **** 	#ifdef REAL_CHIP
 102:F:/ARM_Project/W55FA92/N9H20/BSP/Driver/Source/SYS\wb_config.c **** 	return u32Fout;
 103:F:/ARM_Project/W55FA92/N9H20/BSP/Driver/Source/SYS\wb_config.c **** 	#else
 104:F:/ARM_Project/W55FA92/N9H20/BSP/Driver/Source/SYS\wb_config.c **** 	return u32FinHz;
 105:F:/ARM_Project/W55FA92/N9H20/BSP/Driver/Source/SYS\wb_config.c **** 	#endif
 106:F:/ARM_Project/W55FA92/N9H20/BSP/Driver/Source/SYS\wb_config.c **** 				
 107:F:/ARM_Project/W55FA92/N9H20/BSP/Driver/Source/SYS\wb_config.c **** }
 106              		.loc 1 107 0
 107 008c 0300A0E1 		mov	r0, r3
 108 0090 14D08DE2 		add	sp, sp, #20
 109              		.cfi_def_cfa_offset 12
 110              		@ sp needed
 111 0094 3080BDE8 		pop	{r4, r5, pc}
 112              	.L9:
 113              		.align	2
 114              	.L8:
 115 0098 00000000 		.word	.LANCHOR0
 116              		.cfi_endproc
 117              	.LFE6:
 119              		.global	bIsCheckConstraint
 120              		.section	.text.sysCheckPllConstraint,"ax",%progbits
 121              		.align	2
 122              		.global	sysCheckPllConstraint
 123              		.syntax unified
 124              		.arm
 125              		.fpu softvfp
 127              	sysCheckPllConstraint:
 128              	.LFB7:
 108:F:/ARM_Project/W55FA92/N9H20/BSP/Driver/Source/SYS\wb_config.c **** /*-------------------------------------------------------------------------------------------------
 109:F:/ARM_Project/W55FA92/N9H20/BSP/Driver/Source/SYS\wb_config.c ****  *
 110:F:/ARM_Project/W55FA92/N9H20/BSP/Driver/Source/SYS\wb_config.c ****  * Function : sysGetPLLControlRegister
 111:F:/ARM_Project/W55FA92/N9H20/BSP/Driver/Source/SYS\wb_config.c ****  * 
 112:F:/ARM_Project/W55FA92/N9H20/BSP/Driver/Source/SYS\wb_config.c ****  * DESCRIPTION : 
 113:F:/ARM_Project/W55FA92/N9H20/BSP/Driver/Source/SYS\wb_config.c ****  *               According to the external clock and expected PLL output clock to get the content o
 114:F:/ARM_Project/W55FA92/N9H20/BSP/Driver/Source/SYS\wb_config.c ****  *
 115:F:/ARM_Project/W55FA92/N9H20/BSP/Driver/Source/SYS\wb_config.c ****  * Parameters 
 116:F:/ARM_Project/W55FA92/N9H20/BSP/Driver/Source/SYS\wb_config.c ****  *             	u32FinKHz : External clock.  Unit:KHz
 117:F:/ARM_Project/W55FA92/N9H20/BSP/Driver/Source/SYS\wb_config.c ****  *			u32TargetKHz: PLL output clock. Unit:KHz
 118:F:/ARM_Project/W55FA92/N9H20/BSP/Driver/Source/SYS\wb_config.c ****  * Return 
 119:F:/ARM_Project/W55FA92/N9H20/BSP/Driver/Source/SYS\wb_config.c ****  *               	0 : No any fit value for the specified PLL output clock
 120:F:/ARM_Project/W55FA92/N9H20/BSP/Driver/Source/SYS\wb_config.c ****  *			PLL control register. 
 121:F:/ARM_Project/W55FA92/N9H20/BSP/Driver/Source/SYS\wb_config.c ****  * HISTORY
 122:F:/ARM_Project/W55FA92/N9H20/BSP/Driver/Source/SYS\wb_config.c ****  *               2011-10-21
 123:F:/ARM_Project/W55FA92/N9H20/BSP/Driver/Source/SYS\wb_config.c ****  * 
 124:F:/ARM_Project/W55FA92/N9H20/BSP/Driver/Source/SYS\wb_config.c **** ---------------------------------------------------------------------------------------------------
 125:F:/ARM_Project/W55FA92/N9H20/BSP/Driver/Source/SYS\wb_config.c **** 
 126:F:/ARM_Project/W55FA92/N9H20/BSP/Driver/Source/SYS\wb_config.c **** BOOL bIsCheckConstraint = TRUE;
 127:F:/ARM_Project/W55FA92/N9H20/BSP/Driver/Source/SYS\wb_config.c **** void sysCheckPllConstraint(BOOL bIsCheck)
 128:F:/ARM_Project/W55FA92/N9H20/BSP/Driver/Source/SYS\wb_config.c **** {
 129              		.loc 1 128 0
 130              		.cfi_startproc
 131              		@ args = 0, pretend = 0, frame = 0
 132              		@ frame_needed = 0, uses_anonymous_args = 0
 133              		@ link register save eliminated.
 134              	.LVL10:
 129:F:/ARM_Project/W55FA92/N9H20/BSP/Driver/Source/SYS\wb_config.c **** 	bIsCheckConstraint = bIsCheck;
 135              		.loc 1 129 0
 136 0000 04309FE5 		ldr	r3, .L11
 137 0004 0000C3E5 		strb	r0, [r3]
 130:F:/ARM_Project/W55FA92/N9H20/BSP/Driver/Source/SYS\wb_config.c **** }
 138              		.loc 1 130 0
 139 0008 1EFF2FE1 		bx	lr
 140              	.L12:
 141              		.align	2
 142              	.L11:
 143 000c 00000000 		.word	.LANCHOR1
 144              		.cfi_endproc
 145              	.LFE7:
 147              		.section	.text._sysGetPLLControlRegister,"ax",%progbits
 148              		.align	2
 149              		.global	_sysGetPLLControlRegister
 150              		.syntax unified
 151              		.arm
 152              		.fpu softvfp
 154              	_sysGetPLLControlRegister:
 155              	.LFB8:
 131:F:/ARM_Project/W55FA92/N9H20/BSP/Driver/Source/SYS\wb_config.c **** 
 132:F:/ARM_Project/W55FA92/N9H20/BSP/Driver/Source/SYS\wb_config.c **** #define MIN_FBDV_M		4
 133:F:/ARM_Project/W55FA92/N9H20/BSP/Driver/Source/SYS\wb_config.c **** #define MAX_FBDV_M		256
 134:F:/ARM_Project/W55FA92/N9H20/BSP/Driver/Source/SYS\wb_config.c **** #define MIN_INDV_N		2
 135:F:/ARM_Project/W55FA92/N9H20/BSP/Driver/Source/SYS\wb_config.c **** #define MAX_INDV_N		16
 136:F:/ARM_Project/W55FA92/N9H20/BSP/Driver/Source/SYS\wb_config.c **** INT32 _sysGetPLLControlRegister(UINT32 u32FinKHz, UINT32 u32TargetHz)
 137:F:/ARM_Project/W55FA92/N9H20/BSP/Driver/Source/SYS\wb_config.c **** {	
 156              		.loc 1 137 0
 157              		.cfi_startproc
 158              		@ args = 0, pretend = 0, frame = 24
 159              		@ frame_needed = 0, uses_anonymous_args = 0
 160              	.LVL11:
 138:F:/ARM_Project/W55FA92/N9H20/BSP/Driver/Source/SYS\wb_config.c **** 	UINT32 u32ClkOut;	
 139:F:/ARM_Project/W55FA92/N9H20/BSP/Driver/Source/SYS\wb_config.c **** 	UINT32 u32NO;
 140:F:/ARM_Project/W55FA92/N9H20/BSP/Driver/Source/SYS\wb_config.c **** 	UINT32 u32IdxM, u32IdxN;
 141:F:/ARM_Project/W55FA92/N9H20/BSP/Driver/Source/SYS\wb_config.c **** 	INT32 i32IdxNO;
 142:F:/ARM_Project/W55FA92/N9H20/BSP/Driver/Source/SYS\wb_config.c **** 	UINT32 u32NOArray[] = { 1, 2, 4, 8}; 
 161              		.loc 1 142 0
 162 0000 F8309FE5 		ldr	r3, .L26
 137:F:/ARM_Project/W55FA92/N9H20/BSP/Driver/Source/SYS\wb_config.c **** 	UINT32 u32ClkOut;	
 163              		.loc 1 137 0
 164 0004 F04F2DE9 		push	{r4, r5, r6, r7, r8, r9, r10, fp, lr}
 165              		.cfi_def_cfa_offset 36
 166              		.cfi_offset 4, -36
 167              		.cfi_offset 5, -32
 168              		.cfi_offset 6, -28
 169              		.cfi_offset 7, -24
 170              		.cfi_offset 8, -20
 171              		.cfi_offset 9, -16
 172              		.cfi_offset 10, -12
 173              		.cfi_offset 11, -8
 174              		.cfi_offset 14, -4
 175 0008 1CD04DE2 		sub	sp, sp, #28
 176              		.cfi_def_cfa_offset 64
 137:F:/ARM_Project/W55FA92/N9H20/BSP/Driver/Source/SYS\wb_config.c **** 	UINT32 u32ClkOut;	
 177              		.loc 1 137 0
 178 000c 0080A0E1 		mov	r8, r0
 179 0010 04108DE5 		str	r1, [sp, #4]
 180              		.loc 1 142 0
 181 0014 0F0093E8 		ldm	r3, {r0, r1, r2, r3}
 182              	.LVL12:
 183 0018 18C08DE2 		add	ip, sp, #24
 184 001c 0F000CE9 		stmdb	ip, {r0, r1, r2, r3}
 185              	.LVL13:
 143:F:/ARM_Project/W55FA92/N9H20/BSP/Driver/Source/SYS\wb_config.c **** #if 0	
 144:F:/ARM_Project/W55FA92/N9H20/BSP/Driver/Source/SYS\wb_config.c **** 	for(u32IdxM=MIN_FBDV_M;u32IdxM<MAX_FBDV_M;u32IdxM=u32IdxM+1)
 145:F:/ARM_Project/W55FA92/N9H20/BSP/Driver/Source/SYS\wb_config.c **** 	{//u32IdxM=NR >=4. Fedback divider. 
 146:F:/ARM_Project/W55FA92/N9H20/BSP/Driver/Source/SYS\wb_config.c **** 		for(u32IdxN=MIN_INDV_N;u32IdxN<MAX_INDV_N;u32IdxN=u32IdxN+1)
 147:F:/ARM_Project/W55FA92/N9H20/BSP/Driver/Source/SYS\wb_config.c **** 		{//u32IdxN=N >=2. (NR = u32IdxN). Input divider 			
 148:F:/ARM_Project/W55FA92/N9H20/BSP/Driver/Source/SYS\wb_config.c **** 			for(i32IdxNO=0;i32IdxNO<4;i32IdxNO=i32IdxNO+1)
 149:F:/ARM_Project/W55FA92/N9H20/BSP/Driver/Source/SYS\wb_config.c **** 			{			
 150:F:/ARM_Project/W55FA92/N9H20/BSP/Driver/Source/SYS\wb_config.c **** #else
 151:F:/ARM_Project/W55FA92/N9H20/BSP/Driver/Source/SYS\wb_config.c **** 	/* To get little jiter on PLL output, i32IdxNO has better =0x03 or 0x02 */
 152:F:/ARM_Project/W55FA92/N9H20/BSP/Driver/Source/SYS\wb_config.c **** 	for(i32IdxNO=3;i32IdxNO>0;i32IdxNO=i32IdxNO-1)
 153:F:/ARM_Project/W55FA92/N9H20/BSP/Driver/Source/SYS\wb_config.c **** 	{	
 154:F:/ARM_Project/W55FA92/N9H20/BSP/Driver/Source/SYS\wb_config.c **** 		for(u32IdxM=MIN_FBDV_M;u32IdxM<MAX_FBDV_M;u32IdxM=u32IdxM+1)
 155:F:/ARM_Project/W55FA92/N9H20/BSP/Driver/Source/SYS\wb_config.c **** 		{//u32IdxM=NR >=4. Fedback divider. 
 156:F:/ARM_Project/W55FA92/N9H20/BSP/Driver/Source/SYS\wb_config.c **** 			for(u32IdxN=MIN_INDV_N;u32IdxN<MAX_INDV_N;u32IdxN=u32IdxN+1)
 157:F:/ARM_Project/W55FA92/N9H20/BSP/Driver/Source/SYS\wb_config.c **** 			{//u32IdxN=N >=2. (NR = u32IdxN). Input divider 								
 158:F:/ARM_Project/W55FA92/N9H20/BSP/Driver/Source/SYS\wb_config.c **** #endif
 159:F:/ARM_Project/W55FA92/N9H20/BSP/Driver/Source/SYS\wb_config.c **** 				if(bIsCheckConstraint==TRUE)
 186              		.loc 1 159 0
 187 0020 DC309FE5 		ldr	r3, .L26+4
 188 0024 14B08DE2 		add	fp, sp, #20
 189 0028 D090D3E1 		ldrsb	r9, [r3]
 190 002c 0370A0E3 		mov	r7, #3
 191 0030 0831A0E1 		lsl	r3, r8, #2
 192 0034 00308DE5 		str	r3, [sp]
 193              	.LVL14:
 194              	.L14:
 156:F:/ARM_Project/W55FA92/N9H20/BSP/Driver/Source/SYS\wb_config.c **** 			{//u32IdxN=N >=2. (NR = u32IdxN). Input divider 								
 195              		.loc 1 156 0
 196 0038 00A09DE5 		ldr	r10, [sp]
 154:F:/ARM_Project/W55FA92/N9H20/BSP/Driver/Source/SYS\wb_config.c **** 		{//u32IdxM=NR >=4. Fedback divider. 
 197              		.loc 1 154 0
 198 003c 0460A0E3 		mov	r6, #4
 199 0040 0C0000EA 		b	.L22
 200              	.LVL15:
 201              	.L17:
 160:F:/ARM_Project/W55FA92/N9H20/BSP/Driver/Source/SYS\wb_config.c **** 				{		
 161:F:/ARM_Project/W55FA92/N9H20/BSP/Driver/Source/SYS\wb_config.c **** 					if((u32FinKHz/u32IdxN)>50000)					/* 1MHz < FIN/NR < 50MHz */
 162:F:/ARM_Project/W55FA92/N9H20/BSP/Driver/Source/SYS\wb_config.c **** 						continue;
 163:F:/ARM_Project/W55FA92/N9H20/BSP/Driver/Source/SYS\wb_config.c **** 					if((u32FinKHz/u32IdxN)<1000)	
 164:F:/ARM_Project/W55FA92/N9H20/BSP/Driver/Source/SYS\wb_config.c **** 						continue;		
 165:F:/ARM_Project/W55FA92/N9H20/BSP/Driver/Source/SYS\wb_config.c **** 				}											
 166:F:/ARM_Project/W55FA92/N9H20/BSP/Driver/Source/SYS\wb_config.c **** 				u32NO = u32NOArray[i32IdxNO];				/* FOUT = (FIN * NF/NR)/NO */
 167:F:/ARM_Project/W55FA92/N9H20/BSP/Driver/Source/SYS\wb_config.c **** 				u32ClkOut = u32FinKHz*u32IdxM/u32IdxN/u32NO;	/* Where NF = u32IdxM, 	NR = u32IdxN, NO=u32NOArra
 168:F:/ARM_Project/W55FA92/N9H20/BSP/Driver/Source/SYS\wb_config.c **** 				if((u32ClkOut*1000)==u32TargetHz)
 169:F:/ARM_Project/W55FA92/N9H20/BSP/Driver/Source/SYS\wb_config.c **** 				{
 170:F:/ARM_Project/W55FA92/N9H20/BSP/Driver/Source/SYS\wb_config.c **** 					if(bIsCheckConstraint==TRUE)
 171:F:/ARM_Project/W55FA92/N9H20/BSP/Driver/Source/SYS\wb_config.c **** 					{
 172:F:/ARM_Project/W55FA92/N9H20/BSP/Driver/Source/SYS\wb_config.c **** 						if((u32ClkOut*u32NO)<500000)   			/* 500MHz <= FIN/NO < 1500MHz */
 202              		.loc 1 172 0
 203 0044 900505E0 		mul	r5, r0, r5
 204              	.LVL16:
 173:F:/ARM_Project/W55FA92/N9H20/BSP/Driver/Source/SYS\wb_config.c **** 							continue;
 174:F:/ARM_Project/W55FA92/N9H20/BSP/Driver/Source/SYS\wb_config.c **** 						if((u32ClkOut*u32NO)>1500000)
 205              		.loc 1 174 0
 206 0048 B8309FE5 		ldr	r3, .L26+8
 207 004c 7A5A45E2 		sub	r5, r5, #499712
 208 0050 125E45E2 		sub	r5, r5, #288
 209 0054 030055E1 		cmp	r5, r3
 210 0058 1E00009A 		bls	.L19
 211              	.LVL17:
 212              	.L16:
 156:F:/ARM_Project/W55FA92/N9H20/BSP/Driver/Source/SYS\wb_config.c **** 			{//u32IdxN=N >=2. (NR = u32IdxN). Input divider 								
 213              		.loc 1 156 0 discriminator 2
 214 005c 014084E2 		add	r4, r4, #1
 215              	.LVL18:
 216 0060 100054E3 		cmp	r4, #16
 217 0064 0400001A 		bne	.L20
 154:F:/ARM_Project/W55FA92/N9H20/BSP/Driver/Source/SYS\wb_config.c **** 		{//u32IdxM=NR >=4. Fedback divider. 
 218              		.loc 1 154 0 discriminator 2
 219 0068 016086E2 		add	r6, r6, #1
 220              	.LVL19:
 221 006c 010C56E3 		cmp	r6, #256
 222 0070 08A08AE0 		add	r10, r10, r8
 223 0074 1C00000A 		beq	.L21
 224              	.LVL20:
 225              	.L22:
 156:F:/ARM_Project/W55FA92/N9H20/BSP/Driver/Source/SYS\wb_config.c **** 			{//u32IdxN=N >=2. (NR = u32IdxN). Input divider 								
 226              		.loc 1 156 0
 227 0078 0240A0E3 		mov	r4, #2
 228              	.LVL21:
 229              	.L20:
 159:F:/ARM_Project/W55FA92/N9H20/BSP/Driver/Source/SYS\wb_config.c **** 				{		
 230              		.loc 1 159 0
 231 007c 010059E3 		cmp	r9, #1
 232 0080 0600001A 		bne	.L15
 161:F:/ARM_Project/W55FA92/N9H20/BSP/Driver/Source/SYS\wb_config.c **** 						continue;
 233              		.loc 1 161 0
 234 0084 0410A0E1 		mov	r1, r4
 235 0088 0800A0E1 		mov	r0, r8
 236 008c FEFFFFEB 		bl	__aeabi_uidiv
 237              	.LVL22:
 163:F:/ARM_Project/W55FA92/N9H20/BSP/Driver/Source/SYS\wb_config.c **** 						continue;		
 238              		.loc 1 163 0
 239 0090 74309FE5 		ldr	r3, .L26+12
 240 0094 FA0F40E2 		sub	r0, r0, #1000
 241 0098 030050E1 		cmp	r0, r3
 242 009c EEFFFF8A 		bhi	.L16
 243              	.L15:
 166:F:/ARM_Project/W55FA92/N9H20/BSP/Driver/Source/SYS\wb_config.c **** 				u32ClkOut = u32FinKHz*u32IdxM/u32IdxN/u32NO;	/* Where NF = u32IdxM, 	NR = u32IdxN, NO=u32NOArra
 244              		.loc 1 166 0
 245 00a0 00309BE5 		ldr	r3, [fp]
 167:F:/ARM_Project/W55FA92/N9H20/BSP/Driver/Source/SYS\wb_config.c **** 				if((u32ClkOut*1000)==u32TargetHz)
 246              		.loc 1 167 0
 247 00a4 0410A0E1 		mov	r1, r4
 166:F:/ARM_Project/W55FA92/N9H20/BSP/Driver/Source/SYS\wb_config.c **** 				u32ClkOut = u32FinKHz*u32IdxM/u32IdxN/u32NO;	/* Where NF = u32IdxM, 	NR = u32IdxN, NO=u32NOArra
 248              		.loc 1 166 0
 249 00a8 0350A0E1 		mov	r5, r3
 250              	.LVL23:
 167:F:/ARM_Project/W55FA92/N9H20/BSP/Driver/Source/SYS\wb_config.c **** 				if((u32ClkOut*1000)==u32TargetHz)
 251              		.loc 1 167 0
 252 00ac 0A00A0E1 		mov	r0, r10
 253 00b0 FEFFFFEB 		bl	__aeabi_uidiv
 254              	.LVL24:
 255 00b4 0510A0E1 		mov	r1, r5
 256 00b8 FEFFFFEB 		bl	__aeabi_uidiv
 257              	.LVL25:
 168:F:/ARM_Project/W55FA92/N9H20/BSP/Driver/Source/SYS\wb_config.c **** 				{
 258              		.loc 1 168 0
 259 00bc FA1FA0E3 		mov	r1, #1000
 260 00c0 04309DE5 		ldr	r3, [sp, #4]
 261 00c4 900101E0 		mul	r1, r0, r1
 262 00c8 030051E1 		cmp	r1, r3
 263 00cc E2FFFF1A 		bne	.L16
 170:F:/ARM_Project/W55FA92/N9H20/BSP/Driver/Source/SYS\wb_config.c **** 					{
 264              		.loc 1 170 0
 265 00d0 010059E3 		cmp	r9, #1
 266 00d4 DAFFFF0A 		beq	.L17
 267              	.LVL26:
 268              	.L19:
 175:F:/ARM_Project/W55FA92/N9H20/BSP/Driver/Source/SYS\wb_config.c **** 							continue;	
 176:F:/ARM_Project/W55FA92/N9H20/BSP/Driver/Source/SYS\wb_config.c **** 					}				
 177:F:/ARM_Project/W55FA92/N9H20/BSP/Driver/Source/SYS\wb_config.c **** 					DBG_PRINTF("\n****************\n");
 178:F:/ARM_Project/W55FA92/N9H20/BSP/Driver/Source/SYS\wb_config.c **** 					DBG_PRINTF("M = 0x%x\n",u32IdxM);
 179:F:/ARM_Project/W55FA92/N9H20/BSP/Driver/Source/SYS\wb_config.c **** 					DBG_PRINTF("N = 0x%x\n",u32IdxN);	
 180:F:/ARM_Project/W55FA92/N9H20/BSP/Driver/Source/SYS\wb_config.c **** 					DBG_PRINTF("NO = 0x%x\n",i32IdxNO);						
 181:F:/ARM_Project/W55FA92/N9H20/BSP/Driver/Source/SYS\wb_config.c **** 					return ((u32IdxM>>1) | (u32IdxN<<7) | (i32IdxNO<<11));					
 269              		.loc 1 181 0
 270 00d8 8403A0E1 		lsl	r0, r4, #7
 271              	.LVL27:
 272 00dc A60080E1 		orr	r0, r0, r6, lsr #1
 273 00e0 870580E1 		orr	r0, r0, r7, lsl #11
 274              	.LVL28:
 275              	.L13:
 182:F:/ARM_Project/W55FA92/N9H20/BSP/Driver/Source/SYS\wb_config.c **** 				}																										
 183:F:/ARM_Project/W55FA92/N9H20/BSP/Driver/Source/SYS\wb_config.c **** 			}
 184:F:/ARM_Project/W55FA92/N9H20/BSP/Driver/Source/SYS\wb_config.c **** 		}
 185:F:/ARM_Project/W55FA92/N9H20/BSP/Driver/Source/SYS\wb_config.c **** 	}
 186:F:/ARM_Project/W55FA92/N9H20/BSP/Driver/Source/SYS\wb_config.c **** 	return -1;
 187:F:/ARM_Project/W55FA92/N9H20/BSP/Driver/Source/SYS\wb_config.c **** }
 276              		.loc 1 187 0
 277 00e4 1CD08DE2 		add	sp, sp, #28
 278              		.cfi_remember_state
 279              		.cfi_def_cfa_offset 36
 280              		@ sp needed
 281 00e8 F08FBDE8 		pop	{r4, r5, r6, r7, r8, r9, r10, fp, pc}
 282              	.LVL29:
 283              	.L21:
 284              		.cfi_restore_state
 152:F:/ARM_Project/W55FA92/N9H20/BSP/Driver/Source/SYS\wb_config.c **** 	{	
 285              		.loc 1 152 0 discriminator 2
 286 00ec 017057E2 		subs	r7, r7, #1
 287              	.LVL30:
 288 00f0 04B04BE2 		sub	fp, fp, #4
 289 00f4 CFFFFF1A 		bne	.L14
 186:F:/ARM_Project/W55FA92/N9H20/BSP/Driver/Source/SYS\wb_config.c **** }
 290              		.loc 1 186 0
 291 00f8 0000E0E3 		mvn	r0, #0
 292 00fc F8FFFFEA 		b	.L13
 293              	.L27:
 294              		.align	2
 295              	.L26:
 296 0100 00000000 		.word	.LANCHOR0
 297 0104 00000000 		.word	.LANCHOR1
 298 0108 40420F00 		.word	1000000
 299 010c 68BF0000 		.word	49000
 300              		.cfi_endproc
 301              	.LFE8:
 303              		.section	.text.sysSetPLLControlRegister,"ax",%progbits
 304              		.align	2
 305              		.global	sysSetPLLControlRegister
 306              		.syntax unified
 307              		.arm
 308              		.fpu softvfp
 310              	sysSetPLLControlRegister:
 311              	.LFB9:
 188:F:/ARM_Project/W55FA92/N9H20/BSP/Driver/Source/SYS\wb_config.c **** 
 189:F:/ARM_Project/W55FA92/N9H20/BSP/Driver/Source/SYS\wb_config.c **** /*-------------------------------------------------------------------------------------------------
 190:F:/ARM_Project/W55FA92/N9H20/BSP/Driver/Source/SYS\wb_config.c **** * Function: sysSetPLLControlRegister                                                               
 191:F:/ARM_Project/W55FA92/N9H20/BSP/Driver/Source/SYS\wb_config.c **** *                                                                                                  
 192:F:/ARM_Project/W55FA92/N9H20/BSP/Driver/Source/SYS\wb_config.c **** * Parameters:                                                                                      
 193:F:/ARM_Project/W55FA92/N9H20/BSP/Driver/Source/SYS\wb_config.c **** *              u32PllValue - [in], PLL setting value                                               
 194:F:/ARM_Project/W55FA92/N9H20/BSP/Driver/Source/SYS\wb_config.c **** *                                                                                                  
 195:F:/ARM_Project/W55FA92/N9H20/BSP/Driver/Source/SYS\wb_config.c **** * Returns:                                                                                         
 196:F:/ARM_Project/W55FA92/N9H20/BSP/Driver/Source/SYS\wb_config.c **** *      None                                                                                        
 197:F:/ARM_Project/W55FA92/N9H20/BSP/Driver/Source/SYS\wb_config.c **** *                                                                                                  
 198:F:/ARM_Project/W55FA92/N9H20/BSP/Driver/Source/SYS\wb_config.c **** * Description:                                                                                     
 199:F:/ARM_Project/W55FA92/N9H20/BSP/Driver/Source/SYS\wb_config.c **** *              To set the PLL control register.                                                    
 200:F:/ARM_Project/W55FA92/N9H20/BSP/Driver/Source/SYS\wb_config.c **** *                                                                                                  
 201:F:/ARM_Project/W55FA92/N9H20/BSP/Driver/Source/SYS\wb_config.c **** ---------------------------------------------------------------------------------------------------
 202:F:/ARM_Project/W55FA92/N9H20/BSP/Driver/Source/SYS\wb_config.c **** void 
 203:F:/ARM_Project/W55FA92/N9H20/BSP/Driver/Source/SYS\wb_config.c **** sysSetPLLControlRegister(
 204:F:/ARM_Project/W55FA92/N9H20/BSP/Driver/Source/SYS\wb_config.c **** 	E_SYS_SRC_CLK eSysPll,		
 205:F:/ARM_Project/W55FA92/N9H20/BSP/Driver/Source/SYS\wb_config.c **** 	UINT32 u32PllValue
 206:F:/ARM_Project/W55FA92/N9H20/BSP/Driver/Source/SYS\wb_config.c **** 	)
 207:F:/ARM_Project/W55FA92/N9H20/BSP/Driver/Source/SYS\wb_config.c **** {
 312              		.loc 1 207 0
 313              		.cfi_startproc
 314              		@ args = 0, pretend = 0, frame = 0
 315              		@ frame_needed = 0, uses_anonymous_args = 0
 316              		@ link register save eliminated.
 317              	.LVL31:
 208:F:/ARM_Project/W55FA92/N9H20/BSP/Driver/Source/SYS\wb_config.c **** 	if(eSysPll==eSYS_APLL)
 318              		.loc 1 208 0
 319 0000 020050E3 		cmp	r0, #2
 209:F:/ARM_Project/W55FA92/N9H20/BSP/Driver/Source/SYS\wb_config.c **** 		outp32(REG_APLLCON, u32PllValue);
 320              		.loc 1 209 0
 321 0004 0B32A003 		moveq	r3, #-1342177280
 322 0008 20128305 		streq	r1, [r3, #544]
 210:F:/ARM_Project/W55FA92/N9H20/BSP/Driver/Source/SYS\wb_config.c **** 	else if(eSysPll==eSYS_APLL)
 211:F:/ARM_Project/W55FA92/N9H20/BSP/Driver/Source/SYS\wb_config.c **** 		outp32(REG_UPLLCON, u32PllValue);	
 212:F:/ARM_Project/W55FA92/N9H20/BSP/Driver/Source/SYS\wb_config.c **** }
 323              		.loc 1 212 0
 324 000c 1EFF2FE1 		bx	lr
 325              		.cfi_endproc
 326              	.LFE9:
 328              		.section	.text._sysClockSwitch,"ax",%progbits
 329              		.align	2
 330              		.global	_sysClockSwitch
 331              		.syntax unified
 332              		.arm
 333              		.fpu softvfp
 335              	_sysClockSwitch:
 336              	.LFB10:
 213:F:/ARM_Project/W55FA92/N9H20/BSP/Driver/Source/SYS\wb_config.c **** 
 214:F:/ARM_Project/W55FA92/N9H20/BSP/Driver/Source/SYS\wb_config.c **** /*-------------------------------------------------------------------------------------------------
 215:F:/ARM_Project/W55FA92/N9H20/BSP/Driver/Source/SYS\wb_config.c **** * Function: sysSetSystemClock                                                               
 216:F:/ARM_Project/W55FA92/N9H20/BSP/Driver/Source/SYS\wb_config.c **** *                                                                                                  
 217:F:/ARM_Project/W55FA92/N9H20/BSP/Driver/Source/SYS\wb_config.c **** * Parameters:                                                                                      
 218:F:/ARM_Project/W55FA92/N9H20/BSP/Driver/Source/SYS\wb_config.c **** *              u32PllValue - [in], PLL setting value                                               
 219:F:/ARM_Project/W55FA92/N9H20/BSP/Driver/Source/SYS\wb_config.c **** *                                                                                                  
 220:F:/ARM_Project/W55FA92/N9H20/BSP/Driver/Source/SYS\wb_config.c **** * Returns:                                                                                         
 221:F:/ARM_Project/W55FA92/N9H20/BSP/Driver/Source/SYS\wb_config.c **** *      None                                                                                        
 222:F:/ARM_Project/W55FA92/N9H20/BSP/Driver/Source/SYS\wb_config.c **** *                                                                                                  
 223:F:/ARM_Project/W55FA92/N9H20/BSP/Driver/Source/SYS\wb_config.c **** * Description:                                                                                     
 224:F:/ARM_Project/W55FA92/N9H20/BSP/Driver/Source/SYS\wb_config.c **** *              To set the PLL control register.                                                    
 225:F:/ARM_Project/W55FA92/N9H20/BSP/Driver/Source/SYS\wb_config.c **** *  
 226:F:/ARM_Project/W55FA92/N9H20/BSP/Driver/Source/SYS\wb_config.c **** *Note:
 227:F:/ARM_Project/W55FA92/N9H20/BSP/Driver/Source/SYS\wb_config.c **** *		Switch systetm clock to external clock first.
 228:F:/ARM_Project/W55FA92/N9H20/BSP/Driver/Source/SYS\wb_config.c **** *               
 229:F:/ARM_Project/W55FA92/N9H20/BSP/Driver/Source/SYS\wb_config.c **** *		refresh rate = REPEAT/Fmclk
 230:F:/ARM_Project/W55FA92/N9H20/BSP/Driver/Source/SYS\wb_config.c **** *		1. Disable interrupt
 231:F:/ARM_Project/W55FA92/N9H20/BSP/Driver/Source/SYS\wb_config.c **** *		2. Enter Self-refresh	
 232:F:/ARM_Project/W55FA92/N9H20/BSP/Driver/Source/SYS\wb_config.c **** *		3. Switch to external clock		
 233:F:/ARM_Project/W55FA92/N9H20/BSP/Driver/Source/SYS\wb_config.c **** *		4. Adjustment the sys divider. 
 234:F:/ARM_Project/W55FA92/N9H20/BSP/Driver/Source/SYS\wb_config.c **** *		
 235:F:/ARM_Project/W55FA92/N9H20/BSP/Driver/Source/SYS\wb_config.c **** *
 236:F:/ARM_Project/W55FA92/N9H20/BSP/Driver/Source/SYS\wb_config.c **** *
 237:F:/ARM_Project/W55FA92/N9H20/BSP/Driver/Source/SYS\wb_config.c **** *
 238:F:/ARM_Project/W55FA92/N9H20/BSP/Driver/Source/SYS\wb_config.c **** *
 239:F:/ARM_Project/W55FA92/N9H20/BSP/Driver/Source/SYS\wb_config.c **** *	                                                                                                 
 240:F:/ARM_Project/W55FA92/N9H20/BSP/Driver/Source/SYS\wb_config.c **** ---------------------------------------------------------------------------------------------------
 241:F:/ARM_Project/W55FA92/N9H20/BSP/Driver/Source/SYS\wb_config.c **** #if defined (__GNUC__) && !defined (__CC_ARM)
 242:F:/ARM_Project/W55FA92/N9H20/BSP/Driver/Source/SYS\wb_config.c **** #pragma GCC push_options
 243:F:/ARM_Project/W55FA92/N9H20/BSP/Driver/Source/SYS\wb_config.c **** #pragma GCC optimize ("O0")
 244:F:/ARM_Project/W55FA92/N9H20/BSP/Driver/Source/SYS\wb_config.c **** #endif
 245:F:/ARM_Project/W55FA92/N9H20/BSP/Driver/Source/SYS\wb_config.c **** void _sysClockSwitch(register E_SYS_SRC_CLK eSrcClk,	
 246:F:/ARM_Project/W55FA92/N9H20/BSP/Driver/Source/SYS\wb_config.c **** 						register UINT32 u32Hclk,						
 247:F:/ARM_Project/W55FA92/N9H20/BSP/Driver/Source/SYS\wb_config.c **** 						register UINT32 u32PllReg,						
 248:F:/ARM_Project/W55FA92/N9H20/BSP/Driver/Source/SYS\wb_config.c **** 						register UINT32 u32SysDiv)
 249:F:/ARM_Project/W55FA92/N9H20/BSP/Driver/Source/SYS\wb_config.c **** {
 337              		.loc 1 249 0
 338              		.cfi_startproc
 339              		@ args = 0, pretend = 0, frame = 8
 340              		@ frame_needed = 1, uses_anonymous_args = 0
 341              		@ link register save eliminated.
 342              	.LVL32:
 343 0000 70082DE9 		push	{r4, r5, r6, fp}
 344              		.cfi_def_cfa_offset 16
 345              		.cfi_offset 4, -16
 346              		.cfi_offset 5, -12
 347              		.cfi_offset 6, -8
 348              		.cfi_offset 11, -4
 349 0004 0CB08DE2 		add	fp, sp, #12
 350              		.cfi_def_cfa 11, 4
 351 0008 08D04DE2 		sub	sp, sp, #8
 352 000c 0010A0E1 		mov	r1, r0
 353              	.LVL33:
 354 0010 02C0A0E1 		mov	ip, r2
 355 0014 0320A0E1 		mov	r2, r3
 356              	.LVL34:
 250:F:/ARM_Project/W55FA92/N9H20/BSP/Driver/Source/SYS\wb_config.c **** 	register int reg2, reg1, reg0;
 251:F:/ARM_Project/W55FA92/N9H20/BSP/Driver/Source/SYS\wb_config.c **** 	UINT32 u32IntTmp;
 252:F:/ARM_Project/W55FA92/N9H20/BSP/Driver/Source/SYS\wb_config.c **** 	/* disable interrupt (I will recovery it after clock changed) */
 253:F:/ARM_Project/W55FA92/N9H20/BSP/Driver/Source/SYS\wb_config.c **** 	u32IntTmp = inp32(REG_AIC_IMR);
 357              		.loc 1 253 0
 358 0018 34319FE5 		ldr	r3, .L34
 359              	.LVL35:
 360 001c 003093E5 		ldr	r3, [r3]
 361 0020 10300BE5 		str	r3, [fp, #-16]
 362              	.LVL36:
 254:F:/ARM_Project/W55FA92/N9H20/BSP/Driver/Source/SYS\wb_config.c **** 	outp32(REG_AIC_MDCR, 0xFFFFFFFE);		
 363              		.loc 1 254 0
 364 0024 2C319FE5 		ldr	r3, .L34+4
 365              	.LVL37:
 366 0028 0100E0E3 		mvn	r0, #1
 367              	.LVL38:
 368 002c 000083E5 		str	r0, [r3]
 255:F:/ARM_Project/W55FA92/N9H20/BSP/Driver/Source/SYS\wb_config.c **** 	
 256:F:/ARM_Project/W55FA92/N9H20/BSP/Driver/Source/SYS\wb_config.c **** 	/* DRAM enter self refresh mode */
 257:F:/ARM_Project/W55FA92/N9H20/BSP/Driver/Source/SYS\wb_config.c **** 	outp32(REG_SDCMD, inp32(REG_SDCMD) | (SELF_REF| REF_CMD));	
 369              		.loc 1 257 0
 370 0030 24319FE5 		ldr	r3, .L34+8
 371 0034 003093E5 		ldr	r3, [r3]
 372 0038 1C019FE5 		ldr	r0, .L34+8
 373 003c 183083E3 		orr	r3, r3, #24
 374 0040 003080E5 		str	r3, [r0]
 258:F:/ARM_Project/W55FA92/N9H20/BSP/Driver/Source/SYS\wb_config.c **** 	
 259:F:/ARM_Project/W55FA92/N9H20/BSP/Driver/Source/SYS\wb_config.c **** #if defined (__GNUC__)
 260:F:/ARM_Project/W55FA92/N9H20/BSP/Driver/Source/SYS\wb_config.c **** 	__asm
 375              		.loc 1 260 0
 376              		.syntax divided
 377              	@ 260 "F:/ARM_Project/W55FA92/N9H20/BSP/Driver/Source/SYS/wb_config.c" 1
 378 0044 6440A0E3 		  mov 	r4, #100       
 379 0048 0050A0E3 	  mov  r5, #0         
 380 004c 0160A0E3 	  mov  r6, #1         
 381              	 loop1:	           
 382 0050 065085E0 	  add  r5, r5, r6     
 383 0054 040055E1 	  cmp 	r5, r4         
 384 0058 FCFFFF1A 	  bne  loop1          
 385              	
 386              	@ 0 "" 2
 261:F:/ARM_Project/W55FA92/N9H20/BSP/Driver/Source/SYS\wb_config.c ****     (
 262:F:/ARM_Project/W55FA92/N9H20/BSP/Driver/Source/SYS\wb_config.c ****         "  mov 	%0, #100       \n"
 263:F:/ARM_Project/W55FA92/N9H20/BSP/Driver/Source/SYS\wb_config.c ****         "  mov  %1, #0         \n"
 264:F:/ARM_Project/W55FA92/N9H20/BSP/Driver/Source/SYS\wb_config.c ****         "  mov  %2, #1         \n"
 265:F:/ARM_Project/W55FA92/N9H20/BSP/Driver/Source/SYS\wb_config.c ****         " loop1:	           \n"
 266:F:/ARM_Project/W55FA92/N9H20/BSP/Driver/Source/SYS\wb_config.c ****         "  add  %1, %1, %2     \n"
 267:F:/ARM_Project/W55FA92/N9H20/BSP/Driver/Source/SYS\wb_config.c ****         "  cmp 	%1, %0         \n"
 268:F:/ARM_Project/W55FA92/N9H20/BSP/Driver/Source/SYS\wb_config.c ****         "  bne  loop1          \n"
 269:F:/ARM_Project/W55FA92/N9H20/BSP/Driver/Source/SYS\wb_config.c ****     	: : "r"(reg2), "r"(reg1), "r"(reg0) :"memory"
 270:F:/ARM_Project/W55FA92/N9H20/BSP/Driver/Source/SYS\wb_config.c ****     );
 271:F:/ARM_Project/W55FA92/N9H20/BSP/Driver/Source/SYS\wb_config.c **** #else	
 272:F:/ARM_Project/W55FA92/N9H20/BSP/Driver/Source/SYS\wb_config.c **** 	__asm
 273:F:/ARM_Project/W55FA92/N9H20/BSP/Driver/Source/SYS\wb_config.c **** 	{
 274:F:/ARM_Project/W55FA92/N9H20/BSP/Driver/Source/SYS\wb_config.c **** 		mov     reg2, #100
 275:F:/ARM_Project/W55FA92/N9H20/BSP/Driver/Source/SYS\wb_config.c **** 		mov	    reg1, #0
 276:F:/ARM_Project/W55FA92/N9H20/BSP/Driver/Source/SYS\wb_config.c **** 		mov	    reg0, #1
 277:F:/ARM_Project/W55FA92/N9H20/BSP/Driver/Source/SYS\wb_config.c **** loop1:	add     reg1, reg1, reg0
 278:F:/ARM_Project/W55FA92/N9H20/BSP/Driver/Source/SYS\wb_config.c **** 		cmp     reg1, reg2
 279:F:/ARM_Project/W55FA92/N9H20/BSP/Driver/Source/SYS\wb_config.c **** 		bne	    loop1
 280:F:/ARM_Project/W55FA92/N9H20/BSP/Driver/Source/SYS\wb_config.c **** 	}	
 281:F:/ARM_Project/W55FA92/N9H20/BSP/Driver/Source/SYS\wb_config.c **** #endif	
 282:F:/ARM_Project/W55FA92/N9H20/BSP/Driver/Source/SYS\wb_config.c **** #if 0
 283:F:/ARM_Project/W55FA92/N9H20/BSP/Driver/Source/SYS\wb_config.c **** 	//outp32(REG_SDCMD, (inp32(REG_SDCMD) & ~0x20) | 0x10);	
 284:F:/ARM_Project/W55FA92/N9H20/BSP/Driver/Source/SYS\wb_config.c **** 	/* Switch to external clock and divider to 0*/		
 285:F:/ARM_Project/W55FA92/N9H20/BSP/Driver/Source/SYS\wb_config.c **** 	outp32(REG_CLKDIV0, (inp32(REG_CLKDIV0) & ~(SYSTEM_N1 | SYSTEM_S | SYSTEM_N0)) );
 286:F:/ARM_Project/W55FA92/N9H20/BSP/Driver/Source/SYS\wb_config.c **** #else
 287:F:/ARM_Project/W55FA92/N9H20/BSP/Driver/Source/SYS\wb_config.c **** 	outp32(REG_UPLLCON, inp32(REG_UPLLCON) | BIT15);
 387              		.loc 1 287 0
 388              		.arm
 389              		.syntax unified
 390 005c FC309FE5 		ldr	r3, .L34+12
 391 0060 003093E5 		ldr	r3, [r3]
 392 0064 F4009FE5 		ldr	r0, .L34+12
 393 0068 023983E3 		orr	r3, r3, #32768
 394 006c 003080E5 		str	r3, [r0]
 288:F:/ARM_Project/W55FA92/N9H20/BSP/Driver/Source/SYS\wb_config.c **** #endif	
 289:F:/ARM_Project/W55FA92/N9H20/BSP/Driver/Source/SYS\wb_config.c **** 
 290:F:/ARM_Project/W55FA92/N9H20/BSP/Driver/Source/SYS\wb_config.c **** 	if(eSrcClk==eSYS_EXT)
 395              		.loc 1 290 0
 396 0070 000051E3 		cmp	r1, #0
 397 0074 0700001A 		bne	.L31
 291:F:/ARM_Project/W55FA92/N9H20/BSP/Driver/Source/SYS\wb_config.c **** 	{
 292:F:/ARM_Project/W55FA92/N9H20/BSP/Driver/Source/SYS\wb_config.c **** 		/* Fill system clock divider */	
 293:F:/ARM_Project/W55FA92/N9H20/BSP/Driver/Source/SYS\wb_config.c **** 		outp32(REG_CLKDIV0, (inp32(REG_CLKDIV0) & ~(SYSTEM_N1|SYSTEM_S|SYSTEM_N0)) | u32SysDiv );
 398              		.loc 1 293 0
 399 0078 E4309FE5 		ldr	r3, .L34+16
 400 007c 003093E5 		ldr	r3, [r3]
 401 0080 F13EC3E3 		bic	r3, r3, #3856
 402 0084 0F30C3E3 		bic	r3, r3, #15
 403 0088 D4109FE5 		ldr	r1, .L34+16
 404 008c 033082E1 		orr	r3, r2, r3
 405 0090 003081E5 		str	r3, [r1]
 406 0094 130000EA 		b	.L32
 407              	.L31:
 294:F:/ARM_Project/W55FA92/N9H20/BSP/Driver/Source/SYS\wb_config.c **** 	}
 295:F:/ARM_Project/W55FA92/N9H20/BSP/Driver/Source/SYS\wb_config.c **** 	else if((eSrcClk==eSYS_APLL)|| (eSrcClk==eSYS_UPLL))
 408              		.loc 1 295 0
 409 0098 020051E3 		cmp	r1, #2
 410 009c 0100000A 		beq	.L33
 411              		.loc 1 295 0 is_stmt 0 discriminator 1
 412 00a0 030051E3 		cmp	r1, #3
 413 00a4 0F00001A 		bne	.L32
 414              	.L33:
 296:F:/ARM_Project/W55FA92/N9H20/BSP/Driver/Source/SYS\wb_config.c **** 	{
 297:F:/ARM_Project/W55FA92/N9H20/BSP/Driver/Source/SYS\wb_config.c **** 		//outp32(REG_CLKDIV0,  (inp32(REG_CLKDIV0) | 0x01));	//PLL/3 Safe consider				
 298:F:/ARM_Project/W55FA92/N9H20/BSP/Driver/Source/SYS\wb_config.c **** 		/* system clock always comes from UPLL */
 299:F:/ARM_Project/W55FA92/N9H20/BSP/Driver/Source/SYS\wb_config.c **** 		outp32(REG_UPLLCON, u32PllReg | BIT15);
 415              		.loc 1 299 0 is_stmt 1
 416 00a8 B0109FE5 		ldr	r1, .L34+12
 417 00ac 02398CE3 		orr	r3, ip, #32768
 418 00b0 003081E5 		str	r3, [r1]
 300:F:/ARM_Project/W55FA92/N9H20/BSP/Driver/Source/SYS\wb_config.c **** 
 301:F:/ARM_Project/W55FA92/N9H20/BSP/Driver/Source/SYS\wb_config.c **** #if defined (__GNUC__)
 302:F:/ARM_Project/W55FA92/N9H20/BSP/Driver/Source/SYS\wb_config.c **** 	__asm
 419              		.loc 1 302 0
 420              		.syntax divided
 421              	@ 302 "F:/ARM_Project/W55FA92/N9H20/BSP/Driver/Source/SYS/wb_config.c" 1
 422 00b4 FA4FA0E3 		  mov 	r4, #1000      
 423 00b8 0050A0E3 	  mov  r5, #0         
 424 00bc 0160A0E3 	  mov  r6, #1         
 425              	 loop1a:	           
 426 00c0 065085E0 	  add  r5, r5, r6     
 427 00c4 040055E1 	  cmp 	r5, r4         
 428 00c8 FCFFFF1A 	  bne  loop1a         
 429              	
 430              	@ 0 "" 2
 303:F:/ARM_Project/W55FA92/N9H20/BSP/Driver/Source/SYS\wb_config.c ****     (
 304:F:/ARM_Project/W55FA92/N9H20/BSP/Driver/Source/SYS\wb_config.c ****         "  mov 	%0, #1000      \n"
 305:F:/ARM_Project/W55FA92/N9H20/BSP/Driver/Source/SYS\wb_config.c ****         "  mov  %1, #0         \n"
 306:F:/ARM_Project/W55FA92/N9H20/BSP/Driver/Source/SYS\wb_config.c ****         "  mov  %2, #1         \n"
 307:F:/ARM_Project/W55FA92/N9H20/BSP/Driver/Source/SYS\wb_config.c ****         " loop1a:	           \n"
 308:F:/ARM_Project/W55FA92/N9H20/BSP/Driver/Source/SYS\wb_config.c ****         "  add  %1, %1, %2     \n"
 309:F:/ARM_Project/W55FA92/N9H20/BSP/Driver/Source/SYS\wb_config.c ****         "  cmp 	%1, %0         \n"
 310:F:/ARM_Project/W55FA92/N9H20/BSP/Driver/Source/SYS\wb_config.c ****         "  bne  loop1a         \n"
 311:F:/ARM_Project/W55FA92/N9H20/BSP/Driver/Source/SYS\wb_config.c ****     	: : "r"(reg2), "r"(reg1), "r"(reg0) :"memory"
 312:F:/ARM_Project/W55FA92/N9H20/BSP/Driver/Source/SYS\wb_config.c ****     );
 313:F:/ARM_Project/W55FA92/N9H20/BSP/Driver/Source/SYS\wb_config.c **** #else			
 314:F:/ARM_Project/W55FA92/N9H20/BSP/Driver/Source/SYS\wb_config.c **** 		__asm
 315:F:/ARM_Project/W55FA92/N9H20/BSP/Driver/Source/SYS\wb_config.c **** 		{
 316:F:/ARM_Project/W55FA92/N9H20/BSP/Driver/Source/SYS\wb_config.c **** 			mov     reg2, #1000
 317:F:/ARM_Project/W55FA92/N9H20/BSP/Driver/Source/SYS\wb_config.c **** 			mov	    reg1, #0
 318:F:/ARM_Project/W55FA92/N9H20/BSP/Driver/Source/SYS\wb_config.c **** 			mov	    reg0, #1
 319:F:/ARM_Project/W55FA92/N9H20/BSP/Driver/Source/SYS\wb_config.c **** loop1a:	add 		reg1, reg1, reg0
 320:F:/ARM_Project/W55FA92/N9H20/BSP/Driver/Source/SYS\wb_config.c **** 			cmp 	reg1, reg2
 321:F:/ARM_Project/W55FA92/N9H20/BSP/Driver/Source/SYS\wb_config.c **** 			bne		loop1a
 322:F:/ARM_Project/W55FA92/N9H20/BSP/Driver/Source/SYS\wb_config.c **** 		}	
 323:F:/ARM_Project/W55FA92/N9H20/BSP/Driver/Source/SYS\wb_config.c **** #endif					
 324:F:/ARM_Project/W55FA92/N9H20/BSP/Driver/Source/SYS\wb_config.c **** 		/* Fill system clock divider */	
 325:F:/ARM_Project/W55FA92/N9H20/BSP/Driver/Source/SYS\wb_config.c **** 		outp32(REG_CLKDIV0, (inp32(REG_CLKDIV0) & ~(SYSTEM_N1|SYSTEM_S|SYSTEM_N0)) | 							
 431              		.loc 1 325 0
 432              		.arm
 433              		.syntax unified
 434 00cc 90309FE5 		ldr	r3, .L34+16
 435 00d0 003093E5 		ldr	r3, [r3]
 436 00d4 F13EC3E3 		bic	r3, r3, #3856
 437 00d8 0F30C3E3 		bic	r3, r3, #15
 438 00dc 80109FE5 		ldr	r1, .L34+16
 439 00e0 033082E1 		orr	r3, r2, r3
 440 00e4 003081E5 		str	r3, [r1]
 441              	.L32:
 326:F:/ARM_Project/W55FA92/N9H20/BSP/Driver/Source/SYS\wb_config.c **** 							u32SysDiv);			
 327:F:/ARM_Project/W55FA92/N9H20/BSP/Driver/Source/SYS\wb_config.c **** 	}
 328:F:/ARM_Project/W55FA92/N9H20/BSP/Driver/Source/SYS\wb_config.c **** #if defined (__GNUC__)
 329:F:/ARM_Project/W55FA92/N9H20/BSP/Driver/Source/SYS\wb_config.c **** 	__asm
 442              		.loc 1 329 0
 443              		.syntax divided
 444              	@ 329 "F:/ARM_Project/W55FA92/N9H20/BSP/Driver/Source/SYS/wb_config.c" 1
 445 00e8 C840A0E3 		  mov 	r4, #200       
 446 00ec 0050A0E3 	  mov  r5, #0         
 447 00f0 0160A0E3 	  mov  r6, #1         
 448              	 loop2:	           
 449 00f4 065085E0 	  add  r5, r5, r6     
 450 00f8 040055E1 	  cmp 	r5, r4         
 451 00fc FCFFFF1A 	  bne  loop2          
 452              	
 453              	@ 0 "" 2
 330:F:/ARM_Project/W55FA92/N9H20/BSP/Driver/Source/SYS\wb_config.c ****     (
 331:F:/ARM_Project/W55FA92/N9H20/BSP/Driver/Source/SYS\wb_config.c ****         "  mov 	%0, #200       \n"
 332:F:/ARM_Project/W55FA92/N9H20/BSP/Driver/Source/SYS\wb_config.c ****         "  mov  %1, #0         \n"
 333:F:/ARM_Project/W55FA92/N9H20/BSP/Driver/Source/SYS\wb_config.c ****         "  mov  %2, #1         \n"
 334:F:/ARM_Project/W55FA92/N9H20/BSP/Driver/Source/SYS\wb_config.c ****         " loop2:	           \n"
 335:F:/ARM_Project/W55FA92/N9H20/BSP/Driver/Source/SYS\wb_config.c ****         "  add  %1, %1, %2     \n"
 336:F:/ARM_Project/W55FA92/N9H20/BSP/Driver/Source/SYS\wb_config.c ****         "  cmp 	%1, %0         \n"
 337:F:/ARM_Project/W55FA92/N9H20/BSP/Driver/Source/SYS\wb_config.c ****         "  bne  loop2          \n"
 338:F:/ARM_Project/W55FA92/N9H20/BSP/Driver/Source/SYS\wb_config.c ****     	: : "r"(reg2), "r"(reg1), "r"(reg0) :"memory"
 339:F:/ARM_Project/W55FA92/N9H20/BSP/Driver/Source/SYS\wb_config.c ****     );
 340:F:/ARM_Project/W55FA92/N9H20/BSP/Driver/Source/SYS\wb_config.c **** #else
 341:F:/ARM_Project/W55FA92/N9H20/BSP/Driver/Source/SYS\wb_config.c **** 	__asm
 342:F:/ARM_Project/W55FA92/N9H20/BSP/Driver/Source/SYS\wb_config.c **** 	{
 343:F:/ARM_Project/W55FA92/N9H20/BSP/Driver/Source/SYS\wb_config.c **** 		;mov    reg2, #20000
 344:F:/ARM_Project/W55FA92/N9H20/BSP/Driver/Source/SYS\wb_config.c **** 		mov     reg2, #200
 345:F:/ARM_Project/W55FA92/N9H20/BSP/Driver/Source/SYS\wb_config.c **** 		mov	    reg1, #0
 346:F:/ARM_Project/W55FA92/N9H20/BSP/Driver/Source/SYS\wb_config.c **** 		mov	    reg0, #1
 347:F:/ARM_Project/W55FA92/N9H20/BSP/Driver/Source/SYS\wb_config.c **** loop2:	add     reg1, reg1, reg0
 348:F:/ARM_Project/W55FA92/N9H20/BSP/Driver/Source/SYS\wb_config.c **** 		cmp     reg1, reg2
 349:F:/ARM_Project/W55FA92/N9H20/BSP/Driver/Source/SYS\wb_config.c **** 		bne		loop2
 350:F:/ARM_Project/W55FA92/N9H20/BSP/Driver/Source/SYS\wb_config.c **** 	}	
 351:F:/ARM_Project/W55FA92/N9H20/BSP/Driver/Source/SYS\wb_config.c **** #endif	
 352:F:/ARM_Project/W55FA92/N9H20/BSP/Driver/Source/SYS\wb_config.c **** 	outp32(REG_UPLLCON, inp32(REG_UPLLCON) & ~BIT15);
 454              		.loc 1 352 0
 455              		.arm
 456              		.syntax unified
 457 0100 58309FE5 		ldr	r3, .L34+12
 458 0104 003093E5 		ldr	r3, [r3]
 459 0108 50209FE5 		ldr	r2, .L34+12
 460              	.LVL39:
 461 010c 0239C3E3 		bic	r3, r3, #32768
 462 0110 003082E5 		str	r3, [r2]
 353:F:/ARM_Project/W55FA92/N9H20/BSP/Driver/Source/SYS\wb_config.c **** 	
 354:F:/ARM_Project/W55FA92/N9H20/BSP/Driver/Source/SYS\wb_config.c **** 	 /* DRAM escape self refresh mode */
 355:F:/ARM_Project/W55FA92/N9H20/BSP/Driver/Source/SYS\wb_config.c **** 	//outp32(REG_SDCMD, inp32(REG_SDCMD) & ~REF_CMD);
 356:F:/ARM_Project/W55FA92/N9H20/BSP/Driver/Source/SYS\wb_config.c **** 	outp32(0xB0003004,  0x20);			
 463              		.loc 1 356 0
 464 0114 40309FE5 		ldr	r3, .L34+8
 465 0118 2020A0E3 		mov	r2, #32
 466 011c 002083E5 		str	r2, [r3]
 357:F:/ARM_Project/W55FA92/N9H20/BSP/Driver/Source/SYS\wb_config.c **** 
 358:F:/ARM_Project/W55FA92/N9H20/BSP/Driver/Source/SYS\wb_config.c **** #if defined (__GNUC__)
 359:F:/ARM_Project/W55FA92/N9H20/BSP/Driver/Source/SYS\wb_config.c **** 	__asm
 467              		.loc 1 359 0
 468              		.syntax divided
 469              	@ 359 "F:/ARM_Project/W55FA92/N9H20/BSP/Driver/Source/SYS/wb_config.c" 1
 470 0120 964FA0E3 		  mov 	r4, #600      
 471 0124 0050A0E3 	  mov  r5, #0         
 472 0128 0160A0E3 	  mov  r6, #1         
 473              	 loop3a:	           
 474 012c 065085E0 	  add  r5, r5, r6     
 475 0130 040055E1 	  cmp 	r5, r4         
 476 0134 FCFFFF1A 	  bne  loop3a         
 477              	
 478              	@ 0 "" 2
 360:F:/ARM_Project/W55FA92/N9H20/BSP/Driver/Source/SYS\wb_config.c ****     (
 361:F:/ARM_Project/W55FA92/N9H20/BSP/Driver/Source/SYS\wb_config.c ****         "  mov 	%0, #600      \n"
 362:F:/ARM_Project/W55FA92/N9H20/BSP/Driver/Source/SYS\wb_config.c ****         "  mov  %1, #0         \n"
 363:F:/ARM_Project/W55FA92/N9H20/BSP/Driver/Source/SYS\wb_config.c ****         "  mov  %2, #1         \n"
 364:F:/ARM_Project/W55FA92/N9H20/BSP/Driver/Source/SYS\wb_config.c ****         " loop3a:	           \n"
 365:F:/ARM_Project/W55FA92/N9H20/BSP/Driver/Source/SYS\wb_config.c ****         "  add  %1, %1, %2     \n"
 366:F:/ARM_Project/W55FA92/N9H20/BSP/Driver/Source/SYS\wb_config.c ****         "  cmp 	%1, %0         \n"
 367:F:/ARM_Project/W55FA92/N9H20/BSP/Driver/Source/SYS\wb_config.c ****         "  bne  loop3a         \n"
 368:F:/ARM_Project/W55FA92/N9H20/BSP/Driver/Source/SYS\wb_config.c ****     	: : "r"(reg2), "r"(reg1), "r"(reg0) :"memory"
 369:F:/ARM_Project/W55FA92/N9H20/BSP/Driver/Source/SYS\wb_config.c ****     );
 370:F:/ARM_Project/W55FA92/N9H20/BSP/Driver/Source/SYS\wb_config.c **** #else	
 371:F:/ARM_Project/W55FA92/N9H20/BSP/Driver/Source/SYS\wb_config.c **** 	__asm
 372:F:/ARM_Project/W55FA92/N9H20/BSP/Driver/Source/SYS\wb_config.c **** 	{
 373:F:/ARM_Project/W55FA92/N9H20/BSP/Driver/Source/SYS\wb_config.c **** 		mov     reg2, #600
 374:F:/ARM_Project/W55FA92/N9H20/BSP/Driver/Source/SYS\wb_config.c **** 		mov     reg1, #0
 375:F:/ARM_Project/W55FA92/N9H20/BSP/Driver/Source/SYS\wb_config.c **** 		mov     reg0, #1
 376:F:/ARM_Project/W55FA92/N9H20/BSP/Driver/Source/SYS\wb_config.c **** loop3a:	add     reg1, reg1, reg0
 377:F:/ARM_Project/W55FA92/N9H20/BSP/Driver/Source/SYS\wb_config.c **** 		cmp     reg1, reg2
 378:F:/ARM_Project/W55FA92/N9H20/BSP/Driver/Source/SYS\wb_config.c **** 		bne     loop3a
 379:F:/ARM_Project/W55FA92/N9H20/BSP/Driver/Source/SYS\wb_config.c **** 	}			
 380:F:/ARM_Project/W55FA92/N9H20/BSP/Driver/Source/SYS\wb_config.c **** #endif	
 381:F:/ARM_Project/W55FA92/N9H20/BSP/Driver/Source/SYS\wb_config.c **** 	outp32(REG_AIC_MECR, u32IntTmp);
 479              		.loc 1 381 0
 480              		.arm
 481              		.syntax unified
 482 0138 28209FE5 		ldr	r2, .L34+20
 483 013c 10301BE5 		ldr	r3, [fp, #-16]
 484 0140 003082E5 		str	r3, [r2]
 382:F:/ARM_Project/W55FA92/N9H20/BSP/Driver/Source/SYS\wb_config.c **** 	
 383:F:/ARM_Project/W55FA92/N9H20/BSP/Driver/Source/SYS\wb_config.c **** }
 485              		.loc 1 383 0
 486 0144 0000A0E1 		nop
 487 0148 0CD04BE2 		sub	sp, fp, #12
 488              		.cfi_def_cfa 13, 16
 489              		@ sp needed
 490 014c 7008BDE8 		pop	{r4, r5, r6, fp}
 491              		.cfi_restore 11
 492              		.cfi_restore 6
 493              		.cfi_restore 5
 494              		.cfi_restore 4
 495              		.cfi_def_cfa_offset 0
 496              	.LVL40:
 497 0150 1EFF2FE1 		bx	lr
 498              	.L35:
 499              		.align	2
 500              	.L34:
 501 0154 280100B8 		.word	-1207959256
 502 0158 380100B8 		.word	-1207959240
 503 015c 043000B0 		.word	-1342164988
 504 0160 240200B0 		.word	-1342176732
 505 0164 0C0200B0 		.word	-1342176756
 506 0168 300100B8 		.word	-1207959248
 507              		.cfi_endproc
 508              	.LFE10:
 510              		.section	.text._sysClockSwitchStart,"ax",%progbits
 511              		.align	2
 512              		.global	_sysClockSwitchStart
 513              		.syntax unified
 514              		.arm
 515              		.fpu softvfp
 517              	_sysClockSwitchStart:
 518              	.LFB11:
 384:F:/ARM_Project/W55FA92/N9H20/BSP/Driver/Source/SYS\wb_config.c **** #if defined (__GNUC__) && !defined (__CC_ARM)
 385:F:/ARM_Project/W55FA92/N9H20/BSP/Driver/Source/SYS\wb_config.c **** #pragma GCC pop_options
 386:F:/ARM_Project/W55FA92/N9H20/BSP/Driver/Source/SYS\wb_config.c **** #endif
 387:F:/ARM_Project/W55FA92/N9H20/BSP/Driver/Source/SYS\wb_config.c **** void _sysClockSwitchStart(E_SYS_SRC_CLK eSrcClk, 
 388:F:/ARM_Project/W55FA92/N9H20/BSP/Driver/Source/SYS\wb_config.c **** 						UINT32 u32Hclk,
 389:F:/ARM_Project/W55FA92/N9H20/BSP/Driver/Source/SYS\wb_config.c **** 						UINT32 u32RegPll,	
 390:F:/ARM_Project/W55FA92/N9H20/BSP/Driver/Source/SYS\wb_config.c **** 						UINT32 u32SysDiv)
 391:F:/ARM_Project/W55FA92/N9H20/BSP/Driver/Source/SYS\wb_config.c **** {
 519              		.loc 1 391 0
 520              		.cfi_startproc
 521              		@ args = 0, pretend = 0, frame = 0
 522              		@ frame_needed = 0, uses_anonymous_args = 0
 523              	.LVL41:
 524 0000 F84F2DE9 		push	{r3, r4, r5, r6, r7, r8, r9, r10, fp, lr}
 525              		.cfi_def_cfa_offset 40
 526              		.cfi_offset 3, -40
 527              		.cfi_offset 4, -36
 528              		.cfi_offset 5, -32
 529              		.cfi_offset 6, -28
 530              		.cfi_offset 7, -24
 531              		.cfi_offset 8, -20
 532              		.cfi_offset 9, -16
 533              		.cfi_offset 10, -12
 534              		.cfi_offset 11, -8
 535              		.cfi_offset 14, -4
 536              		.loc 1 391 0
 537 0004 0180A0E1 		mov	r8, r1
 392:F:/ARM_Project/W55FA92/N9H20/BSP/Driver/Source/SYS\wb_config.c **** 	UINT32   vram_base, aic_status = 0, aic_statush = 0;
 393:F:/ARM_Project/W55FA92/N9H20/BSP/Driver/Source/SYS\wb_config.c **** 	BOOL bIsCacheState = FALSE;
 394:F:/ARM_Project/W55FA92/N9H20/BSP/Driver/Source/SYS\wb_config.c **** 	UINT32 u32CacheMode;
 395:F:/ARM_Project/W55FA92/N9H20/BSP/Driver/Source/SYS\wb_config.c **** 	VOID    (*wb_func)(E_SYS_SRC_CLK, 
 396:F:/ARM_Project/W55FA92/N9H20/BSP/Driver/Source/SYS\wb_config.c **** 					UINT32,
 397:F:/ARM_Project/W55FA92/N9H20/BSP/Driver/Source/SYS\wb_config.c **** 					UINT32, 
 398:F:/ARM_Project/W55FA92/N9H20/BSP/Driver/Source/SYS\wb_config.c **** 					UINT32);
 399:F:/ARM_Project/W55FA92/N9H20/BSP/Driver/Source/SYS\wb_config.c **** 					
 400:F:/ARM_Project/W55FA92/N9H20/BSP/Driver/Source/SYS\wb_config.c **** 	aic_status = inpw(REG_AIC_IMR);					//Disable interrupt 
 401:F:/ARM_Project/W55FA92/N9H20/BSP/Driver/Source/SYS\wb_config.c **** 	aic_statush = inpw(REG_AIC_IMRH);					//Disable interrupt 
 402:F:/ARM_Project/W55FA92/N9H20/BSP/Driver/Source/SYS\wb_config.c **** 	outpw(REG_AIC_MDCR, 0xFFFFFFFF);
 403:F:/ARM_Project/W55FA92/N9H20/BSP/Driver/Source/SYS\wb_config.c **** 	outpw(REG_AIC_MDCRH, 0xFFFFFFFF);
 404:F:/ARM_Project/W55FA92/N9H20/BSP/Driver/Source/SYS\wb_config.c **** 
 405:F:/ARM_Project/W55FA92/N9H20/BSP/Driver/Source/SYS\wb_config.c **** 
 406:F:/ARM_Project/W55FA92/N9H20/BSP/Driver/Source/SYS\wb_config.c **** 
 407:F:/ARM_Project/W55FA92/N9H20/BSP/Driver/Source/SYS\wb_config.c **** 	vram_base = PD_RAM_BASE;		
 408:F:/ARM_Project/W55FA92/N9H20/BSP/Driver/Source/SYS\wb_config.c **** #if 0	//0222	
 409:F:/ARM_Project/W55FA92/N9H20/BSP/Driver/Source/SYS\wb_config.c **** 	memcpy((char *)((UINT32)_tmp_buf | 0x80000000), 
 410:F:/ARM_Project/W55FA92/N9H20/BSP/Driver/Source/SYS\wb_config.c **** 			(char *)((UINT32)vram_base | 0x80000000), 
 411:F:/ARM_Project/W55FA92/N9H20/BSP/Driver/Source/SYS\wb_config.c **** 			PD_RAM_SIZE);					//Backup RAM content
 412:F:/ARM_Project/W55FA92/N9H20/BSP/Driver/Source/SYS\wb_config.c **** #endif	
 413:F:/ARM_Project/W55FA92/N9H20/BSP/Driver/Source/SYS\wb_config.c **** 	memcpy((VOID *)((UINT32)vram_base | 0x80000000),
 538              		.loc 1 413 0
 539 0008 90109FE5 		ldr	r1, .L41
 540              	.LVL42:
 391:F:/ARM_Project/W55FA92/N9H20/BSP/Driver/Source/SYS\wb_config.c **** 	UINT32   vram_base, aic_status = 0, aic_statush = 0;
 541              		.loc 1 391 0
 542 000c 0290A0E1 		mov	r9, r2
 543 0010 03A0A0E1 		mov	r10, r3
 402:F:/ARM_Project/W55FA92/N9H20/BSP/Driver/Source/SYS\wb_config.c **** 	outpw(REG_AIC_MDCRH, 0xFFFFFFFF);
 544              		.loc 1 402 0
 545 0014 0020E0E3 		mvn	r2, #0
 546              	.LVL43:
 400:F:/ARM_Project/W55FA92/N9H20/BSP/Driver/Source/SYS\wb_config.c **** 	aic_statush = inpw(REG_AIC_IMRH);					//Disable interrupt 
 547              		.loc 1 400 0
 548 0018 2E33A0E3 		mov	r3, #-1207959552
 549              	.LVL44:
 550 001c 285193E5 		ldr	r5, [r3, #296]
 551              	.LVL45:
 552              		.loc 1 413 0
 553 0020 021181E3 		orr	r1, r1, #-2147483648
 401:F:/ARM_Project/W55FA92/N9H20/BSP/Driver/Source/SYS\wb_config.c **** 	outpw(REG_AIC_MDCR, 0xFFFFFFFF);
 554              		.loc 1 401 0
 555 0024 2C4193E5 		ldr	r4, [r3, #300]
 556              	.LVL46:
 391:F:/ARM_Project/W55FA92/N9H20/BSP/Driver/Source/SYS\wb_config.c **** 	UINT32   vram_base, aic_status = 0, aic_statush = 0;
 557              		.loc 1 391 0
 558 0028 0070A0E1 		mov	r7, r0
 402:F:/ARM_Project/W55FA92/N9H20/BSP/Driver/Source/SYS\wb_config.c **** 	outpw(REG_AIC_MDCRH, 0xFFFFFFFF);
 559              		.loc 1 402 0
 560 002c 382183E5 		str	r2, [r3, #312]
 561              		.loc 1 413 0
 562 0030 FF04A0E3 		mov	r0, #-16777216
 563              	.LVL47:
 403:F:/ARM_Project/W55FA92/N9H20/BSP/Driver/Source/SYS\wb_config.c **** 
 564              		.loc 1 403 0
 565 0034 3C2183E5 		str	r2, [r3, #316]
 566              	.LVL48:
 567              		.loc 1 413 0
 568 0038 022AA0E3 		mov	r2, #8192
 569 003c FEFFFFEB 		bl	memcpy
 570              	.LVL49:
 414:F:/ARM_Project/W55FA92/N9H20/BSP/Driver/Source/SYS\wb_config.c **** 			(VOID *)((UINT32)_sysClockSwitch | 0x80000000), 
 415:F:/ARM_Project/W55FA92/N9H20/BSP/Driver/Source/SYS\wb_config.c **** 			PD_RAM_SIZE);					//
 416:F:/ARM_Project/W55FA92/N9H20/BSP/Driver/Source/SYS\wb_config.c **** 
 417:F:/ARM_Project/W55FA92/N9H20/BSP/Driver/Source/SYS\wb_config.c **** 	if(sysGetCacheState()==TRUE){
 571              		.loc 1 417 0
 572 0040 FEFFFFEB 		bl	sysGetCacheState
 573              	.LVL50:
 574 0044 010050E3 		cmp	r0, #1
 393:F:/ARM_Project/W55FA92/N9H20/BSP/Driver/Source/SYS\wb_config.c **** 	UINT32 u32CacheMode;
 575              		.loc 1 393 0
 576 0048 00B0A013 		movne	fp, #0
 577              		.loc 1 417 0
 578 004c 0500001A 		bne	.L37
 579 0050 00B0A0E1 		mov	fp, r0
 580              	.LVL51:
 418:F:/ARM_Project/W55FA92/N9H20/BSP/Driver/Source/SYS\wb_config.c **** 		DBG_PRINTF("Cache enable\n");	
 419:F:/ARM_Project/W55FA92/N9H20/BSP/Driver/Source/SYS\wb_config.c **** 		bIsCacheState = TRUE;		
 420:F:/ARM_Project/W55FA92/N9H20/BSP/Driver/Source/SYS\wb_config.c **** 		u32CacheMode = sysGetCacheMode();
 581              		.loc 1 420 0
 582 0054 FEFFFFEB 		bl	sysGetCacheMode
 583              	.LVL52:
 584 0058 0060A0E1 		mov	r6, r0
 585              	.LVL53:
 421:F:/ARM_Project/W55FA92/N9H20/BSP/Driver/Source/SYS\wb_config.c **** 		sysDisableCache(); 	
 586              		.loc 1 421 0
 587 005c FEFFFFEB 		bl	sysDisableCache
 588              	.LVL54:
 422:F:/ARM_Project/W55FA92/N9H20/BSP/Driver/Source/SYS\wb_config.c **** 		sysFlushCache(I_D_CACHE);	
 589              		.loc 1 422 0
 590 0060 0800A0E3 		mov	r0, #8
 591 0064 FEFFFFEB 		bl	sysFlushCache
 592              	.LVL55:
 593              	.L37:
 423:F:/ARM_Project/W55FA92/N9H20/BSP/Driver/Source/SYS\wb_config.c **** 	}else{
 424:F:/ARM_Project/W55FA92/N9H20/BSP/Driver/Source/SYS\wb_config.c **** 		DBG_PRINTF("Cache disable\n");	
 425:F:/ARM_Project/W55FA92/N9H20/BSP/Driver/Source/SYS\wb_config.c **** 	}		
 426:F:/ARM_Project/W55FA92/N9H20/BSP/Driver/Source/SYS\wb_config.c **** 	
 427:F:/ARM_Project/W55FA92/N9H20/BSP/Driver/Source/SYS\wb_config.c **** 	wb_func = (void(*)(E_SYS_SRC_CLK, 
 428:F:/ARM_Project/W55FA92/N9H20/BSP/Driver/Source/SYS\wb_config.c **** 					UINT32,	//u32Hclk
 429:F:/ARM_Project/W55FA92/N9H20/BSP/Driver/Source/SYS\wb_config.c **** 					UINT32,						
 430:F:/ARM_Project/W55FA92/N9H20/BSP/Driver/Source/SYS\wb_config.c **** 					UINT32)) vram_base;
 431:F:/ARM_Project/W55FA92/N9H20/BSP/Driver/Source/SYS\wb_config.c **** 	
 432:F:/ARM_Project/W55FA92/N9H20/BSP/Driver/Source/SYS\wb_config.c **** 	DBG_PRINTF("SYS_DIV = %x\n", u32SysDiv);
 433:F:/ARM_Project/W55FA92/N9H20/BSP/Driver/Source/SYS\wb_config.c **** //	DBG_PRINTF("CPU_DIV = %x\n", u32CpuDiv);
 434:F:/ARM_Project/W55FA92/N9H20/BSP/Driver/Source/SYS\wb_config.c **** //	DBG_PRINTF("APB_DIV = %x\n", u32ApbDiv);
 435:F:/ARM_Project/W55FA92/N9H20/BSP/Driver/Source/SYS\wb_config.c **** 	DBG_PRINTF("Jump to SRAM\n");
 436:F:/ARM_Project/W55FA92/N9H20/BSP/Driver/Source/SYS\wb_config.c **** 	wb_func(eSrcClk, 	
 594              		.loc 1 436 0
 595 0068 0700A0E1 		mov	r0, r7
 596 006c 0A30A0E1 		mov	r3, r10
 597 0070 0920A0E1 		mov	r2, r9
 598 0074 0810A0E1 		mov	r1, r8
 599 0078 FF74A0E3 		mov	r7, #-16777216
 600 007c 37FF2FE1 		blx	r7
 601              	.LVL56:
 437:F:/ARM_Project/W55FA92/N9H20/BSP/Driver/Source/SYS\wb_config.c **** 			u32Hclk,	
 438:F:/ARM_Project/W55FA92/N9H20/BSP/Driver/Source/SYS\wb_config.c **** 			u32RegPll, 
 439:F:/ARM_Project/W55FA92/N9H20/BSP/Driver/Source/SYS\wb_config.c **** 			u32SysDiv);	
 440:F:/ARM_Project/W55FA92/N9H20/BSP/Driver/Source/SYS\wb_config.c **** 			
 441:F:/ARM_Project/W55FA92/N9H20/BSP/Driver/Source/SYS\wb_config.c **** 	if(bIsCacheState==TRUE)
 602              		.loc 1 441 0
 603 0080 01005BE3 		cmp	fp, #1
 604 0084 0100001A 		bne	.L38
 605              	.LVL57:
 442:F:/ARM_Project/W55FA92/N9H20/BSP/Driver/Source/SYS\wb_config.c **** 		sysEnableCache(u32CacheMode);	
 606              		.loc 1 442 0
 607 0088 0600A0E1 		mov	r0, r6
 608 008c FEFFFFEB 		bl	sysEnableCache
 609              	.LVL58:
 610              	.L38:
 443:F:/ARM_Project/W55FA92/N9H20/BSP/Driver/Source/SYS\wb_config.c **** 	
 444:F:/ARM_Project/W55FA92/N9H20/BSP/Driver/Source/SYS\wb_config.c **** 	DBG_PRINTF("Calibration Value = 0x%x\n", inp32(REG_SDOPM));
 445:F:/ARM_Project/W55FA92/N9H20/BSP/Driver/Source/SYS\wb_config.c **** 	//Restore VRAM
 446:F:/ARM_Project/W55FA92/N9H20/BSP/Driver/Source/SYS\wb_config.c **** #if 0		//0222	
 447:F:/ARM_Project/W55FA92/N9H20/BSP/Driver/Source/SYS\wb_config.c **** 	memcpy((VOID *)((UINT32)vram_base | 0x80000000), 
 448:F:/ARM_Project/W55FA92/N9H20/BSP/Driver/Source/SYS\wb_config.c **** 			(VOID *)((UINT32)_tmp_buf | 0x80000000), 
 449:F:/ARM_Project/W55FA92/N9H20/BSP/Driver/Source/SYS\wb_config.c **** 			PD_RAM_SIZE);
 450:F:/ARM_Project/W55FA92/N9H20/BSP/Driver/Source/SYS\wb_config.c **** #endif	
 451:F:/ARM_Project/W55FA92/N9H20/BSP/Driver/Source/SYS\wb_config.c **** 	outpw(REG_AIC_MECR, aic_status);    	// Restore AIC setting  
 611              		.loc 1 451 0
 612 0090 2E33A0E3 		mov	r3, #-1207959552
 613 0094 305183E5 		str	r5, [r3, #304]
 452:F:/ARM_Project/W55FA92/N9H20/BSP/Driver/Source/SYS\wb_config.c **** 	outpw(REG_AIC_MECRH, aic_statush);    	// Restore AIC setting      
 614              		.loc 1 452 0
 615 0098 344183E5 		str	r4, [r3, #308]
 453:F:/ARM_Project/W55FA92/N9H20/BSP/Driver/Source/SYS\wb_config.c **** }
 616              		.loc 1 453 0
 617 009c F88FBDE8 		pop	{r3, r4, r5, r6, r7, r8, r9, r10, fp, pc}
 618              	.L42:
 619              		.align	2
 620              	.L41:
 621 00a0 00000000 		.word	_sysClockSwitch
 622              		.cfi_endproc
 623              	.LFE11:
 625              		.global	__aeabi_uidivmod
 626              		.section	.text.sysSetSystemClock,"ax",%progbits
 627              		.align	2
 628              		.global	sysSetSystemClock
 629              		.syntax unified
 630              		.arm
 631              		.fpu softvfp
 633              	sysSetSystemClock:
 634              	.LFB12:
 454:F:/ARM_Project/W55FA92/N9H20/BSP/Driver/Source/SYS\wb_config.c **** 
 455:F:/ARM_Project/W55FA92/N9H20/BSP/Driver/Source/SYS\wb_config.c **** /*-------------------------------------------------------------------------------------------------
 456:F:/ARM_Project/W55FA92/N9H20/BSP/Driver/Source/SYS\wb_config.c **** * Function: sysSetSystemClock                                                               
 457:F:/ARM_Project/W55FA92/N9H20/BSP/Driver/Source/SYS\wb_config.c **** *                                                                                                  
 458:F:/ARM_Project/W55FA92/N9H20/BSP/Driver/Source/SYS\wb_config.c **** * Parameters:                                                                                      
 459:F:/ARM_Project/W55FA92/N9H20/BSP/Driver/Source/SYS\wb_config.c **** *              u32PllHz 		- [in], Specified PLL Clock
 460:F:/ARM_Project/W55FA92/N9H20/BSP/Driver/Source/SYS\wb_config.c **** *              u32SysHz 	- [in], Specified SYS Clock                                               
 461:F:/ARM_Project/W55FA92/N9H20/BSP/Driver/Source/SYS\wb_config.c **** * Returns:                                                                                         
 462:F:/ARM_Project/W55FA92/N9H20/BSP/Driver/Source/SYS\wb_config.c **** *      Error Code                                                                                  
 463:F:/ARM_Project/W55FA92/N9H20/BSP/Driver/Source/SYS\wb_config.c **** *                                                                                                  
 464:F:/ARM_Project/W55FA92/N9H20/BSP/Driver/Source/SYS\wb_config.c **** * Description:                                                                                     
 465:F:/ARM_Project/W55FA92/N9H20/BSP/Driver/Source/SYS\wb_config.c **** *              To set the PLL clock and system clock                                               
 466:F:/ARM_Project/W55FA92/N9H20/BSP/Driver/Source/SYS\wb_config.c **** *  
 467:F:/ARM_Project/W55FA92/N9H20/BSP/Driver/Source/SYS\wb_config.c **** ---------------------------------------------------------------------------------------------------
 468:F:/ARM_Project/W55FA92/N9H20/BSP/Driver/Source/SYS\wb_config.c **** ERRCODE
 469:F:/ARM_Project/W55FA92/N9H20/BSP/Driver/Source/SYS\wb_config.c **** sysSetSystemClock(E_SYS_SRC_CLK eSrcClk,		// Specified the system clock come from external clock, A
 470:F:/ARM_Project/W55FA92/N9H20/BSP/Driver/Source/SYS\wb_config.c **** 				UINT32 u32PllHz,			// Specified the APLL/UPLL clock
 471:F:/ARM_Project/W55FA92/N9H20/BSP/Driver/Source/SYS\wb_config.c **** 				UINT32 u32SysHz			// Specified the system clock
 472:F:/ARM_Project/W55FA92/N9H20/BSP/Driver/Source/SYS\wb_config.c **** 	)
 473:F:/ARM_Project/W55FA92/N9H20/BSP/Driver/Source/SYS\wb_config.c **** {
 635              		.loc 1 473 0
 636              		.cfi_startproc
 637              		@ args = 0, pretend = 0, frame = 0
 638              		@ frame_needed = 0, uses_anonymous_args = 0
 639              	.LVL59:
 640 0000 F84F2DE9 		push	{r3, r4, r5, r6, r7, r8, r9, r10, fp, lr}
 641              		.cfi_def_cfa_offset 40
 642              		.cfi_offset 3, -40
 643              		.cfi_offset 4, -36
 644              		.cfi_offset 5, -32
 645              		.cfi_offset 6, -28
 646              		.cfi_offset 7, -24
 647              		.cfi_offset 8, -20
 648              		.cfi_offset 9, -16
 649              		.cfi_offset 10, -12
 650              		.cfi_offset 11, -8
 651              		.cfi_offset 14, -4
 652              	.LBB14:
 653              	.LBB15:
 474:F:/ARM_Project/W55FA92/N9H20/BSP/Driver/Source/SYS\wb_config.c **** 	UINT32 u32RegPll;
 475:F:/ARM_Project/W55FA92/N9H20/BSP/Driver/Source/SYS\wb_config.c **** 	UINT32 u32RegSysDiv;
 476:F:/ARM_Project/W55FA92/N9H20/BSP/Driver/Source/SYS\wb_config.c **** 	UINT32 u32CpuFreq, u32Hclk1Frq, u32MclkClock, u32Hclk234;
 477:F:/ARM_Project/W55FA92/N9H20/BSP/Driver/Source/SYS\wb_config.c **** 	UINT32 u32SysDiv, u32DivN0, u32DivN1;
 478:F:/ARM_Project/W55FA92/N9H20/BSP/Driver/Source/SYS\wb_config.c **** 	UINT32 u32DramSrc = (inp32(REG_CLKDIV7)&DRAM_S)>>3;
 479:F:/ARM_Project/W55FA92/N9H20/BSP/Driver/Source/SYS\wb_config.c **** 	
 480:F:/ARM_Project/W55FA92/N9H20/BSP/Driver/Source/SYS\wb_config.c **** 	g_u32ExtClk = sysGetExternalClock();	
 481:F:/ARM_Project/W55FA92/N9H20/BSP/Driver/Source/SYS\wb_config.c **** 
 482:F:/ARM_Project/W55FA92/N9H20/BSP/Driver/Source/SYS\wb_config.c **** 	/* Error Check */
 483:F:/ARM_Project/W55FA92/N9H20/BSP/Driver/Source/SYS\wb_config.c **** 	if((u32PllHz%u32SysHz)!=0){
 484:F:/ARM_Project/W55FA92/N9H20/BSP/Driver/Source/SYS\wb_config.c **** 		sysprintf("Err to set memory clock\n");//System divider for integrate and fractional part is not 
 485:F:/ARM_Project/W55FA92/N9H20/BSP/Driver/Source/SYS\wb_config.c **** 		return (ERRCODE)WB_INVALID_CLOCK;
 486:F:/ARM_Project/W55FA92/N9H20/BSP/Driver/Source/SYS\wb_config.c **** 	}	
 487:F:/ARM_Project/W55FA92/N9H20/BSP/Driver/Source/SYS\wb_config.c **** 	if((u32PllHz/u32SysHz)>(8*16)){
 488:F:/ARM_Project/W55FA92/N9H20/BSP/Driver/Source/SYS\wb_config.c **** 		sysprintf("Err to set memory clock- Over system divider\n");
 489:F:/ARM_Project/W55FA92/N9H20/BSP/Driver/Source/SYS\wb_config.c **** 		return (ERRCODE)WB_INVALID_CLOCK;
 490:F:/ARM_Project/W55FA92/N9H20/BSP/Driver/Source/SYS\wb_config.c **** 	}	
 491:F:/ARM_Project/W55FA92/N9H20/BSP/Driver/Source/SYS\wb_config.c **** 	
 492:F:/ARM_Project/W55FA92/N9H20/BSP/Driver/Source/SYS\wb_config.c **** 	//Hear need to check the clocp want to set whether vilation the rule (MCLK>HCLK1, >HCLK3 and >HCLK
 493:F:/ARM_Project/W55FA92/N9H20/BSP/Driver/Source/SYS\wb_config.c **** 	u32Hclk234 = (u32SysHz/((inp32(REG_CLKDIV4)&HCLK234_N)+1))/2;  	
 494:F:/ARM_Project/W55FA92/N9H20/BSP/Driver/Source/SYS\wb_config.c **** 		
 495:F:/ARM_Project/W55FA92/N9H20/BSP/Driver/Source/SYS\wb_config.c **** 	/* Judge MCLK > HCLK1 */ 
 496:F:/ARM_Project/W55FA92/N9H20/BSP/Driver/Source/SYS\wb_config.c **** 	u32CpuFreq = sysGetCPUClock();
 497:F:/ARM_Project/W55FA92/N9H20/BSP/Driver/Source/SYS\wb_config.c **** 	if((inp32(REG_CLKDIV4)&CPU_N) == 0)
 498:F:/ARM_Project/W55FA92/N9H20/BSP/Driver/Source/SYS\wb_config.c **** 		u32Hclk1Frq = u32CpuFreq/2;
 499:F:/ARM_Project/W55FA92/N9H20/BSP/Driver/Source/SYS\wb_config.c **** 	else
 500:F:/ARM_Project/W55FA92/N9H20/BSP/Driver/Source/SYS\wb_config.c **** 		u32Hclk1Frq = u32CpuFreq;	
 501:F:/ARM_Project/W55FA92/N9H20/BSP/Driver/Source/SYS\wb_config.c **** 	
 502:F:/ARM_Project/W55FA92/N9H20/BSP/Driver/Source/SYS\wb_config.c **** 	u32MclkClock = sysGetDramClock()/2;		 	
 503:F:/ARM_Project/W55FA92/N9H20/BSP/Driver/Source/SYS\wb_config.c **** 	if(u32DramSrc==eSrcClk){
 504:F:/ARM_Project/W55FA92/N9H20/BSP/Driver/Source/SYS\wb_config.c **** 		if(u32MclkClock< u32Hclk1Frq){
 505:F:/ARM_Project/W55FA92/N9H20/BSP/Driver/Source/SYS\wb_config.c **** 			sysprintf("Err to set memory clock- Mclk>HCLK1\n");
 506:F:/ARM_Project/W55FA92/N9H20/BSP/Driver/Source/SYS\wb_config.c **** 			return (ERRCODE)WB_INVALID_CLOCK;
 507:F:/ARM_Project/W55FA92/N9H20/BSP/Driver/Source/SYS\wb_config.c **** 		}
 508:F:/ARM_Project/W55FA92/N9H20/BSP/Driver/Source/SYS\wb_config.c **** 	}else	{
 509:F:/ARM_Project/W55FA92/N9H20/BSP/Driver/Source/SYS\wb_config.c **** 		if(u32MclkClock<= u32Hclk1Frq){
 510:F:/ARM_Project/W55FA92/N9H20/BSP/Driver/Source/SYS\wb_config.c **** 			sysprintf("Err to set memory clock- Mclk>HCLK1\n");
 511:F:/ARM_Project/W55FA92/N9H20/BSP/Driver/Source/SYS\wb_config.c **** 			return (ERRCODE)WB_INVALID_CLOCK;
 512:F:/ARM_Project/W55FA92/N9H20/BSP/Driver/Source/SYS\wb_config.c **** 		}	
 513:F:/ARM_Project/W55FA92/N9H20/BSP/Driver/Source/SYS\wb_config.c **** 	}
 514:F:/ARM_Project/W55FA92/N9H20/BSP/Driver/Source/SYS\wb_config.c **** 	/* Judge MCLK > HCLK3 and HCLK4, assume HCLK234_DIV = 0 */
 515:F:/ARM_Project/W55FA92/N9H20/BSP/Driver/Source/SYS\wb_config.c **** 	if(u32DramSrc==eSrcClk){
 516:F:/ARM_Project/W55FA92/N9H20/BSP/Driver/Source/SYS\wb_config.c **** 		if(u32MclkClock< u32Hclk234){
 517:F:/ARM_Project/W55FA92/N9H20/BSP/Driver/Source/SYS\wb_config.c **** 			sysprintf("Err to set memory clock- Mclk>HCLK3 and HCLK4\n");
 518:F:/ARM_Project/W55FA92/N9H20/BSP/Driver/Source/SYS\wb_config.c **** 			return (ERRCODE)WB_INVALID_CLOCK;
 519:F:/ARM_Project/W55FA92/N9H20/BSP/Driver/Source/SYS\wb_config.c **** 		}	
 520:F:/ARM_Project/W55FA92/N9H20/BSP/Driver/Source/SYS\wb_config.c **** 	}else{
 521:F:/ARM_Project/W55FA92/N9H20/BSP/Driver/Source/SYS\wb_config.c **** 		if(u32MclkClock<= u32Hclk234){
 522:F:/ARM_Project/W55FA92/N9H20/BSP/Driver/Source/SYS\wb_config.c **** 			sysprintf("Err to set memory clock- Mclk>HCLK3 and HCLK4\n");
 523:F:/ARM_Project/W55FA92/N9H20/BSP/Driver/Source/SYS\wb_config.c **** 			return (ERRCODE)WB_INVALID_CLOCK;
 524:F:/ARM_Project/W55FA92/N9H20/BSP/Driver/Source/SYS\wb_config.c **** 		}	
 525:F:/ARM_Project/W55FA92/N9H20/BSP/Driver/Source/SYS\wb_config.c **** 	}	
 526:F:/ARM_Project/W55FA92/N9H20/BSP/Driver/Source/SYS\wb_config.c **** 	u32SysDiv = u32PllHz / u32SysHz;	
 527:F:/ARM_Project/W55FA92/N9H20/BSP/Driver/Source/SYS\wb_config.c **** 	for(u32DivN1 = 1; u32DivN1<=16; u32DivN1=u32DivN1+1){
 528:F:/ARM_Project/W55FA92/N9H20/BSP/Driver/Source/SYS\wb_config.c **** 		for(u32DivN0 = 1; u32DivN0<=8; u32DivN0=u32DivN0+1){
 529:F:/ARM_Project/W55FA92/N9H20/BSP/Driver/Source/SYS\wb_config.c **** 			if(u32SysDiv==u32DivN1*u32DivN0)
 530:F:/ARM_Project/W55FA92/N9H20/BSP/Driver/Source/SYS\wb_config.c **** 				break;
 531:F:/ARM_Project/W55FA92/N9H20/BSP/Driver/Source/SYS\wb_config.c **** 		}
 532:F:/ARM_Project/W55FA92/N9H20/BSP/Driver/Source/SYS\wb_config.c **** 		if(u32DivN0>=9)
 533:F:/ARM_Project/W55FA92/N9H20/BSP/Driver/Source/SYS\wb_config.c **** 			continue;
 534:F:/ARM_Project/W55FA92/N9H20/BSP/Driver/Source/SYS\wb_config.c **** 		if(u32SysDiv==u32DivN1*u32DivN0)
 535:F:/ARM_Project/W55FA92/N9H20/BSP/Driver/Source/SYS\wb_config.c **** 				break;
 536:F:/ARM_Project/W55FA92/N9H20/BSP/Driver/Source/SYS\wb_config.c **** 	}	
 537:F:/ARM_Project/W55FA92/N9H20/BSP/Driver/Source/SYS\wb_config.c **** 	if(u32DivN1>=17){
 538:F:/ARM_Project/W55FA92/N9H20/BSP/Driver/Source/SYS\wb_config.c **** 		sysprintf("Can not set the clock due to divider is %d\n", u32SysDiv);
 539:F:/ARM_Project/W55FA92/N9H20/BSP/Driver/Source/SYS\wb_config.c **** 		return (ERRCODE)WB_INVALID_CLOCK;
 540:F:/ARM_Project/W55FA92/N9H20/BSP/Driver/Source/SYS\wb_config.c **** 	}	
 541:F:/ARM_Project/W55FA92/N9H20/BSP/Driver/Source/SYS\wb_config.c **** 	if(u32DivN0!=0)	
 542:F:/ARM_Project/W55FA92/N9H20/BSP/Driver/Source/SYS\wb_config.c **** 		u32DivN0 = u32DivN0-1;
 543:F:/ARM_Project/W55FA92/N9H20/BSP/Driver/Source/SYS\wb_config.c **** 	if(u32DivN1!=0)	
 544:F:/ARM_Project/W55FA92/N9H20/BSP/Driver/Source/SYS\wb_config.c **** 		u32DivN1= u32DivN1-1;
 545:F:/ARM_Project/W55FA92/N9H20/BSP/Driver/Source/SYS\wb_config.c **** 		
 546:F:/ARM_Project/W55FA92/N9H20/BSP/Driver/Source/SYS\wb_config.c **** 
 547:F:/ARM_Project/W55FA92/N9H20/BSP/Driver/Source/SYS\wb_config.c **** 	switch(eSrcClk)
 548:F:/ARM_Project/W55FA92/N9H20/BSP/Driver/Source/SYS\wb_config.c **** 	{
 549:F:/ARM_Project/W55FA92/N9H20/BSP/Driver/Source/SYS\wb_config.c **** 		case eSYS_EXT:
 550:F:/ARM_Project/W55FA92/N9H20/BSP/Driver/Source/SYS\wb_config.c **** 			//g_u32SysClkSrc =  eSYS_EXT;
 551:F:/ARM_Project/W55FA92/N9H20/BSP/Driver/Source/SYS\wb_config.c **** 			 break;
 552:F:/ARM_Project/W55FA92/N9H20/BSP/Driver/Source/SYS\wb_config.c **** 		case eSYS_APLL:
 553:F:/ARM_Project/W55FA92/N9H20/BSP/Driver/Source/SYS\wb_config.c **** 			//g_u32SysClkSrc = eSYS_APLL;
 554:F:/ARM_Project/W55FA92/N9H20/BSP/Driver/Source/SYS\wb_config.c **** 			g_u32ApllHz = u32PllHz;	
 555:F:/ARM_Project/W55FA92/N9H20/BSP/Driver/Source/SYS\wb_config.c **** 			g_i32REG_APLL = _sysGetPLLControlRegister((g_u32ExtClk/1000), g_u32ApllHz);
 556:F:/ARM_Project/W55FA92/N9H20/BSP/Driver/Source/SYS\wb_config.c **** 			if(g_i32REG_APLL==-1)
 557:F:/ARM_Project/W55FA92/N9H20/BSP/Driver/Source/SYS\wb_config.c **** 				return (ERRCODE)WB_INVALID_CLOCK;
 558:F:/ARM_Project/W55FA92/N9H20/BSP/Driver/Source/SYS\wb_config.c **** 			break;	
 559:F:/ARM_Project/W55FA92/N9H20/BSP/Driver/Source/SYS\wb_config.c **** 		case eSYS_UPLL:  
 560:F:/ARM_Project/W55FA92/N9H20/BSP/Driver/Source/SYS\wb_config.c **** 			//g_u32SysClkSrc = eSYS_UPLL;
 561:F:/ARM_Project/W55FA92/N9H20/BSP/Driver/Source/SYS\wb_config.c **** 			g_u32UpllHz = u32PllHz;
 562:F:/ARM_Project/W55FA92/N9H20/BSP/Driver/Source/SYS\wb_config.c **** 			g_i32REG_UPLL = _sysGetPLLControlRegister((g_u32ExtClk/1000), g_u32UpllHz);
 563:F:/ARM_Project/W55FA92/N9H20/BSP/Driver/Source/SYS\wb_config.c **** 			//printf("UPLL register = %d\n", g_i32REG_UPLL);
 564:F:/ARM_Project/W55FA92/N9H20/BSP/Driver/Source/SYS\wb_config.c **** 			if(g_i32REG_UPLL==-1)
 565:F:/ARM_Project/W55FA92/N9H20/BSP/Driver/Source/SYS\wb_config.c **** 				return (ERRCODE)WB_INVALID_CLOCK;
 566:F:/ARM_Project/W55FA92/N9H20/BSP/Driver/Source/SYS\wb_config.c **** 			break;
 567:F:/ARM_Project/W55FA92/N9H20/BSP/Driver/Source/SYS\wb_config.c **** 		case eSYS_MPLL:  
 568:F:/ARM_Project/W55FA92/N9H20/BSP/Driver/Source/SYS\wb_config.c **** 			//g_u32SysClkSrc = eSYS_MPLL;
 569:F:/ARM_Project/W55FA92/N9H20/BSP/Driver/Source/SYS\wb_config.c **** 			g_u32MpllHz = u32PllHz;
 570:F:/ARM_Project/W55FA92/N9H20/BSP/Driver/Source/SYS\wb_config.c **** 			g_i32REG_MPLL = _sysGetPLLControlRegister((g_u32ExtClk/1000), g_u32MpllHz);
 571:F:/ARM_Project/W55FA92/N9H20/BSP/Driver/Source/SYS\wb_config.c **** 			//printf("UPLL register = %d\n", g_i32REG_UPLL);
 572:F:/ARM_Project/W55FA92/N9H20/BSP/Driver/Source/SYS\wb_config.c **** 			if(g_i32REG_MPLL==-1)
 573:F:/ARM_Project/W55FA92/N9H20/BSP/Driver/Source/SYS\wb_config.c **** 				return (ERRCODE)WB_INVALID_CLOCK;
 574:F:/ARM_Project/W55FA92/N9H20/BSP/Driver/Source/SYS\wb_config.c **** 			break;	
 575:F:/ARM_Project/W55FA92/N9H20/BSP/Driver/Source/SYS\wb_config.c **** 		default:
 576:F:/ARM_Project/W55FA92/N9H20/BSP/Driver/Source/SYS\wb_config.c **** 			return (ERRCODE)WB_INVALID_CLOCK;
 577:F:/ARM_Project/W55FA92/N9H20/BSP/Driver/Source/SYS\wb_config.c **** 	}	
 578:F:/ARM_Project/W55FA92/N9H20/BSP/Driver/Source/SYS\wb_config.c **** 	if(eSrcClk==eSYS_UPLL)
 579:F:/ARM_Project/W55FA92/N9H20/BSP/Driver/Source/SYS\wb_config.c **** 	{
 580:F:/ARM_Project/W55FA92/N9H20/BSP/Driver/Source/SYS\wb_config.c **** 		u32RegPll = g_i32REG_UPLL;
 581:F:/ARM_Project/W55FA92/N9H20/BSP/Driver/Source/SYS\wb_config.c **** 		DBG_PRINTF("UPLL  = %d\n", u32RegPll);
 582:F:/ARM_Project/W55FA92/N9H20/BSP/Driver/Source/SYS\wb_config.c **** 		outp32(REG_UPLLCON , u32RegPll);		
 583:F:/ARM_Project/W55FA92/N9H20/BSP/Driver/Source/SYS\wb_config.c **** 	}	
 584:F:/ARM_Project/W55FA92/N9H20/BSP/Driver/Source/SYS\wb_config.c **** 	else if(eSrcClk==eSYS_APLL)
 585:F:/ARM_Project/W55FA92/N9H20/BSP/Driver/Source/SYS\wb_config.c **** 	{
 586:F:/ARM_Project/W55FA92/N9H20/BSP/Driver/Source/SYS\wb_config.c **** 		u32RegPll = g_i32REG_APLL;
 587:F:/ARM_Project/W55FA92/N9H20/BSP/Driver/Source/SYS\wb_config.c **** 		DBG_PRINTF("APLL = %d\n", u32RegPll);
 588:F:/ARM_Project/W55FA92/N9H20/BSP/Driver/Source/SYS\wb_config.c **** 		outp32(REG_APLLCON , u32RegPll);	
 589:F:/ARM_Project/W55FA92/N9H20/BSP/Driver/Source/SYS\wb_config.c **** 	}
 590:F:/ARM_Project/W55FA92/N9H20/BSP/Driver/Source/SYS\wb_config.c **** 	else if(eSrcClk==eSYS_MPLL)
 591:F:/ARM_Project/W55FA92/N9H20/BSP/Driver/Source/SYS\wb_config.c **** 	{
 592:F:/ARM_Project/W55FA92/N9H20/BSP/Driver/Source/SYS\wb_config.c **** 		u32RegPll = g_i32REG_MPLL;
 593:F:/ARM_Project/W55FA92/N9H20/BSP/Driver/Source/SYS\wb_config.c **** 		DBG_PRINTF("MPLL = %d\n", u32RegPll);
 594:F:/ARM_Project/W55FA92/N9H20/BSP/Driver/Source/SYS\wb_config.c **** 		outp32(REG_MPLLCON , u32RegPll);	
 595:F:/ARM_Project/W55FA92/N9H20/BSP/Driver/Source/SYS\wb_config.c **** 	}
 596:F:/ARM_Project/W55FA92/N9H20/BSP/Driver/Source/SYS\wb_config.c **** 			
 597:F:/ARM_Project/W55FA92/N9H20/BSP/Driver/Source/SYS\wb_config.c **** 	u32RegSysDiv = (inp32(REG_CLKDIV0) & ~(SYSTEM_N1 | SYSTEM_S|SYSTEM_N0))| (((u32DivN1&0x0F)<<8) | (
 598:F:/ARM_Project/W55FA92/N9H20/BSP/Driver/Source/SYS\wb_config.c **** 	DBG_PRINTF("REG_PLL = 0x%x\n", u32RegPll);
 599:F:/ARM_Project/W55FA92/N9H20/BSP/Driver/Source/SYS\wb_config.c **** 	DBG_PRINTF("REG_CLKDIV0 = 0x%x\n", u32RegSysDiv);
 600:F:/ARM_Project/W55FA92/N9H20/BSP/Driver/Source/SYS\wb_config.c **** #if 0	
 601:F:/ARM_Project/W55FA92/N9H20/BSP/Driver/Source/SYS\wb_config.c **** 	_sysClockSwitchStart(eSrcClk, 
 602:F:/ARM_Project/W55FA92/N9H20/BSP/Driver/Source/SYS\wb_config.c **** 						u32SysHz/2,
 603:F:/ARM_Project/W55FA92/N9H20/BSP/Driver/Source/SYS\wb_config.c **** 						u32RegPll,	
 604:F:/ARM_Project/W55FA92/N9H20/BSP/Driver/Source/SYS\wb_config.c **** 						u32RegSysDiv);
 605:F:/ARM_Project/W55FA92/N9H20/BSP/Driver/Source/SYS\wb_config.c **** #else
 606:F:/ARM_Project/W55FA92/N9H20/BSP/Driver/Source/SYS\wb_config.c **** 	outp32(REG_CLKDIV0, (inp32(REG_CLKDIV0) & ~(SYSTEM_N1|SYSTEM_S|SYSTEM_N0)) | u32RegSysDiv);
 607:F:/ARM_Project/W55FA92/N9H20/BSP/Driver/Source/SYS\wb_config.c **** #endif						
 608:F:/ARM_Project/W55FA92/N9H20/BSP/Driver/Source/SYS\wb_config.c **** 	/* Restore LVR */
 609:F:/ARM_Project/W55FA92/N9H20/BSP/Driver/Source/SYS\wb_config.c **** //	outp32(REG_POR_LVRD, u32RegLVR);
 610:F:/ARM_Project/W55FA92/N9H20/BSP/Driver/Source/SYS\wb_config.c **** 					
 611:F:/ARM_Project/W55FA92/N9H20/BSP/Driver/Source/SYS\wb_config.c **** 	return Successful;						
 612:F:/ARM_Project/W55FA92/N9H20/BSP/Driver/Source/SYS\wb_config.c **** }	
 613:F:/ARM_Project/W55FA92/N9H20/BSP/Driver/Source/SYS\wb_config.c **** /*
 614:F:/ARM_Project/W55FA92/N9H20/BSP/Driver/Source/SYS\wb_config.c **** 	The function will set the CPU clock below the specified CPU clock 
 615:F:/ARM_Project/W55FA92/N9H20/BSP/Driver/Source/SYS\wb_config.c **** 	And return the real clock of CPU.
 616:F:/ARM_Project/W55FA92/N9H20/BSP/Driver/Source/SYS\wb_config.c **** 	!!! Assume change CPU clock is workable in SDRAM!!!
 617:F:/ARM_Project/W55FA92/N9H20/BSP/Driver/Source/SYS\wb_config.c **** */		
 618:F:/ARM_Project/W55FA92/N9H20/BSP/Driver/Source/SYS\wb_config.c **** INT32 sysSetCPUClock(UINT32 u32CPUClock)
 619:F:/ARM_Project/W55FA92/N9H20/BSP/Driver/Source/SYS\wb_config.c **** {
 620:F:/ARM_Project/W55FA92/N9H20/BSP/Driver/Source/SYS\wb_config.c **** 	UINT32 CPUClock, u32CPUDiv;
 621:F:/ARM_Project/W55FA92/N9H20/BSP/Driver/Source/SYS\wb_config.c **** 	UINT32 u32SysClock = sysGetSystemClock();
 622:F:/ARM_Project/W55FA92/N9H20/BSP/Driver/Source/SYS\wb_config.c **** 	if(u32CPUClock> u32SysClock)
 623:F:/ARM_Project/W55FA92/N9H20/BSP/Driver/Source/SYS\wb_config.c **** 		return (INT32)WB_INVALID_CLOCK;
 624:F:/ARM_Project/W55FA92/N9H20/BSP/Driver/Source/SYS\wb_config.c **** 		
 625:F:/ARM_Project/W55FA92/N9H20/BSP/Driver/Source/SYS\wb_config.c **** 	/* u32CPUDiv must be multiple of 2 */ 
 626:F:/ARM_Project/W55FA92/N9H20/BSP/Driver/Source/SYS\wb_config.c **** 	u32CPUDiv = u32SysClock/u32CPUClock;	
 627:F:/ARM_Project/W55FA92/N9H20/BSP/Driver/Source/SYS\wb_config.c **** 	if(u32CPUDiv==1)
 628:F:/ARM_Project/W55FA92/N9H20/BSP/Driver/Source/SYS\wb_config.c **** 		u32CPUDiv = 0;
 629:F:/ARM_Project/W55FA92/N9H20/BSP/Driver/Source/SYS\wb_config.c **** 	else if(u32CPUDiv%2==0)
 630:F:/ARM_Project/W55FA92/N9H20/BSP/Driver/Source/SYS\wb_config.c **** 		u32CPUDiv=u32CPUDiv-1;	/* u32CPUDiv = 2, 4 ,6, .... Fill to register */
 631:F:/ARM_Project/W55FA92/N9H20/BSP/Driver/Source/SYS\wb_config.c **** 								/* Otherwise CPU speed is slower than specified speed */
 632:F:/ARM_Project/W55FA92/N9H20/BSP/Driver/Source/SYS\wb_config.c **** 	if(u32CPUDiv>16)
 633:F:/ARM_Project/W55FA92/N9H20/BSP/Driver/Source/SYS\wb_config.c **** 		return (INT32)WB_INVALID_CLOCK;
 634:F:/ARM_Project/W55FA92/N9H20/BSP/Driver/Source/SYS\wb_config.c **** 									
 635:F:/ARM_Project/W55FA92/N9H20/BSP/Driver/Source/SYS\wb_config.c **** 	outp32(REG_CLKDIV4, (inp32(REG_CLKDIV4) &~CPU_N) | (u32CPUDiv | CHG_APB));		
 636:F:/ARM_Project/W55FA92/N9H20/BSP/Driver/Source/SYS\wb_config.c **** 	CPUClock = u32SysClock/(u32CPUDiv+1);
 637:F:/ARM_Project/W55FA92/N9H20/BSP/Driver/Source/SYS\wb_config.c **** 	return CPUClock;
 638:F:/ARM_Project/W55FA92/N9H20/BSP/Driver/Source/SYS\wb_config.c **** }
 639:F:/ARM_Project/W55FA92/N9H20/BSP/Driver/Source/SYS\wb_config.c **** /*
 640:F:/ARM_Project/W55FA92/N9H20/BSP/Driver/Source/SYS\wb_config.c **** 	 HCLK1 clcok is always equal to CPUCLK or CPUCLK/2 depends on CPU_N
 641:F:/ARM_Project/W55FA92/N9H20/BSP/Driver/Source/SYS\wb_config.c **** 	 INT32 sysSetHCLK1Clock(UINT32 u32HCLK1Clock)
 642:F:/ARM_Project/W55FA92/N9H20/BSP/Driver/Source/SYS\wb_config.c **** 	{
 643:F:/ARM_Project/W55FA92/N9H20/BSP/Driver/Source/SYS\wb_config.c **** 	
 644:F:/ARM_Project/W55FA92/N9H20/BSP/Driver/Source/SYS\wb_config.c **** 	}
 645:F:/ARM_Project/W55FA92/N9H20/BSP/Driver/Source/SYS\wb_config.c **** */
 646:F:/ARM_Project/W55FA92/N9H20/BSP/Driver/Source/SYS\wb_config.c **** 
 647:F:/ARM_Project/W55FA92/N9H20/BSP/Driver/Source/SYS\wb_config.c **** /*
 648:F:/ARM_Project/W55FA92/N9H20/BSP/Driver/Source/SYS\wb_config.c **** 	Set APB clcok 
 649:F:/ARM_Project/W55FA92/N9H20/BSP/Driver/Source/SYS\wb_config.c **** */
 650:F:/ARM_Project/W55FA92/N9H20/BSP/Driver/Source/SYS\wb_config.c **** INT32 sysSetAPBClock(UINT32 u32APBClock)
 651:F:/ARM_Project/W55FA92/N9H20/BSP/Driver/Source/SYS\wb_config.c **** {
 652:F:/ARM_Project/W55FA92/N9H20/BSP/Driver/Source/SYS\wb_config.c **** 	UINT32 u32APBDiv;
 653:F:/ARM_Project/W55FA92/N9H20/BSP/Driver/Source/SYS\wb_config.c **** 	UINT32 u32HCLK1Clock;
 654:F:/ARM_Project/W55FA92/N9H20/BSP/Driver/Source/SYS\wb_config.c **** 	u32HCLK1Clock = sysGetHCLK1Clock();
 655:F:/ARM_Project/W55FA92/N9H20/BSP/Driver/Source/SYS\wb_config.c **** 	if(u32APBClock> u32HCLK1Clock)
 656:F:/ARM_Project/W55FA92/N9H20/BSP/Driver/Source/SYS\wb_config.c **** 		return (INT32)WB_INVALID_CLOCK;
 657:F:/ARM_Project/W55FA92/N9H20/BSP/Driver/Source/SYS\wb_config.c **** 	u32APBDiv = (u32HCLK1Clock/u32APBClock)-1;
 658:F:/ARM_Project/W55FA92/N9H20/BSP/Driver/Source/SYS\wb_config.c **** 	if((u32HCLK1Clock%u32APBClock) != 0)
 659:F:/ARM_Project/W55FA92/N9H20/BSP/Driver/Source/SYS\wb_config.c **** 		u32APBDiv = u32APBDiv+1;
 660:F:/ARM_Project/W55FA92/N9H20/BSP/Driver/Source/SYS\wb_config.c **** 	
 661:F:/ARM_Project/W55FA92/N9H20/BSP/Driver/Source/SYS\wb_config.c **** 	if(u32APBDiv>7){
 662:F:/ARM_Project/W55FA92/N9H20/BSP/Driver/Source/SYS\wb_config.c **** 		sysprintf("APB divider must be less  8\n");
 663:F:/ARM_Project/W55FA92/N9H20/BSP/Driver/Source/SYS\wb_config.c **** 		return (INT32)WB_INVALID_CLOCK;
 664:F:/ARM_Project/W55FA92/N9H20/BSP/Driver/Source/SYS\wb_config.c **** 	}	
 665:F:/ARM_Project/W55FA92/N9H20/BSP/Driver/Source/SYS\wb_config.c **** 	if(u32APBDiv<1){
 666:F:/ARM_Project/W55FA92/N9H20/BSP/Driver/Source/SYS\wb_config.c **** 		sysprintf("APB divider must be 1 at least\n");
 667:F:/ARM_Project/W55FA92/N9H20/BSP/Driver/Source/SYS\wb_config.c **** 		return (INT32)WB_INVALID_CLOCK;
 668:F:/ARM_Project/W55FA92/N9H20/BSP/Driver/Source/SYS\wb_config.c **** 	}	
 669:F:/ARM_Project/W55FA92/N9H20/BSP/Driver/Source/SYS\wb_config.c **** 	outp32(REG_CLKDIV4, (inp32(REG_CLKDIV4) & ~APB_N)| 
 670:F:/ARM_Project/W55FA92/N9H20/BSP/Driver/Source/SYS\wb_config.c **** 						//(u32APBDiv<<8)); /* N9H26K's program */ 	
 671:F:/ARM_Project/W55FA92/N9H20/BSP/Driver/Source/SYS\wb_config.c **** 						((u32APBDiv<<8) | CHG_APB)); /* CHG_APB: Enable change APB clock */ 	
 672:F:/ARM_Project/W55FA92/N9H20/BSP/Driver/Source/SYS\wb_config.c **** 													/* CHG_APB will auto clear */
 673:F:/ARM_Project/W55FA92/N9H20/BSP/Driver/Source/SYS\wb_config.c **** 	return (u32HCLK1Clock/(u32APBDiv+1));
 674:F:/ARM_Project/W55FA92/N9H20/BSP/Driver/Source/SYS\wb_config.c **** }
 675:F:/ARM_Project/W55FA92/N9H20/BSP/Driver/Source/SYS\wb_config.c **** 	
 676:F:/ARM_Project/W55FA92/N9H20/BSP/Driver/Source/SYS\wb_config.c **** 
 677:F:/ARM_Project/W55FA92/N9H20/BSP/Driver/Source/SYS\wb_config.c **** 
 678:F:/ARM_Project/W55FA92/N9H20/BSP/Driver/Source/SYS\wb_config.c **** BOOL bIsAPLLInitialize = FALSE;
 679:F:/ARM_Project/W55FA92/N9H20/BSP/Driver/Source/SYS\wb_config.c **** 
 680:F:/ARM_Project/W55FA92/N9H20/BSP/Driver/Source/SYS\wb_config.c **** UINT32 sysGetExternalClock(void)
 681:F:/ARM_Project/W55FA92/N9H20/BSP/Driver/Source/SYS\wb_config.c **** {
 682:F:/ARM_Project/W55FA92/N9H20/BSP/Driver/Source/SYS\wb_config.c **** #if 0
 683:F:/ARM_Project/W55FA92/N9H20/BSP/Driver/Source/SYS\wb_config.c **** 	if((inp32(REG_CHIPCFG) & 0xC) == 0x8)	//Different with N9H20
 684:F:/ARM_Project/W55FA92/N9H20/BSP/Driver/Source/SYS\wb_config.c **** 		g_u32ExtClk = 27000000;	
 685:F:/ARM_Project/W55FA92/N9H20/BSP/Driver/Source/SYS\wb_config.c **** 	else 
 686:F:/ARM_Project/W55FA92/N9H20/BSP/Driver/Source/SYS\wb_config.c **** 		g_u32ExtClk = 12000000;		
 687:F:/ARM_Project/W55FA92/N9H20/BSP/Driver/Source/SYS\wb_config.c **** #else
 688:F:/ARM_Project/W55FA92/N9H20/BSP/Driver/Source/SYS\wb_config.c **** 	g_u32ExtClk = EXTERNAL_CRYSTAL_CLOCK;
 654              		.loc 1 688 0
 655 0004 0C329FE5 		ldr	r3, .L81
 656 0008 0C629FE5 		ldr	r6, .L81+4
 657              	.LBE15:
 658              	.LBE14:
 473:F:/ARM_Project/W55FA92/N9H20/BSP/Driver/Source/SYS\wb_config.c **** 	UINT32 u32RegPll;
 659              		.loc 1 473 0
 660 000c 0180A0E1 		mov	r8, r1
 478:F:/ARM_Project/W55FA92/N9H20/BSP/Driver/Source/SYS\wb_config.c **** 	
 661              		.loc 1 478 0
 662 0010 0BB2A0E3 		mov	fp, #-1342177280
 473:F:/ARM_Project/W55FA92/N9H20/BSP/Driver/Source/SYS\wb_config.c **** 	UINT32 u32RegPll;
 663              		.loc 1 473 0
 664 0014 0070A0E1 		mov	r7, r0
 478:F:/ARM_Project/W55FA92/N9H20/BSP/Driver/Source/SYS\wb_config.c **** 	
 665              		.loc 1 478 0
 666 0018 40429BE5 		ldr	r4, [fp, #576]
 667              	.LVL60:
 668 001c 0210A0E1 		mov	r1, r2
 669              	.LVL61:
 670              	.LBB17:
 671              	.LBB16:
 672              		.loc 1 688 0
 673 0020 003086E5 		str	r3, [r6]
 674 0024 0800A0E1 		mov	r0, r8
 675              	.LVL62:
 676              	.LBE16:
 677              	.LBE17:
 473:F:/ARM_Project/W55FA92/N9H20/BSP/Driver/Source/SYS\wb_config.c **** 	UINT32 u32RegPll;
 678              		.loc 1 473 0
 679 0028 0250A0E1 		mov	r5, r2
 680 002c FEFFFFEB 		bl	__aeabi_uidivmod
 681              	.LVL63:
 483:F:/ARM_Project/W55FA92/N9H20/BSP/Driver/Source/SYS\wb_config.c **** 		sysprintf("Err to set memory clock\n");//System divider for integrate and fractional part is not 
 682              		.loc 1 483 0
 683 0030 000051E3 		cmp	r1, #0
 684 0034 0300000A 		beq	.L44
 484:F:/ARM_Project/W55FA92/N9H20/BSP/Driver/Source/SYS\wb_config.c **** 		return (ERRCODE)WB_INVALID_CLOCK;
 685              		.loc 1 484 0
 686 0038 E0019FE5 		ldr	r0, .L81+8
 687 003c FEFFFFEB 		bl	sysprintf
 688              	.LVL64:
 485:F:/ARM_Project/W55FA92/N9H20/BSP/Driver/Source/SYS\wb_config.c **** 	}	
 689              		.loc 1 485 0
 690 0040 DC019FE5 		ldr	r0, .L81+12
 691 0044 F88FBDE8 		pop	{r3, r4, r5, r6, r7, r8, r9, r10, fp, pc}
 692              	.L44:
 487:F:/ARM_Project/W55FA92/N9H20/BSP/Driver/Source/SYS\wb_config.c **** 		sysprintf("Err to set memory clock- Over system divider\n");
 693              		.loc 1 487 0
 694 0048 800050E3 		cmp	r0, #128
 695 004c 0090A0E1 		mov	r9, r0
 696 0050 0300009A 		bls	.L46
 488:F:/ARM_Project/W55FA92/N9H20/BSP/Driver/Source/SYS\wb_config.c **** 		return (ERRCODE)WB_INVALID_CLOCK;
 697              		.loc 1 488 0
 698 0054 CC019FE5 		ldr	r0, .L81+16
 699 0058 FEFFFFEB 		bl	sysprintf
 700              	.LVL65:
 489:F:/ARM_Project/W55FA92/N9H20/BSP/Driver/Source/SYS\wb_config.c **** 	}	
 701              		.loc 1 489 0
 702 005c C0019FE5 		ldr	r0, .L81+12
 703 0060 F88FBDE8 		pop	{r3, r4, r5, r6, r7, r8, r9, r10, fp, pc}
 704              	.L46:
 493:F:/ARM_Project/W55FA92/N9H20/BSP/Driver/Source/SYS\wb_config.c **** 		
 705              		.loc 1 493 0
 706 0064 1C129BE5 		ldr	r1, [fp, #540]
 707 0068 0500A0E1 		mov	r0, r5
 708 006c F01001E2 		and	r1, r1, #240
 709 0070 011081E2 		add	r1, r1, #1
 710 0074 FEFFFFEB 		bl	__aeabi_uidiv
 711              	.LVL66:
 712 0078 A441A0E1 		lsr	r4, r4, #3
 713              	.LVL67:
 714 007c 034004E2 		and	r4, r4, #3
 715 0080 A0A0A0E1 		lsr	r10, r0, #1
 716              	.LVL68:
 496:F:/ARM_Project/W55FA92/N9H20/BSP/Driver/Source/SYS\wb_config.c **** 	if((inp32(REG_CLKDIV4)&CPU_N) == 0)
 717              		.loc 1 496 0
 718 0084 FEFFFFEB 		bl	sysGetCPUClock
 719              	.LVL69:
 497:F:/ARM_Project/W55FA92/N9H20/BSP/Driver/Source/SYS\wb_config.c **** 		u32Hclk1Frq = u32CpuFreq/2;
 720              		.loc 1 497 0
 721 0088 1C329BE5 		ldr	r3, [fp, #540]
 722 008c 0F0013E3 		tst	r3, #15
 496:F:/ARM_Project/W55FA92/N9H20/BSP/Driver/Source/SYS\wb_config.c **** 	if((inp32(REG_CLKDIV4)&CPU_N) == 0)
 723              		.loc 1 496 0
 724 0090 0050A0E1 		mov	r5, r0
 725              	.LVL70:
 498:F:/ARM_Project/W55FA92/N9H20/BSP/Driver/Source/SYS\wb_config.c **** 	else
 726              		.loc 1 498 0
 727 0094 A050A001 		lsreq	r5, r0, #1
 728              	.LVL71:
 502:F:/ARM_Project/W55FA92/N9H20/BSP/Driver/Source/SYS\wb_config.c **** 	if(u32DramSrc==eSrcClk){
 729              		.loc 1 502 0
 730 0098 FEFFFFEB 		bl	sysGetDramClock
 731              	.LVL72:
 503:F:/ARM_Project/W55FA92/N9H20/BSP/Driver/Source/SYS\wb_config.c **** 		if(u32MclkClock< u32Hclk1Frq){
 732              		.loc 1 503 0
 733 009c 040057E1 		cmp	r7, r4
 502:F:/ARM_Project/W55FA92/N9H20/BSP/Driver/Source/SYS\wb_config.c **** 	if(u32DramSrc==eSrcClk){
 734              		.loc 1 502 0
 735 00a0 A000A0E1 		lsr	r0, r0, #1
 736              	.LVL73:
 503:F:/ARM_Project/W55FA92/N9H20/BSP/Driver/Source/SYS\wb_config.c **** 		if(u32MclkClock< u32Hclk1Frq){
 737              		.loc 1 503 0
 738 00a4 0500001A 		bne	.L48
 504:F:/ARM_Project/W55FA92/N9H20/BSP/Driver/Source/SYS\wb_config.c **** 			sysprintf("Err to set memory clock- Mclk>HCLK1\n");
 739              		.loc 1 504 0
 740 00a8 000055E1 		cmp	r5, r0
 741 00ac 1700009A 		bls	.L49
 742              	.L50:
 505:F:/ARM_Project/W55FA92/N9H20/BSP/Driver/Source/SYS\wb_config.c **** 			return (ERRCODE)WB_INVALID_CLOCK;
 743              		.loc 1 505 0
 744 00b0 74019FE5 		ldr	r0, .L81+20
 745              	.LVL74:
 746 00b4 FEFFFFEB 		bl	sysprintf
 747              	.LVL75:
 506:F:/ARM_Project/W55FA92/N9H20/BSP/Driver/Source/SYS\wb_config.c **** 		}
 748              		.loc 1 506 0
 749 00b8 64019FE5 		ldr	r0, .L81+12
 750 00bc F88FBDE8 		pop	{r3, r4, r5, r6, r7, r8, r9, r10, fp, pc}
 751              	.LVL76:
 752              	.L48:
 509:F:/ARM_Project/W55FA92/N9H20/BSP/Driver/Source/SYS\wb_config.c **** 			sysprintf("Err to set memory clock- Mclk>HCLK1\n");
 753              		.loc 1 509 0
 754 00c0 000055E1 		cmp	r5, r0
 755 00c4 F9FFFF2A 		bcs	.L50
 521:F:/ARM_Project/W55FA92/N9H20/BSP/Driver/Source/SYS\wb_config.c **** 			sysprintf("Err to set memory clock- Mclk>HCLK3 and HCLK4\n");
 756              		.loc 1 521 0
 757 00c8 00005AE1 		cmp	r10, r0
 758 00cc 1100002A 		bcs	.L53
 759              	.L66:
 760 00d0 0140A0E3 		mov	r4, #1
 761              	.LVL77:
 762              	.L56:
 473:F:/ARM_Project/W55FA92/N9H20/BSP/Driver/Source/SYS\wb_config.c **** 	UINT32 u32RegPll;
 763              		.loc 1 473 0
 764 00d4 0430A0E1 		mov	r3, r4
 528:F:/ARM_Project/W55FA92/N9H20/BSP/Driver/Source/SYS\wb_config.c **** 			if(u32SysDiv==u32DivN1*u32DivN0)
 765              		.loc 1 528 0
 766 00d8 0150A0E3 		mov	r5, #1
 767              	.LVL78:
 768              	.L55:
 529:F:/ARM_Project/W55FA92/N9H20/BSP/Driver/Source/SYS\wb_config.c **** 				break;
 769              		.loc 1 529 0
 770 00dc 030059E1 		cmp	r9, r3
 771 00e0 4500000A 		beq	.L54
 528:F:/ARM_Project/W55FA92/N9H20/BSP/Driver/Source/SYS\wb_config.c **** 			if(u32SysDiv==u32DivN1*u32DivN0)
 772              		.loc 1 528 0 discriminator 2
 773 00e4 015085E2 		add	r5, r5, #1
 774              	.LVL79:
 775 00e8 090055E3 		cmp	r5, #9
 776 00ec 043083E0 		add	r3, r3, r4
 777 00f0 F9FFFF1A 		bne	.L55
 527:F:/ARM_Project/W55FA92/N9H20/BSP/Driver/Source/SYS\wb_config.c **** 		for(u32DivN0 = 1; u32DivN0<=8; u32DivN0=u32DivN0+1){
 778              		.loc 1 527 0 discriminator 2
 779 00f4 014084E2 		add	r4, r4, #1
 780              	.LVL80:
 781 00f8 110054E3 		cmp	r4, #17
 782 00fc F4FFFF1A 		bne	.L56
 538:F:/ARM_Project/W55FA92/N9H20/BSP/Driver/Source/SYS\wb_config.c **** 		return (ERRCODE)WB_INVALID_CLOCK;
 783              		.loc 1 538 0
 784 0100 0910A0E1 		mov	r1, r9
 785 0104 24019FE5 		ldr	r0, .L81+24
 786              	.LVL81:
 787 0108 FEFFFFEB 		bl	sysprintf
 788              	.LVL82:
 789 010c 110000EA 		b	.L80
 790              	.LVL83:
 791              	.L49:
 516:F:/ARM_Project/W55FA92/N9H20/BSP/Driver/Source/SYS\wb_config.c **** 			sysprintf("Err to set memory clock- Mclk>HCLK3 and HCLK4\n");
 792              		.loc 1 516 0
 793 0110 00005AE1 		cmp	r10, r0
 794 0114 EDFFFF9A 		bls	.L66
 795              	.L53:
 517:F:/ARM_Project/W55FA92/N9H20/BSP/Driver/Source/SYS\wb_config.c **** 			return (ERRCODE)WB_INVALID_CLOCK;
 796              		.loc 1 517 0
 797 0118 14019FE5 		ldr	r0, .L81+28
 798              	.LVL84:
 799 011c FEFFFFEB 		bl	sysprintf
 800              	.LVL85:
 518:F:/ARM_Project/W55FA92/N9H20/BSP/Driver/Source/SYS\wb_config.c **** 		}	
 801              		.loc 1 518 0
 802 0120 FC009FE5 		ldr	r0, .L81+12
 803 0124 F88FBDE8 		pop	{r3, r4, r5, r6, r7, r8, r9, r10, fp, pc}
 804              	.LVL86:
 805              	.L58:
 555:F:/ARM_Project/W55FA92/N9H20/BSP/Driver/Source/SYS\wb_config.c **** 			if(g_i32REG_APLL==-1)
 806              		.loc 1 555 0
 807 0128 000096E5 		ldr	r0, [r6]
 808              	.LVL87:
 809 012c 04119FE5 		ldr	r1, .L81+32
 810 0130 902183E0 		umull	r2, r3, r0, r1
 811 0134 0810A0E1 		mov	r1, r8
 812 0138 2303A0E1 		lsr	r0, r3, #6
 813 013c FEFFFFEB 		bl	_sysGetPLLControlRegister
 814              	.LVL88:
 815 0140 F4309FE5 		ldr	r3, .L81+36
 556:F:/ARM_Project/W55FA92/N9H20/BSP/Driver/Source/SYS\wb_config.c **** 				return (ERRCODE)WB_INVALID_CLOCK;
 816              		.loc 1 556 0
 817 0144 010070E3 		cmn	r0, #1
 555:F:/ARM_Project/W55FA92/N9H20/BSP/Driver/Source/SYS\wb_config.c **** 			if(g_i32REG_APLL==-1)
 818              		.loc 1 555 0
 819 0148 000083E5 		str	r0, [r3]
 588:F:/ARM_Project/W55FA92/N9H20/BSP/Driver/Source/SYS\wb_config.c **** 	}
 820              		.loc 1 588 0
 821 014c 0B32A013 		movne	r3, #-1342177280
 822 0150 20028315 		strne	r0, [r3, #544]
 556:F:/ARM_Project/W55FA92/N9H20/BSP/Driver/Source/SYS\wb_config.c **** 				return (ERRCODE)WB_INVALID_CLOCK;
 823              		.loc 1 556 0
 824 0154 0D00001A 		bne	.L64
 825              	.LVL89:
 826              	.L80:
 539:F:/ARM_Project/W55FA92/N9H20/BSP/Driver/Source/SYS\wb_config.c **** 	}	
 827              		.loc 1 539 0
 828 0158 C4009FE5 		ldr	r0, .L81+12
 612:F:/ARM_Project/W55FA92/N9H20/BSP/Driver/Source/SYS\wb_config.c **** /*
 829              		.loc 1 612 0
 830 015c F88FBDE8 		pop	{r3, r4, r5, r6, r7, r8, r9, r10, fp, pc}
 831              	.LVL90:
 832              	.L60:
 562:F:/ARM_Project/W55FA92/N9H20/BSP/Driver/Source/SYS\wb_config.c **** 			//printf("UPLL register = %d\n", g_i32REG_UPLL);
 833              		.loc 1 562 0
 834 0160 000096E5 		ldr	r0, [r6]
 835              	.LVL91:
 836 0164 CC109FE5 		ldr	r1, .L81+32
 837 0168 902183E0 		umull	r2, r3, r0, r1
 838 016c 0810A0E1 		mov	r1, r8
 839 0170 2303A0E1 		lsr	r0, r3, #6
 840 0174 FEFFFFEB 		bl	_sysGetPLLControlRegister
 841              	.LVL92:
 842 0178 C0309FE5 		ldr	r3, .L81+40
 564:F:/ARM_Project/W55FA92/N9H20/BSP/Driver/Source/SYS\wb_config.c **** 				return (ERRCODE)WB_INVALID_CLOCK;
 843              		.loc 1 564 0
 844 017c 010070E3 		cmn	r0, #1
 562:F:/ARM_Project/W55FA92/N9H20/BSP/Driver/Source/SYS\wb_config.c **** 			//printf("UPLL register = %d\n", g_i32REG_UPLL);
 845              		.loc 1 562 0
 846 0180 000083E5 		str	r0, [r3]
 582:F:/ARM_Project/W55FA92/N9H20/BSP/Driver/Source/SYS\wb_config.c **** 	}	
 847              		.loc 1 582 0
 848 0184 0B32A013 		movne	r3, #-1342177280
 849 0188 24028315 		strne	r0, [r3, #548]
 564:F:/ARM_Project/W55FA92/N9H20/BSP/Driver/Source/SYS\wb_config.c **** 				return (ERRCODE)WB_INVALID_CLOCK;
 850              		.loc 1 564 0
 851 018c F1FFFF0A 		beq	.L80
 852              	.L64:
 597:F:/ARM_Project/W55FA92/N9H20/BSP/Driver/Source/SYS\wb_config.c **** 	DBG_PRINTF("REG_PLL = 0x%x\n", u32RegPll);
 853              		.loc 1 597 0
 854 0190 0B32A0E3 		mov	r3, #-1342177280
 855 0194 0C0293E5 		ldr	r0, [r3, #524]
 856              	.LVL93:
 606:F:/ARM_Project/W55FA92/N9H20/BSP/Driver/Source/SYS\wb_config.c **** #endif						
 857              		.loc 1 606 0
 858 0198 0C2293E5 		ldr	r2, [r3, #524]
 542:F:/ARM_Project/W55FA92/N9H20/BSP/Driver/Source/SYS\wb_config.c **** 	if(u32DivN1!=0)	
 859              		.loc 1 542 0
 860 019c 015045E2 		sub	r5, r5, #1
 861              	.LVL94:
 606:F:/ARM_Project/W55FA92/N9H20/BSP/Driver/Source/SYS\wb_config.c **** #endif						
 862              		.loc 1 606 0
 863 01a0 020080E1 		orr	r0, r0, r2
 864              	.LVL95:
 865 01a4 F10EC0E3 		bic	r0, r0, #3856
 866 01a8 0F00C0E3 		bic	r0, r0, #15
 867 01ac 870180E1 		orr	r0, r0, r7, lsl #3
 868 01b0 050080E1 		orr	r0, r0, r5
 544:F:/ARM_Project/W55FA92/N9H20/BSP/Driver/Source/SYS\wb_config.c **** 		
 869              		.loc 1 544 0
 870 01b4 014044E2 		sub	r4, r4, #1
 871              	.LVL96:
 606:F:/ARM_Project/W55FA92/N9H20/BSP/Driver/Source/SYS\wb_config.c **** #endif						
 872              		.loc 1 606 0
 873 01b8 040480E1 		orr	r0, r0, r4, lsl #8
 874 01bc 0C0283E5 		str	r0, [r3, #524]
 611:F:/ARM_Project/W55FA92/N9H20/BSP/Driver/Source/SYS\wb_config.c **** }	
 875              		.loc 1 611 0
 876 01c0 0000A0E3 		mov	r0, #0
 877 01c4 F88FBDE8 		pop	{r3, r4, r5, r6, r7, r8, r9, r10, fp, pc}
 878              	.LVL97:
 879              	.L63:
 570:F:/ARM_Project/W55FA92/N9H20/BSP/Driver/Source/SYS\wb_config.c **** 			//printf("UPLL register = %d\n", g_i32REG_UPLL);
 880              		.loc 1 570 0
 881 01c8 000096E5 		ldr	r0, [r6]
 882              	.LVL98:
 883 01cc 64109FE5 		ldr	r1, .L81+32
 884 01d0 902183E0 		umull	r2, r3, r0, r1
 885 01d4 0810A0E1 		mov	r1, r8
 886 01d8 2303A0E1 		lsr	r0, r3, #6
 887 01dc FEFFFFEB 		bl	_sysGetPLLControlRegister
 888              	.LVL99:
 889 01e0 5C309FE5 		ldr	r3, .L81+44
 572:F:/ARM_Project/W55FA92/N9H20/BSP/Driver/Source/SYS\wb_config.c **** 				return (ERRCODE)WB_INVALID_CLOCK;
 890              		.loc 1 572 0
 891 01e4 010070E3 		cmn	r0, #1
 570:F:/ARM_Project/W55FA92/N9H20/BSP/Driver/Source/SYS\wb_config.c **** 			//printf("UPLL register = %d\n", g_i32REG_UPLL);
 892              		.loc 1 570 0
 893 01e8 000083E5 		str	r0, [r3]
 594:F:/ARM_Project/W55FA92/N9H20/BSP/Driver/Source/SYS\wb_config.c **** 	}
 894              		.loc 1 594 0
 895 01ec 0B32A013 		movne	r3, #-1342177280
 896 01f0 28028315 		strne	r0, [r3, #552]
 572:F:/ARM_Project/W55FA92/N9H20/BSP/Driver/Source/SYS\wb_config.c **** 				return (ERRCODE)WB_INVALID_CLOCK;
 897              		.loc 1 572 0
 898 01f4 E5FFFF1A 		bne	.L64
 899 01f8 D6FFFFEA 		b	.L80
 900              	.LVL100:
 901              	.L54:
 547:F:/ARM_Project/W55FA92/N9H20/BSP/Driver/Source/SYS\wb_config.c **** 	{
 902              		.loc 1 547 0
 903 01fc 030057E3 		cmp	r7, #3
 904 0200 07F19F97 		ldrls	pc, [pc, r7, asl #2]
 905 0204 D3FFFFEA 		b	.L80
 906              	.L65:
 907 0208 90010000 		.word	.L64
 908 020c C8010000 		.word	.L63
 909 0210 28010000 		.word	.L58
 910 0214 60010000 		.word	.L60
 911              	.L82:
 912              		.align	2
 913              	.L81:
 914 0218 001BB700 		.word	12000000
 915 021c 00000000 		.word	.LANCHOR2
 916 0220 10000000 		.word	.LANCHOR0+16
 917 0224 0A0AFFFF 		.word	-62966
 918 0228 29000000 		.word	.LANCHOR0+41
 919 022c 57000000 		.word	.LANCHOR0+87
 920 0230 AB000000 		.word	.LANCHOR0+171
 921 0234 7C000000 		.word	.LANCHOR0+124
 922 0238 D34D6210 		.word	274877907
 923 023c 00000000 		.word	.LANCHOR3
 924 0240 00000000 		.word	.LANCHOR4
 925 0244 00000000 		.word	.LANCHOR5
 926              		.cfi_endproc
 927              	.LFE12:
 929              		.section	.text.sysSetCPUClock,"ax",%progbits
 930              		.align	2
 931              		.global	sysSetCPUClock
 932              		.syntax unified
 933              		.arm
 934              		.fpu softvfp
 936              	sysSetCPUClock:
 937              	.LFB13:
 619:F:/ARM_Project/W55FA92/N9H20/BSP/Driver/Source/SYS\wb_config.c **** 	UINT32 CPUClock, u32CPUDiv;
 938              		.loc 1 619 0
 939              		.cfi_startproc
 940              		@ args = 0, pretend = 0, frame = 0
 941              		@ frame_needed = 0, uses_anonymous_args = 0
 942              	.LVL101:
 943 0000 70402DE9 		push	{r4, r5, r6, lr}
 944              		.cfi_def_cfa_offset 16
 945              		.cfi_offset 4, -16
 946              		.cfi_offset 5, -12
 947              		.cfi_offset 6, -8
 948              		.cfi_offset 14, -4
 619:F:/ARM_Project/W55FA92/N9H20/BSP/Driver/Source/SYS\wb_config.c **** 	UINT32 CPUClock, u32CPUDiv;
 949              		.loc 1 619 0
 950 0004 0050A0E1 		mov	r5, r0
 621:F:/ARM_Project/W55FA92/N9H20/BSP/Driver/Source/SYS\wb_config.c **** 	if(u32CPUClock> u32SysClock)
 951              		.loc 1 621 0
 952 0008 FEFFFFEB 		bl	sysGetSystemClock
 953              	.LVL102:
 622:F:/ARM_Project/W55FA92/N9H20/BSP/Driver/Source/SYS\wb_config.c **** 		return (INT32)WB_INVALID_CLOCK;
 954              		.loc 1 622 0
 955 000c 050050E1 		cmp	r0, r5
 956 0010 0800003A 		bcc	.L89
 626:F:/ARM_Project/W55FA92/N9H20/BSP/Driver/Source/SYS\wb_config.c **** 	if(u32CPUDiv==1)
 957              		.loc 1 626 0
 958 0014 0510A0E1 		mov	r1, r5
 959 0018 0040A0E1 		mov	r4, r0
 960 001c FEFFFFEB 		bl	__aeabi_uidiv
 961              	.LVL103:
 627:F:/ARM_Project/W55FA92/N9H20/BSP/Driver/Source/SYS\wb_config.c **** 		u32CPUDiv = 0;
 962              		.loc 1 627 0
 963 0020 010050E3 		cmp	r0, #1
 964 0024 0500000A 		beq	.L88
 629:F:/ARM_Project/W55FA92/N9H20/BSP/Driver/Source/SYS\wb_config.c **** 		u32CPUDiv=u32CPUDiv-1;	/* u32CPUDiv = 2, 4 ,6, .... Fill to register */
 965              		.loc 1 629 0
 966 0028 010010E3 		tst	r0, #1
 630:F:/ARM_Project/W55FA92/N9H20/BSP/Driver/Source/SYS\wb_config.c **** 								/* Otherwise CPU speed is slower than specified speed */
 967              		.loc 1 630 0
 968 002c 01004002 		subeq	r0, r0, #1
 969              	.LVL104:
 632:F:/ARM_Project/W55FA92/N9H20/BSP/Driver/Source/SYS\wb_config.c **** 		return (INT32)WB_INVALID_CLOCK;
 970              		.loc 1 632 0
 971 0030 100050E3 		cmp	r0, #16
 972 0034 0200009A 		bls	.L85
 973              	.LVL105:
 974              	.L89:
 623:F:/ARM_Project/W55FA92/N9H20/BSP/Driver/Source/SYS\wb_config.c **** 		
 975              		.loc 1 623 0
 976 0038 2C009FE5 		ldr	r0, .L91
 638:F:/ARM_Project/W55FA92/N9H20/BSP/Driver/Source/SYS\wb_config.c **** /*
 977              		.loc 1 638 0
 978 003c 7080BDE8 		pop	{r4, r5, r6, pc}
 979              	.LVL106:
 980              	.L88:
 628:F:/ARM_Project/W55FA92/N9H20/BSP/Driver/Source/SYS\wb_config.c **** 	else if(u32CPUDiv%2==0)
 981              		.loc 1 628 0
 982 0040 0000A0E3 		mov	r0, #0
 983              	.LVL107:
 984              	.L85:
 635:F:/ARM_Project/W55FA92/N9H20/BSP/Driver/Source/SYS\wb_config.c **** 	CPUClock = u32SysClock/(u32CPUDiv+1);
 985              		.loc 1 635 0
 986 0044 0B22A0E3 		mov	r2, #-1342177280
 987 0048 1C3292E5 		ldr	r3, [r2, #540]
 636:F:/ARM_Project/W55FA92/N9H20/BSP/Driver/Source/SYS\wb_config.c **** 	return CPUClock;
 988              		.loc 1 636 0
 989 004c 011080E2 		add	r1, r0, #1
 635:F:/ARM_Project/W55FA92/N9H20/BSP/Driver/Source/SYS\wb_config.c **** 	CPUClock = u32SysClock/(u32CPUDiv+1);
 990              		.loc 1 635 0
 991 0050 0F30C3E3 		bic	r3, r3, #15
 992 0054 023B83E3 		orr	r3, r3, #2048
 993 0058 003083E1 		orr	r3, r3, r0
 994 005c 1C3282E5 		str	r3, [r2, #540]
 995              	.LVL108:
 636:F:/ARM_Project/W55FA92/N9H20/BSP/Driver/Source/SYS\wb_config.c **** 	return CPUClock;
 996              		.loc 1 636 0
 997 0060 0400A0E1 		mov	r0, r4
 998              	.LVL109:
 999 0064 FEFFFFEB 		bl	__aeabi_uidiv
 1000              	.LVL110:
 637:F:/ARM_Project/W55FA92/N9H20/BSP/Driver/Source/SYS\wb_config.c **** }
 1001              		.loc 1 637 0
 1002 0068 7080BDE8 		pop	{r4, r5, r6, pc}
 1003              	.L92:
 1004              		.align	2
 1005              	.L91:
 1006 006c 0A0AFFFF 		.word	-62966
 1007              		.cfi_endproc
 1008              	.LFE13:
 1010              		.section	.text.sysSetAPBClock,"ax",%progbits
 1011              		.align	2
 1012              		.global	sysSetAPBClock
 1013              		.syntax unified
 1014              		.arm
 1015              		.fpu softvfp
 1017              	sysSetAPBClock:
 1018              	.LFB14:
 651:F:/ARM_Project/W55FA92/N9H20/BSP/Driver/Source/SYS\wb_config.c **** 	UINT32 u32APBDiv;
 1019              		.loc 1 651 0
 1020              		.cfi_startproc
 1021              		@ args = 0, pretend = 0, frame = 0
 1022              		@ frame_needed = 0, uses_anonymous_args = 0
 1023              	.LVL111:
 1024 0000 70402DE9 		push	{r4, r5, r6, lr}
 1025              		.cfi_def_cfa_offset 16
 1026              		.cfi_offset 4, -16
 1027              		.cfi_offset 5, -12
 1028              		.cfi_offset 6, -8
 1029              		.cfi_offset 14, -4
 651:F:/ARM_Project/W55FA92/N9H20/BSP/Driver/Source/SYS\wb_config.c **** 	UINT32 u32APBDiv;
 1030              		.loc 1 651 0
 1031 0004 0050A0E1 		mov	r5, r0
 654:F:/ARM_Project/W55FA92/N9H20/BSP/Driver/Source/SYS\wb_config.c **** 	if(u32APBClock> u32HCLK1Clock)
 1032              		.loc 1 654 0
 1033 0008 FEFFFFEB 		bl	sysGetHCLK1Clock
 1034              	.LVL112:
 655:F:/ARM_Project/W55FA92/N9H20/BSP/Driver/Source/SYS\wb_config.c **** 		return (INT32)WB_INVALID_CLOCK;
 1035              		.loc 1 655 0
 1036 000c 050050E1 		cmp	r0, r5
 1037 0010 1A00003A 		bcc	.L98
 1038 0014 0510A0E1 		mov	r1, r5
 1039 0018 0040A0E1 		mov	r4, r0
 1040 001c FEFFFFEB 		bl	__aeabi_uidivmod
 1041              	.LVL113:
 658:F:/ARM_Project/W55FA92/N9H20/BSP/Driver/Source/SYS\wb_config.c **** 		u32APBDiv = u32APBDiv+1;
 1042              		.loc 1 658 0
 1043 0020 000051E3 		cmp	r1, #0
 657:F:/ARM_Project/W55FA92/N9H20/BSP/Driver/Source/SYS\wb_config.c **** 	if((u32HCLK1Clock%u32APBClock) != 0)
 1044              		.loc 1 657 0
 1045 0024 01004002 		subeq	r0, r0, #1
 1046              	.LVL114:
 661:F:/ARM_Project/W55FA92/N9H20/BSP/Driver/Source/SYS\wb_config.c **** 		sysprintf("APB divider must be less  8\n");
 1047              		.loc 1 661 0
 1048 0028 070050E3 		cmp	r0, #7
 1049 002c 0300009A 		bls	.L96
 662:F:/ARM_Project/W55FA92/N9H20/BSP/Driver/Source/SYS\wb_config.c **** 		return (INT32)WB_INVALID_CLOCK;
 1050              		.loc 1 662 0
 1051 0030 50009FE5 		ldr	r0, .L100
 1052              	.LVL115:
 1053 0034 FEFFFFEB 		bl	sysprintf
 1054              	.LVL116:
 663:F:/ARM_Project/W55FA92/N9H20/BSP/Driver/Source/SYS\wb_config.c **** 	}	
 1055              		.loc 1 663 0
 1056 0038 4C009FE5 		ldr	r0, .L100+4
 1057 003c 7080BDE8 		pop	{r4, r5, r6, pc}
 1058              	.LVL117:
 1059              	.L96:
 665:F:/ARM_Project/W55FA92/N9H20/BSP/Driver/Source/SYS\wb_config.c **** 		sysprintf("APB divider must be 1 at least\n");
 1060              		.loc 1 665 0
 1061 0040 000050E3 		cmp	r0, #0
 1062 0044 0300001A 		bne	.L97
 666:F:/ARM_Project/W55FA92/N9H20/BSP/Driver/Source/SYS\wb_config.c **** 		return (INT32)WB_INVALID_CLOCK;
 1063              		.loc 1 666 0
 1064 0048 40009FE5 		ldr	r0, .L100+8
 1065              	.LVL118:
 1066 004c FEFFFFEB 		bl	sysprintf
 1067              	.LVL119:
 667:F:/ARM_Project/W55FA92/N9H20/BSP/Driver/Source/SYS\wb_config.c **** 	}	
 1068              		.loc 1 667 0
 1069 0050 34009FE5 		ldr	r0, .L100+4
 1070 0054 7080BDE8 		pop	{r4, r5, r6, pc}
 1071              	.LVL120:
 1072              	.L97:
 669:F:/ARM_Project/W55FA92/N9H20/BSP/Driver/Source/SYS\wb_config.c **** 						//(u32APBDiv<<8)); /* N9H26K's program */ 	
 1073              		.loc 1 669 0
 1074 0058 0B22A0E3 		mov	r2, #-1342177280
 1075 005c 1C3292E5 		ldr	r3, [r2, #540]
 673:F:/ARM_Project/W55FA92/N9H20/BSP/Driver/Source/SYS\wb_config.c **** }
 1076              		.loc 1 673 0
 1077 0060 011080E2 		add	r1, r0, #1
 669:F:/ARM_Project/W55FA92/N9H20/BSP/Driver/Source/SYS\wb_config.c **** 						//(u32APBDiv<<8)); /* N9H26K's program */ 	
 1078              		.loc 1 669 0
 1079 0064 073CC3E3 		bic	r3, r3, #1792
 1080 0068 023B83E3 		orr	r3, r3, #2048
 1081 006c 003483E1 		orr	r3, r3, r0, lsl #8
 1082 0070 1C3282E5 		str	r3, [r2, #540]
 673:F:/ARM_Project/W55FA92/N9H20/BSP/Driver/Source/SYS\wb_config.c **** }
 1083              		.loc 1 673 0
 1084 0074 0400A0E1 		mov	r0, r4
 1085              	.LVL121:
 1086 0078 FEFFFFEB 		bl	__aeabi_uidiv
 1087              	.LVL122:
 1088 007c 7080BDE8 		pop	{r4, r5, r6, pc}
 1089              	.LVL123:
 1090              	.L98:
 656:F:/ARM_Project/W55FA92/N9H20/BSP/Driver/Source/SYS\wb_config.c **** 	u32APBDiv = (u32HCLK1Clock/u32APBClock)-1;
 1091              		.loc 1 656 0
 1092 0080 04009FE5 		ldr	r0, .L100+4
 1093              	.LVL124:
 674:F:/ARM_Project/W55FA92/N9H20/BSP/Driver/Source/SYS\wb_config.c **** 	
 1094              		.loc 1 674 0
 1095 0084 7080BDE8 		pop	{r4, r5, r6, pc}
 1096              	.L101:
 1097              		.align	2
 1098              	.L100:
 1099 0088 D7000000 		.word	.LANCHOR0+215
 1100 008c 0A0AFFFF 		.word	-62966
 1101 0090 F4000000 		.word	.LANCHOR0+244
 1102              		.cfi_endproc
 1103              	.LFE14:
 1105              		.global	bIsAPLLInitialize
 1106              		.section	.text.sysGetExternalClock,"ax",%progbits
 1107              		.align	2
 1108              		.global	sysGetExternalClock
 1109              		.syntax unified
 1110              		.arm
 1111              		.fpu softvfp
 1113              	sysGetExternalClock:
 1114              	.LFB15:
 681:F:/ARM_Project/W55FA92/N9H20/BSP/Driver/Source/SYS\wb_config.c **** #if 0
 1115              		.loc 1 681 0
 1116              		.cfi_startproc
 1117              		@ args = 0, pretend = 0, frame = 0
 1118              		@ frame_needed = 0, uses_anonymous_args = 0
 1119              		@ link register save eliminated.
 1120              		.loc 1 688 0
 1121 0000 08009FE5 		ldr	r0, .L103
 1122 0004 08309FE5 		ldr	r3, .L103+4
 1123 0008 000083E5 		str	r0, [r3]
 689:F:/ARM_Project/W55FA92/N9H20/BSP/Driver/Source/SYS\wb_config.c **** #endif		
 690:F:/ARM_Project/W55FA92/N9H20/BSP/Driver/Source/SYS\wb_config.c **** 	return g_u32ExtClk;
 691:F:/ARM_Project/W55FA92/N9H20/BSP/Driver/Source/SYS\wb_config.c **** }	
 1124              		.loc 1 691 0
 1125 000c 1EFF2FE1 		bx	lr
 1126              	.L104:
 1127              		.align	2
 1128              	.L103:
 1129 0010 001BB700 		.word	12000000
 1130 0014 00000000 		.word	.LANCHOR2
 1131              		.cfi_endproc
 1132              	.LFE15:
 1134              		.section	.text.sysGetSystemClock,"ax",%progbits
 1135              		.align	2
 1136              		.global	sysGetSystemClock
 1137              		.syntax unified
 1138              		.arm
 1139              		.fpu softvfp
 1141              	sysGetSystemClock:
 1142              	.LFB16:
 692:F:/ARM_Project/W55FA92/N9H20/BSP/Driver/Source/SYS\wb_config.c **** /*
 693:F:/ARM_Project/W55FA92/N9H20/BSP/Driver/Source/SYS\wb_config.c **** 	Get system clcok 
 694:F:/ARM_Project/W55FA92/N9H20/BSP/Driver/Source/SYS\wb_config.c **** */
 695:F:/ARM_Project/W55FA92/N9H20/BSP/Driver/Source/SYS\wb_config.c **** UINT32 sysGetSystemClock(void)
 696:F:/ARM_Project/W55FA92/N9H20/BSP/Driver/Source/SYS\wb_config.c **** {
 1143              		.loc 1 696 0
 1144              		.cfi_startproc
 1145              		@ args = 0, pretend = 0, frame = 0
 1146              		@ frame_needed = 0, uses_anonymous_args = 0
 1147              	.LVL125:
 1148              	.LBB18:
 1149              	.LBB19:
 688:F:/ARM_Project/W55FA92/N9H20/BSP/Driver/Source/SYS\wb_config.c **** #endif		
 1150              		.loc 1 688 0
 1151 0000 64309FE5 		ldr	r3, .L112
 1152 0004 64109FE5 		ldr	r1, .L112+4
 1153              	.LBE19:
 1154              	.LBE18:
 1155              		.loc 1 696 0
 1156 0008 10402DE9 		push	{r4, lr}
 1157              		.cfi_def_cfa_offset 8
 1158              		.cfi_offset 4, -8
 1159              		.cfi_offset 14, -4
 1160              	.LBB21:
 1161              	.LBB20:
 688:F:/ARM_Project/W55FA92/N9H20/BSP/Driver/Source/SYS\wb_config.c **** #endif		
 1162              		.loc 1 688 0
 1163 000c 001083E5 		str	r1, [r3]
 1164              	.LBE20:
 1165              	.LBE21:
 697:F:/ARM_Project/W55FA92/N9H20/BSP/Driver/Source/SYS\wb_config.c **** 	UINT32 u32Fin;	
 698:F:/ARM_Project/W55FA92/N9H20/BSP/Driver/Source/SYS\wb_config.c **** 	UINT32 u32SysSrc, u32PllPreDiv=1;
 699:F:/ARM_Project/W55FA92/N9H20/BSP/Driver/Source/SYS\wb_config.c **** 	UINT32 u32SysN1, u32SysN0;
 700:F:/ARM_Project/W55FA92/N9H20/BSP/Driver/Source/SYS\wb_config.c **** 	u32Fin = sysGetExternalClock();	
 701:F:/ARM_Project/W55FA92/N9H20/BSP/Driver/Source/SYS\wb_config.c **** 	u32SysSrc = (inp32(REG_CLKDIV0) & SYSTEM_S)>>3;
 1166              		.loc 1 701 0
 1167 0010 0B32A0E3 		mov	r3, #-1342177280
 1168 0014 0C0293E5 		ldr	r0, [r3, #524]
 1169              	.LVL126:
 1170 0018 A001A0E1 		lsr	r0, r0, #3
 1171              	.LVL127:
 1172 001c 030000E2 		and	r0, r0, #3
 1173              	.LVL128:
 702:F:/ARM_Project/W55FA92/N9H20/BSP/Driver/Source/SYS\wb_config.c **** 	//u32PllPreDiv = (inp32(REG_CLKDIV0) & SYSTEM_N0)+1;
 703:F:/ARM_Project/W55FA92/N9H20/BSP/Driver/Source/SYS\wb_config.c **** 	switch(u32SysSrc)
 1174              		.loc 1 703 0
 1175 0020 020050E3 		cmp	r0, #2
 1176 0024 0E00000A 		beq	.L108
 1177 0028 030050E3 		cmp	r0, #3
 1178 002c 0C00000A 		beq	.L108
 1179 0030 000050E3 		cmp	r0, #0
 1180 0034 0100A001 		moveq	r0, r1
 1181              	.LVL129:
 1182 0038 0100A013 		movne	r0, #1
 1183              	.L109:
 1184              	.LVL130:
 704:F:/ARM_Project/W55FA92/N9H20/BSP/Driver/Source/SYS\wb_config.c **** 	{
 705:F:/ARM_Project/W55FA92/N9H20/BSP/Driver/Source/SYS\wb_config.c **** 		case 0:	
 706:F:/ARM_Project/W55FA92/N9H20/BSP/Driver/Source/SYS\wb_config.c **** 			u32SysSrc = u32Fin;	 									break;
 707:F:/ARM_Project/W55FA92/N9H20/BSP/Driver/Source/SYS\wb_config.c **** 		case 2:	
 708:F:/ARM_Project/W55FA92/N9H20/BSP/Driver/Source/SYS\wb_config.c **** 			u32SysSrc = sysGetPLLOutputHz(eSYS_APLL, u32Fin )/u32PllPreDiv;	break;
 709:F:/ARM_Project/W55FA92/N9H20/BSP/Driver/Source/SYS\wb_config.c **** 		case 3:	
 710:F:/ARM_Project/W55FA92/N9H20/BSP/Driver/Source/SYS\wb_config.c **** 			u32SysSrc = sysGetPLLOutputHz(eSYS_UPLL, u32Fin)/u32PllPreDiv;	break;
 711:F:/ARM_Project/W55FA92/N9H20/BSP/Driver/Source/SYS\wb_config.c **** 	}
 712:F:/ARM_Project/W55FA92/N9H20/BSP/Driver/Source/SYS\wb_config.c **** 	
 713:F:/ARM_Project/W55FA92/N9H20/BSP/Driver/Source/SYS\wb_config.c **** 	u32SysN1 = ((inp32(REG_CLKDIV0) & SYSTEM_N1)>>8) + 1;
 1185              		.loc 1 713 0
 1186 003c 0B22A0E3 		mov	r2, #-1342177280
 1187 0040 0C3292E5 		ldr	r3, [r2, #524]
 1188              	.LVL131:
 714:F:/ARM_Project/W55FA92/N9H20/BSP/Driver/Source/SYS\wb_config.c **** 	u32SysN0 = (inp32(REG_CLKDIV0) & SYSTEM_N0) + 1;
 1189              		.loc 1 714 0
 1190 0044 0C1292E5 		ldr	r1, [r2, #524]
 1191              	.LVL132:
 713:F:/ARM_Project/W55FA92/N9H20/BSP/Driver/Source/SYS\wb_config.c **** 	u32SysN0 = (inp32(REG_CLKDIV0) & SYSTEM_N0) + 1;
 1192              		.loc 1 713 0
 1193 0048 2334A0E1 		lsr	r3, r3, #8
 1194              	.LVL133:
 1195              		.loc 1 714 0
 1196 004c 071001E2 		and	r1, r1, #7
 1197              	.LVL134:
 713:F:/ARM_Project/W55FA92/N9H20/BSP/Driver/Source/SYS\wb_config.c **** 	u32SysN0 = (inp32(REG_CLKDIV0) & SYSTEM_N0) + 1;
 1198              		.loc 1 713 0
 1199 0050 0F3003E2 		and	r3, r3, #15
 1200              		.loc 1 714 0
 1201 0054 012081E2 		add	r2, r1, #1
 1202              	.LVL135:
 715:F:/ARM_Project/W55FA92/N9H20/BSP/Driver/Source/SYS\wb_config.c **** 	
 716:F:/ARM_Project/W55FA92/N9H20/BSP/Driver/Source/SYS\wb_config.c **** 	return (u32SysSrc/(u32SysN1*u32SysN0));
 1203              		.loc 1 716 0
 1204 0058 932221E0 		mla	r1, r3, r2, r2
 1205 005c FEFFFFEB 		bl	__aeabi_uidiv
 1206              	.LVL136:
 717:F:/ARM_Project/W55FA92/N9H20/BSP/Driver/Source/SYS\wb_config.c **** }
 1207              		.loc 1 717 0
 1208 0060 1080BDE8 		pop	{r4, pc}
 1209              	.LVL137:
 1210              	.L108:
 710:F:/ARM_Project/W55FA92/N9H20/BSP/Driver/Source/SYS\wb_config.c **** 	}
 1211              		.loc 1 710 0
 1212 0064 FEFFFFEB 		bl	sysGetPLLOutputHz
 1213              	.LVL138:
 1214 0068 F3FFFFEA 		b	.L109
 1215              	.L113:
 1216              		.align	2
 1217              	.L112:
 1218 006c 00000000 		.word	.LANCHOR2
 1219 0070 001BB700 		.word	12000000
 1220              		.cfi_endproc
 1221              	.LFE16:
 1223              		.section	.text.sysGetCPUClock,"ax",%progbits
 1224              		.align	2
 1225              		.global	sysGetCPUClock
 1226              		.syntax unified
 1227              		.arm
 1228              		.fpu softvfp
 1230              	sysGetCPUClock:
 1231              	.LFB17:
 718:F:/ARM_Project/W55FA92/N9H20/BSP/Driver/Source/SYS\wb_config.c **** /*
 719:F:/ARM_Project/W55FA92/N9H20/BSP/Driver/Source/SYS\wb_config.c **** 	Get CPU clcok 
 720:F:/ARM_Project/W55FA92/N9H20/BSP/Driver/Source/SYS\wb_config.c **** */
 721:F:/ARM_Project/W55FA92/N9H20/BSP/Driver/Source/SYS\wb_config.c **** UINT32 sysGetCPUClock()
 722:F:/ARM_Project/W55FA92/N9H20/BSP/Driver/Source/SYS\wb_config.c **** {
 1232              		.loc 1 722 0
 1233              		.cfi_startproc
 1234              		@ args = 0, pretend = 0, frame = 0
 1235              		@ frame_needed = 0, uses_anonymous_args = 0
 1236 0000 10402DE9 		push	{r4, lr}
 1237              		.cfi_def_cfa_offset 8
 1238              		.cfi_offset 4, -8
 1239              		.cfi_offset 14, -4
 723:F:/ARM_Project/W55FA92/N9H20/BSP/Driver/Source/SYS\wb_config.c **** 	UINT32 u32SysClock = sysGetSystemClock();
 1240              		.loc 1 723 0
 1241 0004 FEFFFFEB 		bl	sysGetSystemClock
 1242              	.LVL139:
 724:F:/ARM_Project/W55FA92/N9H20/BSP/Driver/Source/SYS\wb_config.c **** 	UINT32 CPUClock;
 725:F:/ARM_Project/W55FA92/N9H20/BSP/Driver/Source/SYS\wb_config.c **** 	CPUClock = u32SysClock/((inp32(REG_CLKDIV4) & CPU_N)+1);
 1243              		.loc 1 725 0
 1244 0008 0B32A0E3 		mov	r3, #-1342177280
 1245 000c 1C1293E5 		ldr	r1, [r3, #540]
 1246              	.LVL140:
 1247 0010 0F1001E2 		and	r1, r1, #15
 1248              	.LVL141:
 1249 0014 011081E2 		add	r1, r1, #1
 1250 0018 FEFFFFEB 		bl	__aeabi_uidiv
 1251              	.LVL142:
 726:F:/ARM_Project/W55FA92/N9H20/BSP/Driver/Source/SYS\wb_config.c **** #ifdef REAL_CHIP	
 727:F:/ARM_Project/W55FA92/N9H20/BSP/Driver/Source/SYS\wb_config.c **** 	return (UINT32)CPUClock;
 728:F:/ARM_Project/W55FA92/N9H20/BSP/Driver/Source/SYS\wb_config.c **** #else
 729:F:/ARM_Project/W55FA92/N9H20/BSP/Driver/Source/SYS\wb_config.c **** 	return(sysGetExternalClock());
 730:F:/ARM_Project/W55FA92/N9H20/BSP/Driver/Source/SYS\wb_config.c **** #endif	
 731:F:/ARM_Project/W55FA92/N9H20/BSP/Driver/Source/SYS\wb_config.c **** }
 1252              		.loc 1 731 0
 1253 001c 1080BDE8 		pop	{r4, pc}
 1254              		.cfi_endproc
 1255              	.LFE17:
 1257              		.section	.text.sysGetHCLK1Clock,"ax",%progbits
 1258              		.align	2
 1259              		.global	sysGetHCLK1Clock
 1260              		.syntax unified
 1261              		.arm
 1262              		.fpu softvfp
 1264              	sysGetHCLK1Clock:
 1265              	.LFB18:
 732:F:/ARM_Project/W55FA92/N9H20/BSP/Driver/Source/SYS\wb_config.c **** /*
 733:F:/ARM_Project/W55FA92/N9H20/BSP/Driver/Source/SYS\wb_config.c **** 	Get HCLK1 clcok 
 734:F:/ARM_Project/W55FA92/N9H20/BSP/Driver/Source/SYS\wb_config.c **** */
 735:F:/ARM_Project/W55FA92/N9H20/BSP/Driver/Source/SYS\wb_config.c **** UINT32 sysGetHCLK1Clock()
 736:F:/ARM_Project/W55FA92/N9H20/BSP/Driver/Source/SYS\wb_config.c **** {
 1266              		.loc 1 736 0
 1267              		.cfi_startproc
 1268              		@ args = 0, pretend = 0, frame = 0
 1269              		@ frame_needed = 0, uses_anonymous_args = 0
 1270 0000 10402DE9 		push	{r4, lr}
 1271              		.cfi_def_cfa_offset 8
 1272              		.cfi_offset 4, -8
 1273              		.cfi_offset 14, -4
 737:F:/ARM_Project/W55FA92/N9H20/BSP/Driver/Source/SYS\wb_config.c **** 	UINT32 u32CPUClock;
 738:F:/ARM_Project/W55FA92/N9H20/BSP/Driver/Source/SYS\wb_config.c **** 	UINT32 u32CPUDiv;
 739:F:/ARM_Project/W55FA92/N9H20/BSP/Driver/Source/SYS\wb_config.c **** 	u32CPUClock = sysGetCPUClock();
 1274              		.loc 1 739 0
 1275 0004 FEFFFFEB 		bl	sysGetCPUClock
 1276              	.LVL143:
 740:F:/ARM_Project/W55FA92/N9H20/BSP/Driver/Source/SYS\wb_config.c **** 	u32CPUDiv = inp32(REG_CLKDIV4) & CPU_N;
 1277              		.loc 1 740 0
 1278 0008 0B32A0E3 		mov	r3, #-1342177280
 1279 000c 1C3293E5 		ldr	r3, [r3, #540]
 1280              	.LVL144:
 741:F:/ARM_Project/W55FA92/N9H20/BSP/Driver/Source/SYS\wb_config.c **** #ifdef REAL_CHIP	
 742:F:/ARM_Project/W55FA92/N9H20/BSP/Driver/Source/SYS\wb_config.c **** 	if(u32CPUDiv == 0)
 1281              		.loc 1 742 0
 1282 0010 0F0013E3 		tst	r3, #15
 743:F:/ARM_Project/W55FA92/N9H20/BSP/Driver/Source/SYS\wb_config.c **** 		return u32CPUClock/2;
 1283              		.loc 1 743 0
 1284 0014 A000A001 		lsreq	r0, r0, #1
 1285              	.LVL145:
 744:F:/ARM_Project/W55FA92/N9H20/BSP/Driver/Source/SYS\wb_config.c **** 	else
 745:F:/ARM_Project/W55FA92/N9H20/BSP/Driver/Source/SYS\wb_config.c **** 		return u32CPUClock;
 746:F:/ARM_Project/W55FA92/N9H20/BSP/Driver/Source/SYS\wb_config.c **** #else
 747:F:/ARM_Project/W55FA92/N9H20/BSP/Driver/Source/SYS\wb_config.c **** 	return(sysGetExternalClock());
 748:F:/ARM_Project/W55FA92/N9H20/BSP/Driver/Source/SYS\wb_config.c **** #endif		
 749:F:/ARM_Project/W55FA92/N9H20/BSP/Driver/Source/SYS\wb_config.c **** }
 1286              		.loc 1 749 0
 1287 0018 1080BDE8 		pop	{r4, pc}
 1288              		.cfi_endproc
 1289              	.LFE18:
 1291              		.section	.text.sysGetHCLK234Clock,"ax",%progbits
 1292              		.align	2
 1293              		.global	sysGetHCLK234Clock
 1294              		.syntax unified
 1295              		.arm
 1296              		.fpu softvfp
 1298              	sysGetHCLK234Clock:
 1299              	.LFB19:
 750:F:/ARM_Project/W55FA92/N9H20/BSP/Driver/Source/SYS\wb_config.c **** /*
 751:F:/ARM_Project/W55FA92/N9H20/BSP/Driver/Source/SYS\wb_config.c **** 	Get HCLK234 clcok 
 752:F:/ARM_Project/W55FA92/N9H20/BSP/Driver/Source/SYS\wb_config.c **** */
 753:F:/ARM_Project/W55FA92/N9H20/BSP/Driver/Source/SYS\wb_config.c **** UINT32 sysGetHCLK234Clock(void)
 754:F:/ARM_Project/W55FA92/N9H20/BSP/Driver/Source/SYS\wb_config.c **** {
 1300              		.loc 1 754 0
 1301              		.cfi_startproc
 1302              		@ args = 0, pretend = 0, frame = 0
 1303              		@ frame_needed = 0, uses_anonymous_args = 0
 1304 0000 10402DE9 		push	{r4, lr}
 1305              		.cfi_def_cfa_offset 8
 1306              		.cfi_offset 4, -8
 1307              		.cfi_offset 14, -4
 755:F:/ARM_Project/W55FA92/N9H20/BSP/Driver/Source/SYS\wb_config.c **** 	UINT32 u32HCLK1Clock;
 756:F:/ARM_Project/W55FA92/N9H20/BSP/Driver/Source/SYS\wb_config.c **** 	UINT32 u32HCLK234Div;
 757:F:/ARM_Project/W55FA92/N9H20/BSP/Driver/Source/SYS\wb_config.c **** 	
 758:F:/ARM_Project/W55FA92/N9H20/BSP/Driver/Source/SYS\wb_config.c **** 	u32HCLK1Clock = sysGetHCLK1Clock();
 1308              		.loc 1 758 0
 1309 0004 FEFFFFEB 		bl	sysGetHCLK1Clock
 1310              	.LVL146:
 759:F:/ARM_Project/W55FA92/N9H20/BSP/Driver/Source/SYS\wb_config.c **** 	u32HCLK234Div = (inp32(REG_CLKDIV4) & HCLK234_N)>>4;
 1311              		.loc 1 759 0
 1312 0008 0B32A0E3 		mov	r3, #-1342177280
 1313 000c 1C1293E5 		ldr	r1, [r3, #540]
 1314              	.LVL147:
 1315 0010 2112A0E1 		lsr	r1, r1, #4
 1316              	.LVL148:
 1317 0014 0F1001E2 		and	r1, r1, #15
 1318              	.LVL149:
 760:F:/ARM_Project/W55FA92/N9H20/BSP/Driver/Source/SYS\wb_config.c **** #ifdef REAL_CHIP
 761:F:/ARM_Project/W55FA92/N9H20/BSP/Driver/Source/SYS\wb_config.c **** 	return (u32HCLK1Clock/(u32HCLK234Div+1));
 1319              		.loc 1 761 0
 1320 0018 011081E2 		add	r1, r1, #1
 1321              	.LVL150:
 1322 001c FEFFFFEB 		bl	__aeabi_uidiv
 1323              	.LVL151:
 762:F:/ARM_Project/W55FA92/N9H20/BSP/Driver/Source/SYS\wb_config.c **** #else
 763:F:/ARM_Project/W55FA92/N9H20/BSP/Driver/Source/SYS\wb_config.c **** 	return(sysGetExternalClock());
 764:F:/ARM_Project/W55FA92/N9H20/BSP/Driver/Source/SYS\wb_config.c **** #endif		
 765:F:/ARM_Project/W55FA92/N9H20/BSP/Driver/Source/SYS\wb_config.c **** }
 1324              		.loc 1 765 0
 1325 0020 1080BDE8 		pop	{r4, pc}
 1326              		.cfi_endproc
 1327              	.LFE19:
 1329              		.section	.text.sysGetAPBClock,"ax",%progbits
 1330              		.align	2
 1331              		.global	sysGetAPBClock
 1332              		.syntax unified
 1333              		.arm
 1334              		.fpu softvfp
 1336              	sysGetAPBClock:
 1337              	.LFB20:
 766:F:/ARM_Project/W55FA92/N9H20/BSP/Driver/Source/SYS\wb_config.c **** /*
 767:F:/ARM_Project/W55FA92/N9H20/BSP/Driver/Source/SYS\wb_config.c **** 	Get APB clcok 
 768:F:/ARM_Project/W55FA92/N9H20/BSP/Driver/Source/SYS\wb_config.c **** */
 769:F:/ARM_Project/W55FA92/N9H20/BSP/Driver/Source/SYS\wb_config.c **** UINT32 sysGetAPBClock()
 770:F:/ARM_Project/W55FA92/N9H20/BSP/Driver/Source/SYS\wb_config.c **** {
 1338              		.loc 1 770 0
 1339              		.cfi_startproc
 1340              		@ args = 0, pretend = 0, frame = 0
 1341              		@ frame_needed = 0, uses_anonymous_args = 0
 771:F:/ARM_Project/W55FA92/N9H20/BSP/Driver/Source/SYS\wb_config.c **** 	UINT32 u32APBDiv;
 772:F:/ARM_Project/W55FA92/N9H20/BSP/Driver/Source/SYS\wb_config.c **** 	u32APBDiv = ((inp32(REG_CLKDIV4) & APB_N)>>8) +1;
 1342              		.loc 1 772 0
 1343 0000 0B32A0E3 		mov	r3, #-1342177280
 770:F:/ARM_Project/W55FA92/N9H20/BSP/Driver/Source/SYS\wb_config.c **** 	UINT32 u32APBDiv;
 1344              		.loc 1 770 0
 1345 0004 10402DE9 		push	{r4, lr}
 1346              		.cfi_def_cfa_offset 8
 1347              		.cfi_offset 4, -8
 1348              		.cfi_offset 14, -4
 1349              		.loc 1 772 0
 1350 0008 1C4293E5 		ldr	r4, [r3, #540]
 1351              	.LVL152:
 773:F:/ARM_Project/W55FA92/N9H20/BSP/Driver/Source/SYS\wb_config.c **** #ifdef REAL_CHIP	
 774:F:/ARM_Project/W55FA92/N9H20/BSP/Driver/Source/SYS\wb_config.c **** 	return (sysGetHCLK1Clock()/u32APBDiv);
 1352              		.loc 1 774 0
 1353 000c FEFFFFEB 		bl	sysGetHCLK1Clock
 1354              	.LVL153:
 772:F:/ARM_Project/W55FA92/N9H20/BSP/Driver/Source/SYS\wb_config.c **** #ifdef REAL_CHIP	
 1355              		.loc 1 772 0
 1356 0010 2414A0E1 		lsr	r1, r4, #8
 1357 0014 071001E2 		and	r1, r1, #7
 1358              		.loc 1 774 0
 1359 0018 011081E2 		add	r1, r1, #1
 1360              	.LVL154:
 1361 001c FEFFFFEB 		bl	__aeabi_uidiv
 1362              	.LVL155:
 775:F:/ARM_Project/W55FA92/N9H20/BSP/Driver/Source/SYS\wb_config.c **** #else
 776:F:/ARM_Project/W55FA92/N9H20/BSP/Driver/Source/SYS\wb_config.c **** 	return(sysGetExternalClock());
 777:F:/ARM_Project/W55FA92/N9H20/BSP/Driver/Source/SYS\wb_config.c **** #endif	
 778:F:/ARM_Project/W55FA92/N9H20/BSP/Driver/Source/SYS\wb_config.c **** 	
 779:F:/ARM_Project/W55FA92/N9H20/BSP/Driver/Source/SYS\wb_config.c **** }
 1363              		.loc 1 779 0
 1364 0020 1080BDE8 		pop	{r4, pc}
 1365              		.cfi_endproc
 1366              	.LFE20:
 1368              		.section	.text.sysSetPllClock,"ax",%progbits
 1369              		.align	2
 1370              		.global	sysSetPllClock
 1371              		.syntax unified
 1372              		.arm
 1373              		.fpu softvfp
 1375              	sysSetPllClock:
 1376              	.LFB21:
 780:F:/ARM_Project/W55FA92/N9H20/BSP/Driver/Source/SYS\wb_config.c **** 	
 781:F:/ARM_Project/W55FA92/N9H20/BSP/Driver/Source/SYS\wb_config.c **** 
 782:F:/ARM_Project/W55FA92/N9H20/BSP/Driver/Source/SYS\wb_config.c **** /*-------------------------------------------------------------------------------------------------
 783:F:/ARM_Project/W55FA92/N9H20/BSP/Driver/Source/SYS\wb_config.c **** *	The Function is used to set the other PLL which is not the system clock source. 
 784:F:/ARM_Project/W55FA92/N9H20/BSP/Driver/Source/SYS\wb_config.c **** *	If system clock source come from eSYS_UPLL. The eSrcClk only can be eSYS_APLL	
 785:F:/ARM_Project/W55FA92/N9H20/BSP/Driver/Source/SYS\wb_config.c **** *	And if specified PLL not meet some costraint, the funtion will search the near frequency and not 
 786:F:/ARM_Project/W55FA92/N9H20/BSP/Driver/Source/SYS\wb_config.c **** *	
 787:F:/ARM_Project/W55FA92/N9H20/BSP/Driver/Source/SYS\wb_config.c **** * 	Paramter:
 788:F:/ARM_Project/W55FA92/N9H20/BSP/Driver/Source/SYS\wb_config.c **** *		eSrcClk: eSYS_UPLL or eSYS_APLL
 789:F:/ARM_Project/W55FA92/N9H20/BSP/Driver/Source/SYS\wb_config.c **** *		u32TargetKHz: The specified frequency. Unit:Khz.
 790:F:/ARM_Project/W55FA92/N9H20/BSP/Driver/Source/SYS\wb_config.c **** *
 791:F:/ARM_Project/W55FA92/N9H20/BSP/Driver/Source/SYS\wb_config.c **** *	Return: 
 792:F:/ARM_Project/W55FA92/N9H20/BSP/Driver/Source/SYS\wb_config.c **** *		The specified PLL output frequency really.                                                      
 793:F:/ARM_Project/W55FA92/N9H20/BSP/Driver/Source/SYS\wb_config.c **** ---------------------------------------------------------------------------------------------------
 794:F:/ARM_Project/W55FA92/N9H20/BSP/Driver/Source/SYS\wb_config.c **** UINT32 sysSetPllClock(E_SYS_SRC_CLK eSrcClk, UINT32 u32TargetHz)
 795:F:/ARM_Project/W55FA92/N9H20/BSP/Driver/Source/SYS\wb_config.c **** {
 1377              		.loc 1 795 0
 1378              		.cfi_startproc
 1379              		@ args = 0, pretend = 0, frame = 0
 1380              		@ frame_needed = 0, uses_anonymous_args = 0
 1381              	.LVL156:
 1382              	.LBB22:
 1383              	.LBB23:
 688:F:/ARM_Project/W55FA92/N9H20/BSP/Driver/Source/SYS\wb_config.c **** #endif		
 1384              		.loc 1 688 0
 1385 0000 A4209FE5 		ldr	r2, .L131
 1386 0004 A4309FE5 		ldr	r3, .L131+4
 1387              	.LBE23:
 1388              	.LBE22:
 1389              		.loc 1 795 0
 1390 0008 70402DE9 		push	{r4, r5, r6, lr}
 1391              		.cfi_def_cfa_offset 16
 1392              		.cfi_offset 4, -16
 1393              		.cfi_offset 5, -12
 1394              		.cfi_offset 6, -8
 1395              		.cfi_offset 14, -4
 796:F:/ARM_Project/W55FA92/N9H20/BSP/Driver/Source/SYS\wb_config.c **** 	UINT32 u32PllReg, u32PllOutFreqHz, u32FinHz;
 797:F:/ARM_Project/W55FA92/N9H20/BSP/Driver/Source/SYS\wb_config.c **** 	
 798:F:/ARM_Project/W55FA92/N9H20/BSP/Driver/Source/SYS\wb_config.c **** 	
 799:F:/ARM_Project/W55FA92/N9H20/BSP/Driver/Source/SYS\wb_config.c **** 	u32FinHz = sysGetExternalClock();
 800:F:/ARM_Project/W55FA92/N9H20/BSP/Driver/Source/SYS\wb_config.c **** 
 801:F:/ARM_Project/W55FA92/N9H20/BSP/Driver/Source/SYS\wb_config.c **** 		
 802:F:/ARM_Project/W55FA92/N9H20/BSP/Driver/Source/SYS\wb_config.c **** 	//Specified clock is system clock,  return working frequency directly.		
 803:F:/ARM_Project/W55FA92/N9H20/BSP/Driver/Source/SYS\wb_config.c **** 	if( (inp32(REG_CLKDIV0) & SYSTEM_S)== 0x18 )
 1396              		.loc 1 803 0
 1397 000c 0B52A0E3 		mov	r5, #-1342177280
 1398              	.LBB25:
 1399              	.LBB24:
 688:F:/ARM_Project/W55FA92/N9H20/BSP/Driver/Source/SYS\wb_config.c **** #endif		
 1400              		.loc 1 688 0
 1401 0010 003082E5 		str	r3, [r2]
 1402              	.LBE24:
 1403              	.LBE25:
 1404              		.loc 1 803 0
 1405 0014 0C2295E5 		ldr	r2, [r5, #524]
 1406 0018 182002E2 		and	r2, r2, #24
 804:F:/ARM_Project/W55FA92/N9H20/BSP/Driver/Source/SYS\wb_config.c **** 	{//System from UPLL
 805:F:/ARM_Project/W55FA92/N9H20/BSP/Driver/Source/SYS\wb_config.c **** 		if(eSrcClk==eSYS_UPLL)	
 1407              		.loc 1 805 0
 1408 001c 180052E3 		cmp	r2, #24
 1409 0020 03005003 		cmpeq	r0, #3
 1410 0024 0300001A 		bne	.L124
 806:F:/ARM_Project/W55FA92/N9H20/BSP/Driver/Source/SYS\wb_config.c **** 		{
 807:F:/ARM_Project/W55FA92/N9H20/BSP/Driver/Source/SYS\wb_config.c **** 			u32PllOutFreqHz = sysGetPLLOutputHz(eSrcClk, u32FinHz);
 1411              		.loc 1 807 0
 1412 0028 0310A0E1 		mov	r1, r3
 1413              	.LVL157:
 1414 002c 0300A0E3 		mov	r0, #3
 1415              	.LVL158:
 808:F:/ARM_Project/W55FA92/N9H20/BSP/Driver/Source/SYS\wb_config.c **** 			return u32PllOutFreqHz;	
 809:F:/ARM_Project/W55FA92/N9H20/BSP/Driver/Source/SYS\wb_config.c **** 		}
 810:F:/ARM_Project/W55FA92/N9H20/BSP/Driver/Source/SYS\wb_config.c **** 	}
 811:F:/ARM_Project/W55FA92/N9H20/BSP/Driver/Source/SYS\wb_config.c **** 	if( (inp32(REG_CLKDIV0) & SYSTEM_S)== 0x10 )
 812:F:/ARM_Project/W55FA92/N9H20/BSP/Driver/Source/SYS\wb_config.c **** 	{//System from APLL
 813:F:/ARM_Project/W55FA92/N9H20/BSP/Driver/Source/SYS\wb_config.c **** 		if(eSrcClk==eSYS_APLL)	
 814:F:/ARM_Project/W55FA92/N9H20/BSP/Driver/Source/SYS\wb_config.c **** 		{
 815:F:/ARM_Project/W55FA92/N9H20/BSP/Driver/Source/SYS\wb_config.c **** 			u32PllOutFreqHz = sysGetPLLOutputHz(eSrcClk, u32FinHz);
 816:F:/ARM_Project/W55FA92/N9H20/BSP/Driver/Source/SYS\wb_config.c **** 			return u32PllOutFreqHz;	
 817:F:/ARM_Project/W55FA92/N9H20/BSP/Driver/Source/SYS\wb_config.c **** 		}
 818:F:/ARM_Project/W55FA92/N9H20/BSP/Driver/Source/SYS\wb_config.c **** 	}
 819:F:/ARM_Project/W55FA92/N9H20/BSP/Driver/Source/SYS\wb_config.c **** 	//Specified clock is not system clock,
 820:F:/ARM_Project/W55FA92/N9H20/BSP/Driver/Source/SYS\wb_config.c **** 	u32PllReg = _sysGetPLLControlRegister((u32FinHz/1000), u32TargetHz);	
 821:F:/ARM_Project/W55FA92/N9H20/BSP/Driver/Source/SYS\wb_config.c **** 	if(eSrcClk == eSYS_APLL)
 822:F:/ARM_Project/W55FA92/N9H20/BSP/Driver/Source/SYS\wb_config.c **** 		outp32(REG_APLLCON, u32PllReg);
 823:F:/ARM_Project/W55FA92/N9H20/BSP/Driver/Source/SYS\wb_config.c **** 	else if(eSrcClk == eSYS_UPLL)
 824:F:/ARM_Project/W55FA92/N9H20/BSP/Driver/Source/SYS\wb_config.c **** 		outp32(REG_UPLLCON, u32PllReg);	
 825:F:/ARM_Project/W55FA92/N9H20/BSP/Driver/Source/SYS\wb_config.c **** 	else if(eSrcClk == eSYS_MPLL)
 826:F:/ARM_Project/W55FA92/N9H20/BSP/Driver/Source/SYS\wb_config.c **** 		outp32(REG_MPLLCON, u32PllReg);	
 827:F:/ARM_Project/W55FA92/N9H20/BSP/Driver/Source/SYS\wb_config.c **** 	if(((eSrcClk == eSYS_APLL)||(eSrcClk == eSYS_UPLL))||(eSrcClk == eSYS_MPLL))	
 828:F:/ARM_Project/W55FA92/N9H20/BSP/Driver/Source/SYS\wb_config.c **** 	{		
 829:F:/ARM_Project/W55FA92/N9H20/BSP/Driver/Source/SYS\wb_config.c **** 		u32PllOutFreqHz = sysGetPLLOutputHz(eSrcClk, u32FinHz);
 830:F:/ARM_Project/W55FA92/N9H20/BSP/Driver/Source/SYS\wb_config.c **** 		if(eSrcClk == eSYS_APLL)
 831:F:/ARM_Project/W55FA92/N9H20/BSP/Driver/Source/SYS\wb_config.c **** 			g_u32ApllHz = u32PllOutFreqHz;
 832:F:/ARM_Project/W55FA92/N9H20/BSP/Driver/Source/SYS\wb_config.c **** 		else if(eSrcClk == eSYS_UPLL)
 833:F:/ARM_Project/W55FA92/N9H20/BSP/Driver/Source/SYS\wb_config.c **** 			g_u32UpllHz = u32PllOutFreqHz;	
 834:F:/ARM_Project/W55FA92/N9H20/BSP/Driver/Source/SYS\wb_config.c **** 		else if(eSrcClk == eSYS_UPLL)
 835:F:/ARM_Project/W55FA92/N9H20/BSP/Driver/Source/SYS\wb_config.c **** 			g_u32MpllHz = u32PllOutFreqHz;	
 836:F:/ARM_Project/W55FA92/N9H20/BSP/Driver/Source/SYS\wb_config.c **** 		return u32PllOutFreqHz;		
 837:F:/ARM_Project/W55FA92/N9H20/BSP/Driver/Source/SYS\wb_config.c **** 	}	
 838:F:/ARM_Project/W55FA92/N9H20/BSP/Driver/Source/SYS\wb_config.c **** 	else	
 839:F:/ARM_Project/W55FA92/N9H20/BSP/Driver/Source/SYS\wb_config.c **** 		return 0;	
 840:F:/ARM_Project/W55FA92/N9H20/BSP/Driver/Source/SYS\wb_config.c **** 		
 841:F:/ARM_Project/W55FA92/N9H20/BSP/Driver/Source/SYS\wb_config.c **** }				
 1416              		.loc 1 841 0
 1417 0030 7040BDE8 		pop	{r4, r5, r6, lr}
 1418              		.cfi_remember_state
 1419              		.cfi_restore 14
 1420              		.cfi_restore 6
 1421              		.cfi_restore 5
 1422              		.cfi_restore 4
 1423              		.cfi_def_cfa_offset 0
 807:F:/ARM_Project/W55FA92/N9H20/BSP/Driver/Source/SYS\wb_config.c **** 			return u32PllOutFreqHz;	
 1424              		.loc 1 807 0
 1425 0034 FEFFFFEA 		b	sysGetPLLOutputHz
 1426              	.LVL159:
 1427              	.L124:
 1428              		.cfi_restore_state
 811:F:/ARM_Project/W55FA92/N9H20/BSP/Driver/Source/SYS\wb_config.c **** 	{//System from APLL
 1429              		.loc 1 811 0
 1430 0038 0C2295E5 		ldr	r2, [r5, #524]
 1431 003c 182002E2 		and	r2, r2, #24
 813:F:/ARM_Project/W55FA92/N9H20/BSP/Driver/Source/SYS\wb_config.c **** 		{
 1432              		.loc 1 813 0
 1433 0040 100052E3 		cmp	r2, #16
 1434 0044 02005003 		cmpeq	r0, #2
 1435 0048 0300001A 		bne	.L125
 815:F:/ARM_Project/W55FA92/N9H20/BSP/Driver/Source/SYS\wb_config.c **** 			return u32PllOutFreqHz;	
 1436              		.loc 1 815 0
 1437 004c 0310A0E1 		mov	r1, r3
 1438              	.LVL160:
 1439 0050 0200A0E3 		mov	r0, #2
 1440              	.LVL161:
 1441              		.loc 1 841 0
 1442 0054 7040BDE8 		pop	{r4, r5, r6, lr}
 1443              		.cfi_remember_state
 1444              		.cfi_restore 14
 1445              		.cfi_restore 6
 1446              		.cfi_restore 5
 1447              		.cfi_restore 4
 1448              		.cfi_def_cfa_offset 0
 815:F:/ARM_Project/W55FA92/N9H20/BSP/Driver/Source/SYS\wb_config.c **** 			return u32PllOutFreqHz;	
 1449              		.loc 1 815 0
 1450 0058 FEFFFFEA 		b	sysGetPLLOutputHz
 1451              	.LVL162:
 1452              	.L125:
 1453              		.cfi_restore_state
 1454 005c 0040A0E1 		mov	r4, r0
 820:F:/ARM_Project/W55FA92/N9H20/BSP/Driver/Source/SYS\wb_config.c **** 	if(eSrcClk == eSYS_APLL)
 1455              		.loc 1 820 0
 1456 0060 4C009FE5 		ldr	r0, .L131+8
 1457              	.LVL163:
 1458 0064 FEFFFFEB 		bl	_sysGetPLLControlRegister
 1459              	.LVL164:
 821:F:/ARM_Project/W55FA92/N9H20/BSP/Driver/Source/SYS\wb_config.c **** 		outp32(REG_APLLCON, u32PllReg);
 1460              		.loc 1 821 0
 1461 0068 020054E3 		cmp	r4, #2
 822:F:/ARM_Project/W55FA92/N9H20/BSP/Driver/Source/SYS\wb_config.c **** 	else if(eSrcClk == eSYS_UPLL)
 1462              		.loc 1 822 0
 1463 006c 20028505 		streq	r0, [r5, #544]
 821:F:/ARM_Project/W55FA92/N9H20/BSP/Driver/Source/SYS\wb_config.c **** 		outp32(REG_APLLCON, u32PllReg);
 1464              		.loc 1 821 0
 1465 0070 0400000A 		beq	.L127
 823:F:/ARM_Project/W55FA92/N9H20/BSP/Driver/Source/SYS\wb_config.c **** 		outp32(REG_UPLLCON, u32PllReg);	
 1466              		.loc 1 823 0
 1467 0074 030054E3 		cmp	r4, #3
 824:F:/ARM_Project/W55FA92/N9H20/BSP/Driver/Source/SYS\wb_config.c **** 	else if(eSrcClk == eSYS_MPLL)
 1468              		.loc 1 824 0
 1469 0078 24028505 		streq	r0, [r5, #548]
 823:F:/ARM_Project/W55FA92/N9H20/BSP/Driver/Source/SYS\wb_config.c **** 		outp32(REG_UPLLCON, u32PllReg);	
 1470              		.loc 1 823 0
 1471 007c 0100000A 		beq	.L127
 825:F:/ARM_Project/W55FA92/N9H20/BSP/Driver/Source/SYS\wb_config.c **** 		outp32(REG_MPLLCON, u32PllReg);	
 1472              		.loc 1 825 0
 1473 0080 010054E3 		cmp	r4, #1
 826:F:/ARM_Project/W55FA92/N9H20/BSP/Driver/Source/SYS\wb_config.c **** 	if(((eSrcClk == eSYS_APLL)||(eSrcClk == eSYS_UPLL))||(eSrcClk == eSYS_MPLL))	
 1474              		.loc 1 826 0
 1475 0084 28028505 		streq	r0, [r5, #552]
 1476              	.L127:
 827:F:/ARM_Project/W55FA92/N9H20/BSP/Driver/Source/SYS\wb_config.c **** 	{		
 1477              		.loc 1 827 0
 1478 0088 013044E2 		sub	r3, r4, #1
 1479 008c 020053E3 		cmp	r3, #2
 1480 0090 0300008A 		bhi	.L129
 829:F:/ARM_Project/W55FA92/N9H20/BSP/Driver/Source/SYS\wb_config.c **** 		if(eSrcClk == eSYS_APLL)
 1481              		.loc 1 829 0
 1482 0094 0400A0E1 		mov	r0, r4
 1483              	.LVL165:
 1484 0098 10109FE5 		ldr	r1, .L131+4
 1485              		.loc 1 841 0
 1486 009c 7040BDE8 		pop	{r4, r5, r6, lr}
 1487              		.cfi_remember_state
 1488              		.cfi_restore 14
 1489              		.cfi_restore 6
 1490              		.cfi_restore 5
 1491              		.cfi_restore 4
 1492              		.cfi_def_cfa_offset 0
 829:F:/ARM_Project/W55FA92/N9H20/BSP/Driver/Source/SYS\wb_config.c **** 		if(eSrcClk == eSYS_APLL)
 1493              		.loc 1 829 0
 1494 00a0 FEFFFFEA 		b	sysGetPLLOutputHz
 1495              	.LVL166:
 1496              	.L129:
 1497              		.cfi_restore_state
 1498              		.loc 1 841 0
 1499 00a4 0000A0E3 		mov	r0, #0
 1500              	.LVL167:
 1501 00a8 7080BDE8 		pop	{r4, r5, r6, pc}
 1502              	.L132:
 1503              		.align	2
 1504              	.L131:
 1505 00ac 00000000 		.word	.LANCHOR2
 1506 00b0 001BB700 		.word	12000000
 1507 00b4 E02E0000 		.word	12000
 1508              		.cfi_endproc
 1509              	.LFE21:
 1511              		.section	.text._dramClockSwitch,"ax",%progbits
 1512              		.align	2
 1513              		.global	_dramClockSwitch
 1514              		.syntax unified
 1515              		.arm
 1516              		.fpu softvfp
 1518              	_dramClockSwitch:
 1519              	.LFB22:
 842:F:/ARM_Project/W55FA92/N9H20/BSP/Driver/Source/SYS\wb_config.c **** //==========================================================================================
 843:F:/ARM_Project/W55FA92/N9H20/BSP/Driver/Source/SYS\wb_config.c **** 
 844:F:/ARM_Project/W55FA92/N9H20/BSP/Driver/Source/SYS\wb_config.c **** /*-------------------------------------------------------------------------------------------------
 845:F:/ARM_Project/W55FA92/N9H20/BSP/Driver/Source/SYS\wb_config.c **** * Function: sysSetMPLLClock                                                               
 846:F:/ARM_Project/W55FA92/N9H20/BSP/Driver/Source/SYS\wb_config.c **** *                                                                                                  
 847:F:/ARM_Project/W55FA92/N9H20/BSP/Driver/Source/SYS\wb_config.c **** * Parameters:                                                                                      
 848:F:/ARM_Project/W55FA92/N9H20/BSP/Driver/Source/SYS\wb_config.c **** *              u32PllValue - [in], PLL setting value                                               
 849:F:/ARM_Project/W55FA92/N9H20/BSP/Driver/Source/SYS\wb_config.c **** *              u32DramClock - [in], DRAM working frequency                                         
 850:F:/ARM_Project/W55FA92/N9H20/BSP/Driver/Source/SYS\wb_config.c **** * Returns:                                                                                         
 851:F:/ARM_Project/W55FA92/N9H20/BSP/Driver/Source/SYS\wb_config.c **** *      Successful or Error Code                                                                    
 852:F:/ARM_Project/W55FA92/N9H20/BSP/Driver/Source/SYS\wb_config.c **** *                                                                                                  
 853:F:/ARM_Project/W55FA92/N9H20/BSP/Driver/Source/SYS\wb_config.c **** * Description:                                                                                     
 854:F:/ARM_Project/W55FA92/N9H20/BSP/Driver/Source/SYS\wb_config.c **** *              To set the MPLL control register and DRAM working requency.                         
 855:F:/ARM_Project/W55FA92/N9H20/BSP/Driver/Source/SYS\wb_config.c **** *  
 856:F:/ARM_Project/W55FA92/N9H20/BSP/Driver/Source/SYS\wb_config.c **** *Note:
 857:F:/ARM_Project/W55FA92/N9H20/BSP/Driver/Source/SYS\wb_config.c **** *		Switch systetm clock to external clock first.
 858:F:/ARM_Project/W55FA92/N9H20/BSP/Driver/Source/SYS\wb_config.c **** *               
 859:F:/ARM_Project/W55FA92/N9H20/BSP/Driver/Source/SYS\wb_config.c **** *		refresh rate = REPEAT/Fmclk
 860:F:/ARM_Project/W55FA92/N9H20/BSP/Driver/Source/SYS\wb_config.c **** *		1. Disable interrupt
 861:F:/ARM_Project/W55FA92/N9H20/BSP/Driver/Source/SYS\wb_config.c **** *		2. Enter Self-refresh	
 862:F:/ARM_Project/W55FA92/N9H20/BSP/Driver/Source/SYS\wb_config.c **** *		3. Switch to external clock		
 863:F:/ARM_Project/W55FA92/N9H20/BSP/Driver/Source/SYS\wb_config.c **** *		4. Adjustment the sys divider. 
 864:F:/ARM_Project/W55FA92/N9H20/BSP/Driver/Source/SYS\wb_config.c **** *		
 865:F:/ARM_Project/W55FA92/N9H20/BSP/Driver/Source/SYS\wb_config.c **** *
 866:F:/ARM_Project/W55FA92/N9H20/BSP/Driver/Source/SYS\wb_config.c **** *
 867:F:/ARM_Project/W55FA92/N9H20/BSP/Driver/Source/SYS\wb_config.c **** *
 868:F:/ARM_Project/W55FA92/N9H20/BSP/Driver/Source/SYS\wb_config.c **** *
 869:F:/ARM_Project/W55FA92/N9H20/BSP/Driver/Source/SYS\wb_config.c **** *	                                                                                                 
 870:F:/ARM_Project/W55FA92/N9H20/BSP/Driver/Source/SYS\wb_config.c **** ---------------------------------------------------------------------------------------------------
 871:F:/ARM_Project/W55FA92/N9H20/BSP/Driver/Source/SYS\wb_config.c **** #if defined(__CC_ARM)
 872:F:/ARM_Project/W55FA92/N9H20/BSP/Driver/Source/SYS\wb_config.c **** #pragma O2
 873:F:/ARM_Project/W55FA92/N9H20/BSP/Driver/Source/SYS\wb_config.c **** #endif
 874:F:/ARM_Project/W55FA92/N9H20/BSP/Driver/Source/SYS\wb_config.c **** 
 875:F:/ARM_Project/W55FA92/N9H20/BSP/Driver/Source/SYS\wb_config.c **** #if defined (__GNUC__) && !defined (__CC_ARM)
 876:F:/ARM_Project/W55FA92/N9H20/BSP/Driver/Source/SYS\wb_config.c **** #pragma GCC push_options
 877:F:/ARM_Project/W55FA92/N9H20/BSP/Driver/Source/SYS\wb_config.c **** #pragma GCC optimize ("O0")
 878:F:/ARM_Project/W55FA92/N9H20/BSP/Driver/Source/SYS\wb_config.c **** #endif
 879:F:/ARM_Project/W55FA92/N9H20/BSP/Driver/Source/SYS\wb_config.c **** 
 880:F:/ARM_Project/W55FA92/N9H20/BSP/Driver/Source/SYS\wb_config.c **** #if 1
 881:F:/ARM_Project/W55FA92/N9H20/BSP/Driver/Source/SYS\wb_config.c **** #define dbg(u32LocalUartVar, x)  \
 882:F:/ARM_Project/W55FA92/N9H20/BSP/Driver/Source/SYS\wb_config.c **** 								while (!(inpw(REG_UART_FSR+u32LocalUartVar) & 0x400000));\
 883:F:/ARM_Project/W55FA92/N9H20/BSP/Driver/Source/SYS\wb_config.c **** 								outpb(REG_UART_THR+u32LocalUartVar, x);\
 884:F:/ARM_Project/W55FA92/N9H20/BSP/Driver/Source/SYS\wb_config.c **** 								while (!(inpw(REG_UART_FSR+u32LocalUartVar) & 0x400000));\
 885:F:/ARM_Project/W55FA92/N9H20/BSP/Driver/Source/SYS\wb_config.c **** 								outpb(REG_UART_THR+u32LocalUartVar, '\n');\
 886:F:/ARM_Project/W55FA92/N9H20/BSP/Driver/Source/SYS\wb_config.c **** 								while (!(inpw(REG_UART_FSR+u32LocalUartVar) & 0x400000));
 887:F:/ARM_Project/W55FA92/N9H20/BSP/Driver/Source/SYS\wb_config.c **** #define dbg_woc(u32LocalUartVar, x) \
 888:F:/ARM_Project/W55FA92/N9H20/BSP/Driver/Source/SYS\wb_config.c **** 								while (!(inpw(REG_UART_FSR+u32LocalUartVar) & 0x400000));\
 889:F:/ARM_Project/W55FA92/N9H20/BSP/Driver/Source/SYS\wb_config.c **** 								outpb(REG_UART_THR+u32LocalUartVar, x);\
 890:F:/ARM_Project/W55FA92/N9H20/BSP/Driver/Source/SYS\wb_config.c **** 								while (!(inpw(REG_UART_FSR+u32LocalUartVar) & 0x400000)); 
 891:F:/ARM_Project/W55FA92/N9H20/BSP/Driver/Source/SYS\wb_config.c **** #else
 892:F:/ARM_Project/W55FA92/N9H20/BSP/Driver/Source/SYS\wb_config.c **** #define dbg(...)	
 893:F:/ARM_Project/W55FA92/N9H20/BSP/Driver/Source/SYS\wb_config.c **** #define dbg_woc(...)
 894:F:/ARM_Project/W55FA92/N9H20/BSP/Driver/Source/SYS\wb_config.c **** #endif
 895:F:/ARM_Project/W55FA92/N9H20/BSP/Driver/Source/SYS\wb_config.c **** 
 896:F:/ARM_Project/W55FA92/N9H20/BSP/Driver/Source/SYS\wb_config.c **** #define SRAM_MEMCONTENT         0xFF001FD0
 897:F:/ARM_Project/W55FA92/N9H20/BSP/Driver/Source/SYS\wb_config.c **** #define SRAM_MEMTYPE            0xFF001FD4
 898:F:/ARM_Project/W55FA92/N9H20/BSP/Driver/Source/SYS\wb_config.c **** #define SRAM_SKEW               0xFF001FD8
 899:F:/ARM_Project/W55FA92/N9H20/BSP/Driver/Source/SYS\wb_config.c **** #define SRAM_SRCClk             0xFF001FE0
 900:F:/ARM_Project/W55FA92/N9H20/BSP/Driver/Source/SYS\wb_config.c **** #define SRAM_PLLREG             0xFF001FE4	
 901:F:/ARM_Project/W55FA92/N9H20/BSP/Driver/Source/SYS\wb_config.c **** #define SRAM_DRAMFREQ           0xFF001FE8
 902:F:/ARM_Project/W55FA92/N9H20/BSP/Driver/Source/SYS\wb_config.c **** #define SRAM_DRAMDIVI           0xFF001FEC
 903:F:/ARM_Project/W55FA92/N9H20/BSP/Driver/Source/SYS\wb_config.c **** #define SRAM_REG_CLKDIV0        0xFF001FF0
 904:F:/ARM_Project/W55FA92/N9H20/BSP/Driver/Source/SYS\wb_config.c **** #define SRAM_HIGH_FREQ          0xFF001FF4
 905:F:/ARM_Project/W55FA92/N9H20/BSP/Driver/Source/SYS\wb_config.c **** #define SRAM_UARTPORT           0xFF001FF8
 906:F:/ARM_Project/W55FA92/N9H20/BSP/Driver/Source/SYS\wb_config.c **** #define SRAM_VAR                0xFF001FFC
 907:F:/ARM_Project/W55FA92/N9H20/BSP/Driver/Source/SYS\wb_config.c **** 
 908:F:/ARM_Project/W55FA92/N9H20/BSP/Driver/Source/SYS\wb_config.c **** void _dramClockSwitch(register E_SYS_SRC_CLK eSrcClk,	
 909:F:/ARM_Project/W55FA92/N9H20/BSP/Driver/Source/SYS\wb_config.c **** 					register UINT32 u32PllReg,	
 910:F:/ARM_Project/W55FA92/N9H20/BSP/Driver/Source/SYS\wb_config.c **** 					register UINT32 u32DramFreq,						
 911:F:/ARM_Project/W55FA92/N9H20/BSP/Driver/Source/SYS\wb_config.c **** 					register UINT32 u32DramClkDiv)
 912:F:/ARM_Project/W55FA92/N9H20/BSP/Driver/Source/SYS\wb_config.c **** {
 1520              		.loc 1 912 0
 1521              		.cfi_startproc
 1522              		@ args = 0, pretend = 0, frame = 8
 1523              		@ frame_needed = 1, uses_anonymous_args = 0
 1524              	.LVL168:
 1525 0000 70482DE9 		push	{r4, r5, r6, fp, lr}
 1526              		.cfi_def_cfa_offset 20
 1527              		.cfi_offset 4, -20
 1528              		.cfi_offset 5, -16
 1529              		.cfi_offset 6, -12
 1530              		.cfi_offset 11, -8
 1531              		.cfi_offset 14, -4
 1532 0004 10B08DE2 		add	fp, sp, #16
 1533              		.cfi_def_cfa 11, 4
 1534 0008 0CD04DE2 		sub	sp, sp, #12
 1535 000c 02C0A0E1 		mov	ip, r2
 1536 0010 0320A0E1 		mov	r2, r3
 1537              	.LVL169:
 913:F:/ARM_Project/W55FA92/N9H20/BSP/Driver/Source/SYS\wb_config.c **** 
 914:F:/ARM_Project/W55FA92/N9H20/BSP/Driver/Source/SYS\wb_config.c **** 	register int reg2, reg1, reg0;
 915:F:/ARM_Project/W55FA92/N9H20/BSP/Driver/Source/SYS\wb_config.c **** 	UINT32 u32mem_1aaaa8;
 916:F:/ARM_Project/W55FA92/N9H20/BSP/Driver/Source/SYS\wb_config.c **** 	//UINT32 u32REG_CLKDIV0, High_Freq;
 917:F:/ARM_Project/W55FA92/N9H20/BSP/Driver/Source/SYS\wb_config.c **** 
 918:F:/ARM_Project/W55FA92/N9H20/BSP/Driver/Source/SYS\wb_config.c **** #if 0	
 919:F:/ARM_Project/W55FA92/N9H20/BSP/Driver/Source/SYS\wb_config.c **** 	UINT32 tmp,i, change;
 920:F:/ARM_Project/W55FA92/N9H20/BSP/Driver/Source/SYS\wb_config.c **** 	UINT32 skew_19, skew_1a, skew_1b, skew_1c, skew_1d, skew_1e, skew_1f;
 921:F:/ARM_Project/W55FA92/N9H20/BSP/Driver/Source/SYS\wb_config.c **** #else
 922:F:/ARM_Project/W55FA92/N9H20/BSP/Driver/Source/SYS\wb_config.c **** 	//INT32 i; //tmp,i;
 923:F:/ARM_Project/W55FA92/N9H20/BSP/Driver/Source/SYS\wb_config.c **** 	//UINT32 skew = 0;
 924:F:/ARM_Project/W55FA92/N9H20/BSP/Driver/Source/SYS\wb_config.c **** 	//UINT32 High_Freq;
 925:F:/ARM_Project/W55FA92/N9H20/BSP/Driver/Source/SYS\wb_config.c **** #endif 	
 926:F:/ARM_Project/W55FA92/N9H20/BSP/Driver/Source/SYS\wb_config.c ****     UINT32 dly;
 927:F:/ARM_Project/W55FA92/N9H20/BSP/Driver/Source/SYS\wb_config.c **** 	//register UINT32 u32LocalUartVar = u32UartPort;
 928:F:/ARM_Project/W55FA92/N9H20/BSP/Driver/Source/SYS\wb_config.c **** 	
 929:F:/ARM_Project/W55FA92/N9H20/BSP/Driver/Source/SYS\wb_config.c **** 
 930:F:/ARM_Project/W55FA92/N9H20/BSP/Driver/Source/SYS\wb_config.c **** 	//outp32(SRAM_CHIP_TYPE, (inp32(REG_CHIPCFG)&SDRAMSEL)>>4);
 931:F:/ARM_Project/W55FA92/N9H20/BSP/Driver/Source/SYS\wb_config.c **** 	outp32(SRAM_SRCClk, eSrcClk);
 1538              		.loc 1 931 0
 1539 0014 2C3F9FE5 		ldr	r3, .L234
 1540              	.LVL170:
 1541 0018 00E0A0E1 		mov	lr, r0
 1542 001c 00E083E5 		str	lr, [r3]
 932:F:/ARM_Project/W55FA92/N9H20/BSP/Driver/Source/SYS\wb_config.c **** 	outp32(SRAM_PLLREG, u32PllReg);
 1543              		.loc 1 932 0
 1544 0020 243F9FE5 		ldr	r3, .L234+4
 1545 0024 001083E5 		str	r1, [r3]
 933:F:/ARM_Project/W55FA92/N9H20/BSP/Driver/Source/SYS\wb_config.c **** 	outp32(SRAM_DRAMFREQ, u32DramFreq);
 1546              		.loc 1 933 0
 1547 0028 203F9FE5 		ldr	r3, .L234+8
 1548 002c 00C083E5 		str	ip, [r3]
 934:F:/ARM_Project/W55FA92/N9H20/BSP/Driver/Source/SYS\wb_config.c **** 	outp32(SRAM_DRAMDIVI, u32DramClkDiv);	
 1549              		.loc 1 934 0
 1550 0030 1C3F9FE5 		ldr	r3, .L234+12
 1551 0034 002083E5 		str	r2, [r3]
 935:F:/ARM_Project/W55FA92/N9H20/BSP/Driver/Source/SYS\wb_config.c **** 	outp32(SRAM_UARTPORT, u32UartPort);
 1552              		.loc 1 935 0
 1553 0038 18CF9FE5 		ldr	ip, .L234+16
 1554              	.LVL171:
 1555 003c 183F9FE5 		ldr	r3, .L234+20
 1556 0040 003093E5 		ldr	r3, [r3]
 1557 0044 00308CE5 		str	r3, [ip]
 936:F:/ARM_Project/W55FA92/N9H20/BSP/Driver/Source/SYS\wb_config.c **** 	u32mem_1aaaa8 = inp32(0x1aaaa8);	/* Back up content in address 0x1aaaa8 */ 
 1558              		.loc 1 936 0
 1559 0048 103F9FE5 		ldr	r3, .L234+24
 1560 004c 003093E5 		ldr	r3, [r3]
 1561 0050 18300BE5 		str	r3, [fp, #-24]
 1562              	.LVL172:
 937:F:/ARM_Project/W55FA92/N9H20/BSP/Driver/Source/SYS\wb_config.c **** 	outp32(0x1aaaa8, 0x5555aaaa);
 1563              		.loc 1 937 0
 1564 0054 043F9FE5 		ldr	r3, .L234+24
 1565              	.LVL173:
 1566 0058 98CF9FE5 		ldr	ip, .L234+176
 1567 005c 00C083E5 		str	ip, [r3]
 938:F:/ARM_Project/W55FA92/N9H20/BSP/Driver/Source/SYS\wb_config.c **** 	dbg(inp32(SRAM_UARTPORT), '0' + ((inp32(REG_CHIPCFG)&SDRAMSEL)>>4) );
 1568              		.loc 1 938 0
 1569 0060 0000A0E1 		nop
 1570              	.L134:
 1571              		.loc 1 938 0 is_stmt 0 discriminator 1
 1572 0064 EC3E9FE5 		ldr	r3, .L234+16
 1573 0068 00C093E5 		ldr	ip, [r3]
 1574 006c 8C3F9FE5 		ldr	r3, .L234+184
 1575 0070 03308CE0 		add	r3, ip, r3
 1576 0074 003093E5 		ldr	r3, [r3]
 1577 0078 013503E2 		and	r3, r3, #4194304
 1578 007c 000053E3 		cmp	r3, #0
 1579 0080 F7FFFF0A 		beq	.L134
 1580              		.loc 1 938 0 discriminator 2
 1581 0084 4B32A0E3 		mov	r3, #-1342177276
 1582 0088 003093E5 		ldr	r3, [r3]
 1583 008c 2332A0E1 		lsr	r3, r3, #4
 1584 0090 FF3003E2 		and	r3, r3, #255
 1585 0094 033003E2 		and	r3, r3, #3
 1586 0098 FFC003E2 		and	ip, r3, #255
 1587 009c B43E9FE5 		ldr	r3, .L234+16
 1588 00a0 003093E5 		ldr	r3, [r3]
 1589 00a4 2E3383E2 		add	r3, r3, #-1207959552
 1590 00a8 023983E2 		add	r3, r3, #32768
 1591 00ac 03E0A0E1 		mov	lr, r3
 1592 00b0 30308CE2 		add	r3, ip, #48
 1593 00b4 FF3003E2 		and	r3, r3, #255
 1594 00b8 0030CEE5 		strb	r3, [lr]
 1595 00bc 0000A0E1 		nop
 1596              	.L135:
 1597              		.loc 1 938 0 discriminator 4
 1598 00c0 903E9FE5 		ldr	r3, .L234+16
 1599 00c4 00C093E5 		ldr	ip, [r3]
 1600 00c8 303F9FE5 		ldr	r3, .L234+184
 1601 00cc 03308CE0 		add	r3, ip, r3
 1602 00d0 003093E5 		ldr	r3, [r3]
 1603 00d4 013503E2 		and	r3, r3, #4194304
 1604 00d8 000053E3 		cmp	r3, #0
 1605 00dc F7FFFF0A 		beq	.L135
 1606              		.loc 1 938 0 discriminator 5
 1607 00e0 703E9FE5 		ldr	r3, .L234+16
 1608 00e4 003093E5 		ldr	r3, [r3]
 1609 00e8 2E3383E2 		add	r3, r3, #-1207959552
 1610 00ec 023983E2 		add	r3, r3, #32768
 1611 00f0 0AC0A0E3 		mov	ip, #10
 1612 00f4 00C0C3E5 		strb	ip, [r3]
 1613 00f8 0000A0E1 		nop
 1614              	.L136:
 1615              		.loc 1 938 0 discriminator 7
 1616 00fc 543E9FE5 		ldr	r3, .L234+16
 1617 0100 00C093E5 		ldr	ip, [r3]
 1618 0104 F43E9FE5 		ldr	r3, .L234+184
 1619 0108 03308CE0 		add	r3, ip, r3
 1620 010c 003093E5 		ldr	r3, [r3]
 1621 0110 013503E2 		and	r3, r3, #4194304
 1622 0114 000053E3 		cmp	r3, #0
 1623 0118 F7FFFF0A 		beq	.L136
 939:F:/ARM_Project/W55FA92/N9H20/BSP/Driver/Source/SYS\wb_config.c ****     outp32(SRAM_MEMTYPE, ((inp32(REG_CHIPCFG)&SDRAMSEL)>>4) );
 1624              		.loc 1 939 0 is_stmt 1
 1625 011c 4B32A0E3 		mov	r3, #-1342177276
 1626 0120 003093E5 		ldr	r3, [r3]
 1627 0124 2332A0E1 		lsr	r3, r3, #4
 1628 0128 B8CE9FE5 		ldr	ip, .L234+160
 1629 012c 033003E2 		and	r3, r3, #3
 1630 0130 00308CE5 		str	r3, [ip]
 940:F:/ARM_Project/W55FA92/N9H20/BSP/Driver/Source/SYS\wb_config.c **** 	// Very important: Disable chip DLL first with 100us delay for calibration stable **********
 941:F:/ARM_Project/W55FA92/N9H20/BSP/Driver/Source/SYS\wb_config.c **** 	outp32(REG_DLLMODE,  (inp32(REG_DLLMODE_R)&~0x8) | 0x10);	// Disable DLL of chip
 1631              		.loc 1 941 0
 1632 0134 983E9FE5 		ldr	r3, .L234+140
 1633 0138 003093E5 		ldr	r3, [r3]
 1634 013c 1830C3E3 		bic	r3, r3, #24
 1635 0140 90CE9FE5 		ldr	ip, .L234+144
 1636 0144 103083E3 		orr	r3, r3, #16
 1637 0148 00308CE5 		str	r3, [ip]
 942:F:/ARM_Project/W55FA92/N9H20/BSP/Driver/Source/SYS\wb_config.c **** 
 943:F:/ARM_Project/W55FA92/N9H20/BSP/Driver/Source/SYS\wb_config.c **** 	//for(dly=0; dly<0x2800;dly++);
 944:F:/ARM_Project/W55FA92/N9H20/BSP/Driver/Source/SYS\wb_config.c **** #if defined (__GNUC__)
 945:F:/ARM_Project/W55FA92/N9H20/BSP/Driver/Source/SYS\wb_config.c **** 	__asm
 1638              		.loc 1 945 0
 1639              		.syntax divided
 1640              	@ 945 "F:/ARM_Project/W55FA92/N9H20/BSP/Driver/Source/SYS/wb_config.c" 1
 1641 014c 024CA0E3 		  mov 	r4, #0x200     
 1642 0150 0050A0E3 	  mov  r5, #0         
 1643 0154 0160A0E3 	  mov  r6, #1         
 1644              	 DRAM_A:	           
 1645 0158 065085E0 	  add  r5, r5, r6     
 1646 015c 040055E1 	  cmp 	r5, r4         
 1647 0160 FCFFFF1A 	  bne  DRAM_A         
 1648              	
 1649              	@ 0 "" 2
 946:F:/ARM_Project/W55FA92/N9H20/BSP/Driver/Source/SYS\wb_config.c ****     (
 947:F:/ARM_Project/W55FA92/N9H20/BSP/Driver/Source/SYS\wb_config.c ****         "  mov 	%0, #0x200     \n"
 948:F:/ARM_Project/W55FA92/N9H20/BSP/Driver/Source/SYS\wb_config.c ****         "  mov  %1, #0         \n"
 949:F:/ARM_Project/W55FA92/N9H20/BSP/Driver/Source/SYS\wb_config.c ****         "  mov  %2, #1         \n"
 950:F:/ARM_Project/W55FA92/N9H20/BSP/Driver/Source/SYS\wb_config.c ****         " DRAM_A:	           \n"
 951:F:/ARM_Project/W55FA92/N9H20/BSP/Driver/Source/SYS\wb_config.c ****         "  add  %1, %1, %2     \n"
 952:F:/ARM_Project/W55FA92/N9H20/BSP/Driver/Source/SYS\wb_config.c ****         "  cmp 	%1, %0         \n"
 953:F:/ARM_Project/W55FA92/N9H20/BSP/Driver/Source/SYS\wb_config.c ****         "  bne  DRAM_A         \n"
 954:F:/ARM_Project/W55FA92/N9H20/BSP/Driver/Source/SYS\wb_config.c ****     	: : "r"(reg2), "r"(reg1), "r"(reg0) :"memory"
 955:F:/ARM_Project/W55FA92/N9H20/BSP/Driver/Source/SYS\wb_config.c ****     );
 956:F:/ARM_Project/W55FA92/N9H20/BSP/Driver/Source/SYS\wb_config.c **** #else
 957:F:/ARM_Project/W55FA92/N9H20/BSP/Driver/Source/SYS\wb_config.c **** 	__asm
 958:F:/ARM_Project/W55FA92/N9H20/BSP/Driver/Source/SYS\wb_config.c **** 	{
 959:F:/ARM_Project/W55FA92/N9H20/BSP/Driver/Source/SYS\wb_config.c **** 		mov     reg2, #0x200
 960:F:/ARM_Project/W55FA92/N9H20/BSP/Driver/Source/SYS\wb_config.c **** 		mov     reg1, #0
 961:F:/ARM_Project/W55FA92/N9H20/BSP/Driver/Source/SYS\wb_config.c **** 		mov     reg0, #1
 962:F:/ARM_Project/W55FA92/N9H20/BSP/Driver/Source/SYS\wb_config.c **** DRAM_A:	add     reg1, reg1, reg0
 963:F:/ARM_Project/W55FA92/N9H20/BSP/Driver/Source/SYS\wb_config.c **** 		cmp     reg1, reg2
 964:F:/ARM_Project/W55FA92/N9H20/BSP/Driver/Source/SYS\wb_config.c **** 		bne     DRAM_A
 965:F:/ARM_Project/W55FA92/N9H20/BSP/Driver/Source/SYS\wb_config.c **** 	}
 966:F:/ARM_Project/W55FA92/N9H20/BSP/Driver/Source/SYS\wb_config.c **** #endif		
 967:F:/ARM_Project/W55FA92/N9H20/BSP/Driver/Source/SYS\wb_config.c **** 
 968:F:/ARM_Project/W55FA92/N9H20/BSP/Driver/Source/SYS\wb_config.c **** 	
 969:F:/ARM_Project/W55FA92/N9H20/BSP/Driver/Source/SYS\wb_config.c **** #if 0			
 970:F:/ARM_Project/W55FA92/N9H20/BSP/Driver/Source/SYS\wb_config.c **** 	dly = u32DramClkDiv;
 971:F:/ARM_Project/W55FA92/N9H20/BSP/Driver/Source/SYS\wb_config.c **** 	u32DramClkDiv = dly;
 972:F:/ARM_Project/W55FA92/N9H20/BSP/Driver/Source/SYS\wb_config.c **** 		
 973:F:/ARM_Project/W55FA92/N9H20/BSP/Driver/Source/SYS\wb_config.c **** 	dbg(u32LocalUartVar, '0'+(u32DramClkDiv&0x7));
 974:F:/ARM_Project/W55FA92/N9H20/BSP/Driver/Source/SYS\wb_config.c **** 
 975:F:/ARM_Project/W55FA92/N9H20/BSP/Driver/Source/SYS\wb_config.c **** 	dly = u32DramFreq;
 976:F:/ARM_Project/W55FA92/N9H20/BSP/Driver/Source/SYS\wb_config.c **** 	u32DramFreq = dly;
 977:F:/ARM_Project/W55FA92/N9H20/BSP/Driver/Source/SYS\wb_config.c **** 		
 978:F:/ARM_Project/W55FA92/N9H20/BSP/Driver/Source/SYS\wb_config.c **** 	u32REG_CLKDIV0 = inp32(REG_CLKDIV0);
 979:F:/ARM_Project/W55FA92/N9H20/BSP/Driver/Source/SYS\wb_config.c **** #else
 980:F:/ARM_Project/W55FA92/N9H20/BSP/Driver/Source/SYS\wb_config.c **** 	#if 0	
 981:F:/ARM_Project/W55FA92/N9H20/BSP/Driver/Source/SYS\wb_config.c **** 	dbg(u32LocalUartVar, '0'+(u32DramClkDiv&0x7));		
 982:F:/ARM_Project/W55FA92/N9H20/BSP/Driver/Source/SYS\wb_config.c **** 	#else
 983:F:/ARM_Project/W55FA92/N9H20/BSP/Driver/Source/SYS\wb_config.c **** 	dbg(inp32(SRAM_UARTPORT), '0'+(inp32(SRAM_DRAMDIVI)&0x7));
 1650              		.loc 1 983 0
 1651              		.arm
 1652              		.syntax unified
 1653 0164 0000A0E1 		nop
 1654              	.L137:
 1655              		.loc 1 983 0 is_stmt 0 discriminator 1
 1656 0168 E83D9FE5 		ldr	r3, .L234+16
 1657 016c 00C093E5 		ldr	ip, [r3]
 1658 0170 883E9FE5 		ldr	r3, .L234+184
 1659 0174 03308CE0 		add	r3, ip, r3
 1660 0178 003093E5 		ldr	r3, [r3]
 1661 017c 013503E2 		and	r3, r3, #4194304
 1662 0180 000053E3 		cmp	r3, #0
 1663 0184 F7FFFF0A 		beq	.L137
 1664              		.loc 1 983 0 discriminator 2
 1665 0188 C43D9FE5 		ldr	r3, .L234+12
 1666 018c 003093E5 		ldr	r3, [r3]
 1667 0190 FF3003E2 		and	r3, r3, #255
 1668 0194 073003E2 		and	r3, r3, #7
 1669 0198 FFC003E2 		and	ip, r3, #255
 1670 019c B43D9FE5 		ldr	r3, .L234+16
 1671 01a0 003093E5 		ldr	r3, [r3]
 1672 01a4 2E3383E2 		add	r3, r3, #-1207959552
 1673 01a8 023983E2 		add	r3, r3, #32768
 1674 01ac 03E0A0E1 		mov	lr, r3
 1675 01b0 30308CE2 		add	r3, ip, #48
 1676 01b4 FF3003E2 		and	r3, r3, #255
 1677 01b8 0030CEE5 		strb	r3, [lr]
 1678 01bc 0000A0E1 		nop
 1679              	.L138:
 1680              		.loc 1 983 0 discriminator 4
 1681 01c0 903D9FE5 		ldr	r3, .L234+16
 1682 01c4 00C093E5 		ldr	ip, [r3]
 1683 01c8 303E9FE5 		ldr	r3, .L234+184
 1684 01cc 03308CE0 		add	r3, ip, r3
 1685 01d0 003093E5 		ldr	r3, [r3]
 1686 01d4 013503E2 		and	r3, r3, #4194304
 1687 01d8 000053E3 		cmp	r3, #0
 1688 01dc F7FFFF0A 		beq	.L138
 1689              		.loc 1 983 0 discriminator 5
 1690 01e0 703D9FE5 		ldr	r3, .L234+16
 1691 01e4 003093E5 		ldr	r3, [r3]
 1692 01e8 2E3383E2 		add	r3, r3, #-1207959552
 1693 01ec 023983E2 		add	r3, r3, #32768
 1694 01f0 0AC0A0E3 		mov	ip, #10
 1695 01f4 00C0C3E5 		strb	ip, [r3]
 1696 01f8 0000A0E1 		nop
 1697              	.L139:
 1698              		.loc 1 983 0 discriminator 7
 1699 01fc 543D9FE5 		ldr	r3, .L234+16
 1700 0200 00C093E5 		ldr	ip, [r3]
 1701 0204 F43D9FE5 		ldr	r3, .L234+184
 1702 0208 03308CE0 		add	r3, ip, r3
 1703 020c 003093E5 		ldr	r3, [r3]
 1704 0210 013503E2 		and	r3, r3, #4194304
 1705 0214 000053E3 		cmp	r3, #0
 1706 0218 F7FFFF0A 		beq	.L139
 984:F:/ARM_Project/W55FA92/N9H20/BSP/Driver/Source/SYS\wb_config.c **** 	#endif		
 985:F:/ARM_Project/W55FA92/N9H20/BSP/Driver/Source/SYS\wb_config.c **** 	outp32(SRAM_REG_CLKDIV0, inp32(REG_CLKDIV0));		
 1707              		.loc 1 985 0 is_stmt 1
 1708 021c 403D9FE5 		ldr	r3, .L234+28
 1709 0220 40CD9FE5 		ldr	ip, .L234+32
 1710 0224 003093E5 		ldr	r3, [r3]
 1711 0228 00308CE5 		str	r3, [ip]
 986:F:/ARM_Project/W55FA92/N9H20/BSP/Driver/Source/SYS\wb_config.c **** #endif		
 987:F:/ARM_Project/W55FA92/N9H20/BSP/Driver/Source/SYS\wb_config.c **** 		
 988:F:/ARM_Project/W55FA92/N9H20/BSP/Driver/Source/SYS\wb_config.c **** 	/*********** DRAM enter self refresh mode ************/
 989:F:/ARM_Project/W55FA92/N9H20/BSP/Driver/Source/SYS\wb_config.c **** 	outp32(REG_SDCMD, (inp32(REG_SDCMD) & ~0x20) | 0x10);
 1712              		.loc 1 989 0
 1713 022c 383D9FE5 		ldr	r3, .L234+36
 1714 0230 003093E5 		ldr	r3, [r3]
 1715 0234 3030C3E3 		bic	r3, r3, #48
 1716 0238 2CCD9FE5 		ldr	ip, .L234+36
 1717 023c 103083E3 		orr	r3, r3, #16
 1718 0240 00308CE5 		str	r3, [ip]
 990:F:/ARM_Project/W55FA92/N9H20/BSP/Driver/Source/SYS\wb_config.c **** 	/*********** DRAM enter self refresh mode ************/
 991:F:/ARM_Project/W55FA92/N9H20/BSP/Driver/Source/SYS\wb_config.c **** 	
 992:F:/ARM_Project/W55FA92/N9H20/BSP/Driver/Source/SYS\wb_config.c **** #if 0		
 993:F:/ARM_Project/W55FA92/N9H20/BSP/Driver/Source/SYS\wb_config.c **** 	for(dly=0; dly<100;dly++);
 994:F:/ARM_Project/W55FA92/N9H20/BSP/Driver/Source/SYS\wb_config.c **** #else	
 995:F:/ARM_Project/W55FA92/N9H20/BSP/Driver/Source/SYS\wb_config.c **** #ifdef __GNUC__
 996:F:/ARM_Project/W55FA92/N9H20/BSP/Driver/Source/SYS\wb_config.c **** 	__asm
 1719              		.loc 1 996 0
 1720              		.syntax divided
 1721              	@ 996 "F:/ARM_Project/W55FA92/N9H20/BSP/Driver/Source/SYS/wb_config.c" 1
 1722 0244 014CA0E3 		  mov 	r4, #0x100    
 1723 0248 0050A0E3 	  mov  r5, #0         
 1724 024c 0160A0E3 	  mov  r6, #1         
 1725              	 DRAM_S0:	           
 1726 0250 065085E0 	  add  r5, r5, r6     
 1727 0254 040055E1 	  cmp 	r5, r4         
 1728 0258 FCFFFF1A 	  bne  DRAM_S0        
 1729              	
 1730              	@ 0 "" 2
 997:F:/ARM_Project/W55FA92/N9H20/BSP/Driver/Source/SYS\wb_config.c ****     (
 998:F:/ARM_Project/W55FA92/N9H20/BSP/Driver/Source/SYS\wb_config.c ****         "  mov 	%0, #0x100    \n"
 999:F:/ARM_Project/W55FA92/N9H20/BSP/Driver/Source/SYS\wb_config.c ****         "  mov  %1, #0         \n"
1000:F:/ARM_Project/W55FA92/N9H20/BSP/Driver/Source/SYS\wb_config.c ****         "  mov  %2, #1         \n"
1001:F:/ARM_Project/W55FA92/N9H20/BSP/Driver/Source/SYS\wb_config.c ****         " DRAM_S0:	           \n"
1002:F:/ARM_Project/W55FA92/N9H20/BSP/Driver/Source/SYS\wb_config.c ****         "  add  %1, %1, %2     \n"
1003:F:/ARM_Project/W55FA92/N9H20/BSP/Driver/Source/SYS\wb_config.c ****         "  cmp 	%1, %0         \n"
1004:F:/ARM_Project/W55FA92/N9H20/BSP/Driver/Source/SYS\wb_config.c ****         "  bne  DRAM_S0        \n"
1005:F:/ARM_Project/W55FA92/N9H20/BSP/Driver/Source/SYS\wb_config.c ****     	: : "r"(reg2), "r"(reg1), "r"(reg0) :"memory"
1006:F:/ARM_Project/W55FA92/N9H20/BSP/Driver/Source/SYS\wb_config.c ****     );
1007:F:/ARM_Project/W55FA92/N9H20/BSP/Driver/Source/SYS\wb_config.c **** #else
1008:F:/ARM_Project/W55FA92/N9H20/BSP/Driver/Source/SYS\wb_config.c **** 	__asm
1009:F:/ARM_Project/W55FA92/N9H20/BSP/Driver/Source/SYS\wb_config.c **** 	{
1010:F:/ARM_Project/W55FA92/N9H20/BSP/Driver/Source/SYS\wb_config.c **** 		mov     reg2, #0x100
1011:F:/ARM_Project/W55FA92/N9H20/BSP/Driver/Source/SYS\wb_config.c **** 		mov		reg1, #0
1012:F:/ARM_Project/W55FA92/N9H20/BSP/Driver/Source/SYS\wb_config.c **** 		mov		reg0, #1
1013:F:/ARM_Project/W55FA92/N9H20/BSP/Driver/Source/SYS\wb_config.c **** DRAM_S0:	
1014:F:/ARM_Project/W55FA92/N9H20/BSP/Driver/Source/SYS\wb_config.c **** 		add		reg1, reg1, reg0
1015:F:/ARM_Project/W55FA92/N9H20/BSP/Driver/Source/SYS\wb_config.c **** 		cmp		reg1, reg2
1016:F:/ARM_Project/W55FA92/N9H20/BSP/Driver/Source/SYS\wb_config.c **** 		bne		DRAM_S0
1017:F:/ARM_Project/W55FA92/N9H20/BSP/Driver/Source/SYS\wb_config.c **** 	}	
1018:F:/ARM_Project/W55FA92/N9H20/BSP/Driver/Source/SYS\wb_config.c **** #endif		
1019:F:/ARM_Project/W55FA92/N9H20/BSP/Driver/Source/SYS\wb_config.c **** #endif		
1020:F:/ARM_Project/W55FA92/N9H20/BSP/Driver/Source/SYS\wb_config.c **** 		
1021:F:/ARM_Project/W55FA92/N9H20/BSP/Driver/Source/SYS\wb_config.c **** #if 0		
1022:F:/ARM_Project/W55FA92/N9H20/BSP/Driver/Source/SYS\wb_config.c **** 	if(u32DramFreq>=96000000){
1023:F:/ARM_Project/W55FA92/N9H20/BSP/Driver/Source/SYS\wb_config.c **** 		dbg(u32LocalUartVar, 'H');
1024:F:/ARM_Project/W55FA92/N9H20/BSP/Driver/Source/SYS\wb_config.c **** 	}else{
1025:F:/ARM_Project/W55FA92/N9H20/BSP/Driver/Source/SYS\wb_config.c **** 		dbg(u32LocalUartVar, 'L');	
1026:F:/ARM_Project/W55FA92/N9H20/BSP/Driver/Source/SYS\wb_config.c **** 	}
1027:F:/ARM_Project/W55FA92/N9H20/BSP/Driver/Source/SYS\wb_config.c **** #else
1028:F:/ARM_Project/W55FA92/N9H20/BSP/Driver/Source/SYS\wb_config.c **** 	if(inp32(SRAM_DRAMFREQ)>=96000000){
 1731              		.loc 1 1028 0
 1732              		.arm
 1733              		.syntax unified
 1734 025c EC3C9FE5 		ldr	r3, .L234+8
 1735 0260 003093E5 		ldr	r3, [r3]
 1736 0264 04CD9FE5 		ldr	ip, .L234+40
 1737 0268 0C0053E1 		cmp	r3, ip
 1738 026c 2700009A 		bls	.L227
1029:F:/ARM_Project/W55FA92/N9H20/BSP/Driver/Source/SYS\wb_config.c **** 		dbg(inp32(SRAM_UARTPORT), 'H');
 1739              		.loc 1 1029 0
 1740 0270 0000A0E1 		nop
 1741              	.L141:
 1742              		.loc 1 1029 0 is_stmt 0 discriminator 1
 1743 0274 DC3C9FE5 		ldr	r3, .L234+16
 1744 0278 00C093E5 		ldr	ip, [r3]
 1745 027c 7C3D9FE5 		ldr	r3, .L234+184
 1746 0280 03308CE0 		add	r3, ip, r3
 1747 0284 003093E5 		ldr	r3, [r3]
 1748 0288 013503E2 		and	r3, r3, #4194304
 1749 028c 000053E3 		cmp	r3, #0
 1750 0290 F7FFFF0A 		beq	.L141
 1751              		.loc 1 1029 0 discriminator 2
 1752 0294 BC3C9FE5 		ldr	r3, .L234+16
 1753 0298 003093E5 		ldr	r3, [r3]
 1754 029c 2E3383E2 		add	r3, r3, #-1207959552
 1755 02a0 023983E2 		add	r3, r3, #32768
 1756 02a4 48C0A0E3 		mov	ip, #72
 1757 02a8 00C0C3E5 		strb	ip, [r3]
 1758 02ac 0000A0E1 		nop
 1759              	.L142:
 1760              		.loc 1 1029 0 discriminator 4
 1761 02b0 A03C9FE5 		ldr	r3, .L234+16
 1762 02b4 00C093E5 		ldr	ip, [r3]
 1763 02b8 403D9FE5 		ldr	r3, .L234+184
 1764 02bc 03308CE0 		add	r3, ip, r3
 1765 02c0 003093E5 		ldr	r3, [r3]
 1766 02c4 013503E2 		and	r3, r3, #4194304
 1767 02c8 000053E3 		cmp	r3, #0
 1768 02cc F7FFFF0A 		beq	.L142
 1769              		.loc 1 1029 0 discriminator 5
 1770 02d0 803C9FE5 		ldr	r3, .L234+16
 1771 02d4 003093E5 		ldr	r3, [r3]
 1772 02d8 2E3383E2 		add	r3, r3, #-1207959552
 1773 02dc 023983E2 		add	r3, r3, #32768
 1774 02e0 0AC0A0E3 		mov	ip, #10
 1775 02e4 00C0C3E5 		strb	ip, [r3]
 1776 02e8 0000A0E1 		nop
 1777              	.L143:
 1778              		.loc 1 1029 0 discriminator 7
 1779 02ec 643C9FE5 		ldr	r3, .L234+16
 1780 02f0 00C093E5 		ldr	ip, [r3]
 1781 02f4 043D9FE5 		ldr	r3, .L234+184
 1782 02f8 03308CE0 		add	r3, ip, r3
 1783 02fc 003093E5 		ldr	r3, [r3]
 1784 0300 013503E2 		and	r3, r3, #4194304
 1785 0304 000053E3 		cmp	r3, #0
 1786 0308 F7FFFF0A 		beq	.L143
 1787 030c 260000EA 		b	.L144
 1788              	.L227:
1030:F:/ARM_Project/W55FA92/N9H20/BSP/Driver/Source/SYS\wb_config.c **** 		//while(1)
1031:F:/ARM_Project/W55FA92/N9H20/BSP/Driver/Source/SYS\wb_config.c **** 			//dbg(inp32(SRAM_UARTPORT), 'H');
1032:F:/ARM_Project/W55FA92/N9H20/BSP/Driver/Source/SYS\wb_config.c **** 	}else{
1033:F:/ARM_Project/W55FA92/N9H20/BSP/Driver/Source/SYS\wb_config.c **** 		dbg(inp32(SRAM_UARTPORT), 'L');	
 1789              		.loc 1 1033 0 is_stmt 1
 1790 0310 0000A0E1 		nop
 1791              	.L145:
 1792              		.loc 1 1033 0 is_stmt 0 discriminator 1
 1793 0314 3C3C9FE5 		ldr	r3, .L234+16
 1794 0318 00C093E5 		ldr	ip, [r3]
 1795 031c DC3C9FE5 		ldr	r3, .L234+184
 1796 0320 03308CE0 		add	r3, ip, r3
 1797 0324 003093E5 		ldr	r3, [r3]
 1798 0328 013503E2 		and	r3, r3, #4194304
 1799 032c 000053E3 		cmp	r3, #0
 1800 0330 F7FFFF0A 		beq	.L145
 1801              		.loc 1 1033 0 discriminator 2
 1802 0334 1C3C9FE5 		ldr	r3, .L234+16
 1803 0338 003093E5 		ldr	r3, [r3]
 1804 033c 2E3383E2 		add	r3, r3, #-1207959552
 1805 0340 023983E2 		add	r3, r3, #32768
 1806 0344 4CC0A0E3 		mov	ip, #76
 1807 0348 00C0C3E5 		strb	ip, [r3]
 1808 034c 0000A0E1 		nop
 1809              	.L146:
 1810              		.loc 1 1033 0 discriminator 4
 1811 0350 003C9FE5 		ldr	r3, .L234+16
 1812 0354 00C093E5 		ldr	ip, [r3]
 1813 0358 A03C9FE5 		ldr	r3, .L234+184
 1814 035c 03308CE0 		add	r3, ip, r3
 1815 0360 003093E5 		ldr	r3, [r3]
 1816 0364 013503E2 		and	r3, r3, #4194304
 1817 0368 000053E3 		cmp	r3, #0
 1818 036c F7FFFF0A 		beq	.L146
 1819              		.loc 1 1033 0 discriminator 5
 1820 0370 E03B9FE5 		ldr	r3, .L234+16
 1821 0374 003093E5 		ldr	r3, [r3]
 1822 0378 2E3383E2 		add	r3, r3, #-1207959552
 1823 037c 023983E2 		add	r3, r3, #32768
 1824 0380 0AC0A0E3 		mov	ip, #10
 1825 0384 00C0C3E5 		strb	ip, [r3]
 1826 0388 0000A0E1 		nop
 1827              	.L147:
 1828              		.loc 1 1033 0 discriminator 7
 1829 038c C43B9FE5 		ldr	r3, .L234+16
 1830 0390 00C093E5 		ldr	ip, [r3]
 1831 0394 643C9FE5 		ldr	r3, .L234+184
 1832 0398 03308CE0 		add	r3, ip, r3
 1833 039c 003093E5 		ldr	r3, [r3]
 1834 03a0 013503E2 		and	r3, r3, #4194304
 1835 03a4 000053E3 		cmp	r3, #0
 1836 03a8 F7FFFF0A 		beq	.L147
 1837              	.L144:
1034:F:/ARM_Project/W55FA92/N9H20/BSP/Driver/Source/SYS\wb_config.c **** 	}
1035:F:/ARM_Project/W55FA92/N9H20/BSP/Driver/Source/SYS\wb_config.c **** #endif	
1036:F:/ARM_Project/W55FA92/N9H20/BSP/Driver/Source/SYS\wb_config.c **** 
1037:F:/ARM_Project/W55FA92/N9H20/BSP/Driver/Source/SYS\wb_config.c **** 	outp32(REG_DLLMODE,  (inp32(REG_DLLMODE_R)&~0x8) | 0x10);	// Disable chip's DLL 
 1838              		.loc 1 1037 0 is_stmt 1
 1839 03ac 203C9FE5 		ldr	r3, .L234+140
 1840 03b0 003093E5 		ldr	r3, [r3]
 1841 03b4 1830C3E3 		bic	r3, r3, #24
 1842 03b8 18CC9FE5 		ldr	ip, .L234+144
 1843 03bc 103083E3 		orr	r3, r3, #16
 1844 03c0 00308CE5 		str	r3, [ip]
1038:F:/ARM_Project/W55FA92/N9H20/BSP/Driver/Source/SYS\wb_config.c **** 	
1039:F:/ARM_Project/W55FA92/N9H20/BSP/Driver/Source/SYS\wb_config.c **** 
1040:F:/ARM_Project/W55FA92/N9H20/BSP/Driver/Source/SYS\wb_config.c **** 
1041:F:/ARM_Project/W55FA92/N9H20/BSP/Driver/Source/SYS\wb_config.c **** 	/* Switch system clock to external clock and divider to 0*/	/* Due to delay time. Switch to extern
1042:F:/ARM_Project/W55FA92/N9H20/BSP/Driver/Source/SYS\wb_config.c **** 	outp32(REG_CLKDIV0, (inp32(REG_CLKDIV0) & ~(SYSTEM_N1 | SYSTEM_S | SYSTEM_N0)) );  //HCLK = 6MHz.	
 1845              		.loc 1 1042 0
 1846 03c4 983B9FE5 		ldr	r3, .L234+28
 1847 03c8 003093E5 		ldr	r3, [r3]
 1848 03cc 90CB9FE5 		ldr	ip, .L234+28
 1849 03d0 F13EC3E3 		bic	r3, r3, #3856
 1850 03d4 0F30C3E3 		bic	r3, r3, #15
 1851 03d8 00308CE5 		str	r3, [ip]
1043:F:/ARM_Project/W55FA92/N9H20/BSP/Driver/Source/SYS\wb_config.c **** 
1044:F:/ARM_Project/W55FA92/N9H20/BSP/Driver/Source/SYS\wb_config.c **** 	/* Switch DRAM clock to external clock and divider to 0 */
1045:F:/ARM_Project/W55FA92/N9H20/BSP/Driver/Source/SYS\wb_config.c **** 	outp32(REG_CLKDIV7, (inp32(REG_CLKDIV7) & ~(DRAM_N1 | DRAM_S | DRAM_N0)) );  		//DRAM = 6MHz.
 1852              		.loc 1 1045 0
 1853 03dc 903B9FE5 		ldr	r3, .L234+44
 1854 03e0 003093E5 		ldr	r3, [r3]
 1855 03e4 88CB9FE5 		ldr	ip, .L234+44
 1856 03e8 FF30C3E3 		bic	r3, r3, #255
 1857 03ec 00308CE5 		str	r3, [ip]
1046:F:/ARM_Project/W55FA92/N9H20/BSP/Driver/Source/SYS\wb_config.c **** 	
1047:F:/ARM_Project/W55FA92/N9H20/BSP/Driver/Source/SYS\wb_config.c **** 	
1048:F:/ARM_Project/W55FA92/N9H20/BSP/Driver/Source/SYS\wb_config.c **** 	//Set Pll clock
1049:F:/ARM_Project/W55FA92/N9H20/BSP/Driver/Source/SYS\wb_config.c **** 	if(eSrcClk == eSYS_MPLL){
 1858              		.loc 1 1049 0
 1859 03f0 010050E3 		cmp	r0, #1
 1860 03f4 0800001A 		bne	.L148
1050:F:/ARM_Project/W55FA92/N9H20/BSP/Driver/Source/SYS\wb_config.c **** 		outp32(REG_MPLLCON, u32PllReg);
 1861              		.loc 1 1050 0
 1862 03f8 783B9FE5 		ldr	r3, .L234+48
 1863 03fc 001083E5 		str	r1, [r3]
1051:F:/ARM_Project/W55FA92/N9H20/BSP/Driver/Source/SYS\wb_config.c **** 		while((inp32(REG_POR_LVRD)&MPLL_LKDT)==0);	
 1864              		.loc 1 1051 0
 1865 0400 0000A0E1 		nop
 1866              	.L149:
 1867              		.loc 1 1051 0 is_stmt 0 discriminator 1
 1868 0404 703B9FE5 		ldr	r3, .L234+52
 1869 0408 003093E5 		ldr	r3, [r3]
 1870 040c 803003E2 		and	r3, r3, #128
 1871 0410 000053E3 		cmp	r3, #0
 1872 0414 FAFFFF0A 		beq	.L149
 1873 0418 140000EA 		b	.L150
 1874              	.L148:
1052:F:/ARM_Project/W55FA92/N9H20/BSP/Driver/Source/SYS\wb_config.c **** 	}	
1053:F:/ARM_Project/W55FA92/N9H20/BSP/Driver/Source/SYS\wb_config.c **** 	else if(eSrcClk == eSYS_APLL){
 1875              		.loc 1 1053 0 is_stmt 1
 1876 041c 020050E3 		cmp	r0, #2
 1877 0420 0800001A 		bne	.L151
1054:F:/ARM_Project/W55FA92/N9H20/BSP/Driver/Source/SYS\wb_config.c **** 		outp32(REG_APLLCON, u32PllReg);	
 1878              		.loc 1 1054 0
 1879 0424 543B9FE5 		ldr	r3, .L234+56
 1880 0428 001083E5 		str	r1, [r3]
1055:F:/ARM_Project/W55FA92/N9H20/BSP/Driver/Source/SYS\wb_config.c **** 		while((inp32(REG_POR_LVRD)&APLL_LKDT)==0);	
 1881              		.loc 1 1055 0
 1882 042c 0000A0E1 		nop
 1883              	.L152:
 1884              		.loc 1 1055 0 is_stmt 0 discriminator 1
 1885 0430 443B9FE5 		ldr	r3, .L234+52
 1886 0434 003093E5 		ldr	r3, [r3]
 1887 0438 203003E2 		and	r3, r3, #32
 1888 043c 000053E3 		cmp	r3, #0
 1889 0440 FAFFFF0A 		beq	.L152
 1890 0444 090000EA 		b	.L150
 1891              	.L151:
1056:F:/ARM_Project/W55FA92/N9H20/BSP/Driver/Source/SYS\wb_config.c **** 	}	
1057:F:/ARM_Project/W55FA92/N9H20/BSP/Driver/Source/SYS\wb_config.c **** 	else if(eSrcClk == eSYS_UPLL){
 1892              		.loc 1 1057 0 is_stmt 1
 1893 0448 030050E3 		cmp	r0, #3
 1894 044c 0700001A 		bne	.L150
1058:F:/ARM_Project/W55FA92/N9H20/BSP/Driver/Source/SYS\wb_config.c **** 		outp32(REG_UPLLCON, u32PllReg);
 1895              		.loc 1 1058 0
 1896 0450 2C3B9FE5 		ldr	r3, .L234+60
 1897 0454 001083E5 		str	r1, [r3]
1059:F:/ARM_Project/W55FA92/N9H20/BSP/Driver/Source/SYS\wb_config.c **** 		while((inp32(REG_POR_LVRD)&UPLL_LKDT)==0);
 1898              		.loc 1 1059 0
 1899 0458 0000A0E1 		nop
 1900              	.L153:
 1901              		.loc 1 1059 0 is_stmt 0 discriminator 1
 1902 045c 183B9FE5 		ldr	r3, .L234+52
 1903 0460 003093E5 		ldr	r3, [r3]
 1904 0464 403003E2 		and	r3, r3, #64
 1905 0468 000053E3 		cmp	r3, #0
 1906 046c FAFFFF0A 		beq	.L153
 1907              	.L150:
1060:F:/ARM_Project/W55FA92/N9H20/BSP/Driver/Source/SYS\wb_config.c **** 	}	
1061:F:/ARM_Project/W55FA92/N9H20/BSP/Driver/Source/SYS\wb_config.c **** 	
1062:F:/ARM_Project/W55FA92/N9H20/BSP/Driver/Source/SYS\wb_config.c **** 
1063:F:/ARM_Project/W55FA92/N9H20/BSP/Driver/Source/SYS\wb_config.c **** 
1064:F:/ARM_Project/W55FA92/N9H20/BSP/Driver/Source/SYS\wb_config.c **** 	//Set DRAM clock divider and source 
1065:F:/ARM_Project/W55FA92/N9H20/BSP/Driver/Source/SYS\wb_config.c **** 	outp32(REG_CLKDIV7,  u32DramClkDiv);  
 1908              		.loc 1 1065 0 is_stmt 1
 1909 0470 FC3A9FE5 		ldr	r3, .L234+44
 1910 0474 002083E5 		str	r2, [r3]
1066:F:/ARM_Project/W55FA92/N9H20/BSP/Driver/Source/SYS\wb_config.c **** #if 0
1067:F:/ARM_Project/W55FA92/N9H20/BSP/Driver/Source/SYS\wb_config.c **** 	for(dly=0; dly<10;dly++);
1068:F:/ARM_Project/W55FA92/N9H20/BSP/Driver/Source/SYS\wb_config.c **** #else
1069:F:/ARM_Project/W55FA92/N9H20/BSP/Driver/Source/SYS\wb_config.c **** #ifdef __GNUC__
1070:F:/ARM_Project/W55FA92/N9H20/BSP/Driver/Source/SYS\wb_config.c **** 	__asm
 1911              		.loc 1 1070 0
 1912              		.syntax divided
 1913              	@ 1070 "F:/ARM_Project/W55FA92/N9H20/BSP/Driver/Source/SYS/wb_config.c" 1
 1914 0478 FA4FA0E3 		  mov 	r4, #1000      
 1915 047c 0050A0E3 	  mov  r5, #0         
 1916 0480 0160A0E3 	  mov  r6, #1         
 1917              	 DRAM_S1:	           
 1918 0484 065085E0 	  add  r5, r5, r6     
 1919 0488 040055E1 	  cmp 	r5, r4         
 1920 048c FCFFFF1A 	  bne  DRAM_S1        
 1921              	
 1922              	@ 0 "" 2
1071:F:/ARM_Project/W55FA92/N9H20/BSP/Driver/Source/SYS\wb_config.c ****     (
1072:F:/ARM_Project/W55FA92/N9H20/BSP/Driver/Source/SYS\wb_config.c ****         "  mov 	%0, #1000      \n"
1073:F:/ARM_Project/W55FA92/N9H20/BSP/Driver/Source/SYS\wb_config.c ****         "  mov  %1, #0         \n"
1074:F:/ARM_Project/W55FA92/N9H20/BSP/Driver/Source/SYS\wb_config.c ****         "  mov  %2, #1         \n"
1075:F:/ARM_Project/W55FA92/N9H20/BSP/Driver/Source/SYS\wb_config.c ****         " DRAM_S1:	           \n"
1076:F:/ARM_Project/W55FA92/N9H20/BSP/Driver/Source/SYS\wb_config.c ****         "  add  %1, %1, %2     \n"
1077:F:/ARM_Project/W55FA92/N9H20/BSP/Driver/Source/SYS\wb_config.c ****         "  cmp 	%1, %0         \n"
1078:F:/ARM_Project/W55FA92/N9H20/BSP/Driver/Source/SYS\wb_config.c ****         "  bne  DRAM_S1        \n"
1079:F:/ARM_Project/W55FA92/N9H20/BSP/Driver/Source/SYS\wb_config.c ****     	: : "r"(reg2), "r"(reg1), "r"(reg0) :"memory"
1080:F:/ARM_Project/W55FA92/N9H20/BSP/Driver/Source/SYS\wb_config.c ****     );
1081:F:/ARM_Project/W55FA92/N9H20/BSP/Driver/Source/SYS\wb_config.c **** #else	
1082:F:/ARM_Project/W55FA92/N9H20/BSP/Driver/Source/SYS\wb_config.c **** 	__asm
1083:F:/ARM_Project/W55FA92/N9H20/BSP/Driver/Source/SYS\wb_config.c **** 	{
1084:F:/ARM_Project/W55FA92/N9H20/BSP/Driver/Source/SYS\wb_config.c **** 		mov     reg2, #1000
1085:F:/ARM_Project/W55FA92/N9H20/BSP/Driver/Source/SYS\wb_config.c **** 		mov     reg1, #0
1086:F:/ARM_Project/W55FA92/N9H20/BSP/Driver/Source/SYS\wb_config.c **** 		mov     reg0, #1
1087:F:/ARM_Project/W55FA92/N9H20/BSP/Driver/Source/SYS\wb_config.c **** DRAM_S1:	
1088:F:/ARM_Project/W55FA92/N9H20/BSP/Driver/Source/SYS\wb_config.c **** 		add     reg1, reg1, reg0
1089:F:/ARM_Project/W55FA92/N9H20/BSP/Driver/Source/SYS\wb_config.c **** 		cmp 	reg1, reg2
1090:F:/ARM_Project/W55FA92/N9H20/BSP/Driver/Source/SYS\wb_config.c **** 		bne		DRAM_S1
1091:F:/ARM_Project/W55FA92/N9H20/BSP/Driver/Source/SYS\wb_config.c **** 	}
1092:F:/ARM_Project/W55FA92/N9H20/BSP/Driver/Source/SYS\wb_config.c **** #endif	
1093:F:/ARM_Project/W55FA92/N9H20/BSP/Driver/Source/SYS\wb_config.c **** #endif	
1094:F:/ARM_Project/W55FA92/N9H20/BSP/Driver/Source/SYS\wb_config.c **** #if 0		
1095:F:/ARM_Project/W55FA92/N9H20/BSP/Driver/Source/SYS\wb_config.c **** 	outp32(REG_CLKDIV0, u32REG_CLKDIV0);			//CPU clock from UPLL	
1096:F:/ARM_Project/W55FA92/N9H20/BSP/Driver/Source/SYS\wb_config.c **** #else
1097:F:/ARM_Project/W55FA92/N9H20/BSP/Driver/Source/SYS\wb_config.c **** 	outp32(REG_CLKDIV0, inp32(SRAM_REG_CLKDIV0));
 1923              		.loc 1 1097 0
 1924              		.arm
 1925              		.syntax unified
 1926 0490 D03A9FE5 		ldr	r3, .L234+32
 1927 0494 C82A9FE5 		ldr	r2, .L234+28
 1928              	.LVL174:
 1929 0498 003093E5 		ldr	r3, [r3]
 1930 049c 003082E5 		str	r3, [r2]
 1931              	.LVL175:
1098:F:/ARM_Project/W55FA92/N9H20/BSP/Driver/Source/SYS\wb_config.c **** #endif		
1099:F:/ARM_Project/W55FA92/N9H20/BSP/Driver/Source/SYS\wb_config.c **** 		
1100:F:/ARM_Project/W55FA92/N9H20/BSP/Driver/Source/SYS\wb_config.c **** 	
1101:F:/ARM_Project/W55FA92/N9H20/BSP/Driver/Source/SYS\wb_config.c **** 	/*********** DRAM escape self refresh mode ************/
1102:F:/ARM_Project/W55FA92/N9H20/BSP/Driver/Source/SYS\wb_config.c **** 	outp32(REG_SDCMD,  0x20);
 1932              		.loc 1 1102 0
 1933 04a0 C43A9FE5 		ldr	r3, .L234+36
 1934 04a4 2020A0E3 		mov	r2, #32
 1935 04a8 002083E5 		str	r2, [r3]
1103:F:/ARM_Project/W55FA92/N9H20/BSP/Driver/Source/SYS\wb_config.c **** 	/*********** DRAM escape self refresh mode ************/
1104:F:/ARM_Project/W55FA92/N9H20/BSP/Driver/Source/SYS\wb_config.c **** 	
1105:F:/ARM_Project/W55FA92/N9H20/BSP/Driver/Source/SYS\wb_config.c **** #if 0	
1106:F:/ARM_Project/W55FA92/N9H20/BSP/Driver/Source/SYS\wb_config.c **** 	for(dly=0; dly<200;dly++);						//Wait 200T
1107:F:/ARM_Project/W55FA92/N9H20/BSP/Driver/Source/SYS\wb_config.c **** #else
1108:F:/ARM_Project/W55FA92/N9H20/BSP/Driver/Source/SYS\wb_config.c ****   #ifdef __GNUC__
1109:F:/ARM_Project/W55FA92/N9H20/BSP/Driver/Source/SYS\wb_config.c **** 	__asm
 1936              		.loc 1 1109 0
 1937              		.syntax divided
 1938              	@ 1109 "F:/ARM_Project/W55FA92/N9H20/BSP/Driver/Source/SYS/wb_config.c" 1
 1939 04ac 7D4EA0E3 		  mov 	r4, #2000     
 1940 04b0 0050A0E3 	  mov  r5, #0         
 1941 04b4 0160A0E3 	  mov  r6, #1         
 1942              	 DRAM1a:	           
 1943 04b8 065085E0 	  add  r5, r5, r6     
 1944 04bc 040055E1 	  cmp 	r5, r4         
 1945 04c0 FCFFFF1A 	  bne  DRAM1a         
 1946              	
 1947              	@ 0 "" 2
1110:F:/ARM_Project/W55FA92/N9H20/BSP/Driver/Source/SYS\wb_config.c ****     (
1111:F:/ARM_Project/W55FA92/N9H20/BSP/Driver/Source/SYS\wb_config.c ****         "  mov 	%0, #2000     \n"
1112:F:/ARM_Project/W55FA92/N9H20/BSP/Driver/Source/SYS\wb_config.c ****         "  mov  %1, #0         \n"
1113:F:/ARM_Project/W55FA92/N9H20/BSP/Driver/Source/SYS\wb_config.c ****         "  mov  %2, #1         \n"
1114:F:/ARM_Project/W55FA92/N9H20/BSP/Driver/Source/SYS\wb_config.c ****         " DRAM1a:	           \n"
1115:F:/ARM_Project/W55FA92/N9H20/BSP/Driver/Source/SYS\wb_config.c ****         "  add  %1, %1, %2     \n"
1116:F:/ARM_Project/W55FA92/N9H20/BSP/Driver/Source/SYS\wb_config.c ****         "  cmp 	%1, %0         \n"
1117:F:/ARM_Project/W55FA92/N9H20/BSP/Driver/Source/SYS\wb_config.c ****         "  bne  DRAM1a         \n"
1118:F:/ARM_Project/W55FA92/N9H20/BSP/Driver/Source/SYS\wb_config.c ****     	: : "r"(reg2), "r"(reg1), "r"(reg0) :"memory"
1119:F:/ARM_Project/W55FA92/N9H20/BSP/Driver/Source/SYS\wb_config.c ****     );
1120:F:/ARM_Project/W55FA92/N9H20/BSP/Driver/Source/SYS\wb_config.c ****   #else	
1121:F:/ARM_Project/W55FA92/N9H20/BSP/Driver/Source/SYS\wb_config.c **** 	__asm
1122:F:/ARM_Project/W55FA92/N9H20/BSP/Driver/Source/SYS\wb_config.c **** 	{
1123:F:/ARM_Project/W55FA92/N9H20/BSP/Driver/Source/SYS\wb_config.c **** 		mov     reg2, #200
1124:F:/ARM_Project/W55FA92/N9H20/BSP/Driver/Source/SYS\wb_config.c **** 		mov     reg1, #0
1125:F:/ARM_Project/W55FA92/N9H20/BSP/Driver/Source/SYS\wb_config.c **** 		mov     reg0, #1
1126:F:/ARM_Project/W55FA92/N9H20/BSP/Driver/Source/SYS\wb_config.c ****   DRAM1a:	
1127:F:/ARM_Project/W55FA92/N9H20/BSP/Driver/Source/SYS\wb_config.c **** 		add     reg1, reg1, reg0
1128:F:/ARM_Project/W55FA92/N9H20/BSP/Driver/Source/SYS\wb_config.c **** 		cmp     reg1, reg2
1129:F:/ARM_Project/W55FA92/N9H20/BSP/Driver/Source/SYS\wb_config.c **** 		bne     DRAM1a
1130:F:/ARM_Project/W55FA92/N9H20/BSP/Driver/Source/SYS\wb_config.c **** 	}
1131:F:/ARM_Project/W55FA92/N9H20/BSP/Driver/Source/SYS\wb_config.c ****   #endif	
1132:F:/ARM_Project/W55FA92/N9H20/BSP/Driver/Source/SYS\wb_config.c **** #endif 
1133:F:/ARM_Project/W55FA92/N9H20/BSP/Driver/Source/SYS\wb_config.c **** 	
1134:F:/ARM_Project/W55FA92/N9H20/BSP/Driver/Source/SYS\wb_config.c **** #ifdef __TEST__
1135:F:/ARM_Project/W55FA92/N9H20/BSP/Driver/Source/SYS\wb_config.c **** //	while( (inp32(REG_GPIOB_PIN) & 0x01)==0 ); /* set system clock */
1136:F:/ARM_Project/W55FA92/N9H20/BSP/Driver/Source/SYS\wb_config.c **** #endif
1137:F:/ARM_Project/W55FA92/N9H20/BSP/Driver/Source/SYS\wb_config.c **** 		
1138:F:/ARM_Project/W55FA92/N9H20/BSP/Driver/Source/SYS\wb_config.c **** 
1139:F:/ARM_Project/W55FA92/N9H20/BSP/Driver/Source/SYS\wb_config.c **** 	dbg(inp32(SRAM_UARTPORT), '0' + ((inp32(REG_CHIPCFG)&SDRAMSEL)>>4) );
 1948              		.loc 1 1139 0
 1949              		.arm
 1950              		.syntax unified
 1951 04c4 0000A0E1 		nop
 1952              	.L154:
 1953              		.loc 1 1139 0 is_stmt 0 discriminator 1
 1954 04c8 883A9FE5 		ldr	r3, .L234+16
 1955 04cc 002093E5 		ldr	r2, [r3]
 1956 04d0 283B9FE5 		ldr	r3, .L234+184
 1957 04d4 033082E0 		add	r3, r2, r3
 1958 04d8 003093E5 		ldr	r3, [r3]
 1959 04dc 013503E2 		and	r3, r3, #4194304
 1960 04e0 000053E3 		cmp	r3, #0
 1961 04e4 F7FFFF0A 		beq	.L154
 1962              		.loc 1 1139 0 discriminator 2
 1963 04e8 4B32A0E3 		mov	r3, #-1342177276
 1964 04ec 003093E5 		ldr	r3, [r3]
 1965 04f0 2332A0E1 		lsr	r3, r3, #4
 1966 04f4 FF3003E2 		and	r3, r3, #255
 1967 04f8 033003E2 		and	r3, r3, #3
 1968 04fc FF2003E2 		and	r2, r3, #255
 1969 0500 503A9FE5 		ldr	r3, .L234+16
 1970 0504 003093E5 		ldr	r3, [r3]
 1971 0508 2E3383E2 		add	r3, r3, #-1207959552
 1972 050c 023983E2 		add	r3, r3, #32768
 1973 0510 0310A0E1 		mov	r1, r3
 1974              	.LVL176:
 1975 0514 303082E2 		add	r3, r2, #48
 1976 0518 FF3003E2 		and	r3, r3, #255
 1977 051c 0030C1E5 		strb	r3, [r1]
 1978 0520 0000A0E1 		nop
 1979              	.L155:
 1980              		.loc 1 1139 0 discriminator 4
 1981 0524 2C3A9FE5 		ldr	r3, .L234+16
 1982 0528 002093E5 		ldr	r2, [r3]
 1983 052c CC3A9FE5 		ldr	r3, .L234+184
 1984 0530 033082E0 		add	r3, r2, r3
 1985 0534 003093E5 		ldr	r3, [r3]
 1986 0538 013503E2 		and	r3, r3, #4194304
 1987 053c 000053E3 		cmp	r3, #0
 1988 0540 F7FFFF0A 		beq	.L155
 1989              		.loc 1 1139 0 discriminator 5
 1990 0544 0C3A9FE5 		ldr	r3, .L234+16
 1991 0548 003093E5 		ldr	r3, [r3]
 1992 054c 2E3383E2 		add	r3, r3, #-1207959552
 1993 0550 023983E2 		add	r3, r3, #32768
 1994 0554 0A20A0E3 		mov	r2, #10
 1995 0558 0020C3E5 		strb	r2, [r3]
 1996 055c 0000A0E1 		nop
 1997              	.L156:
 1998              		.loc 1 1139 0 discriminator 7
 1999 0560 F0399FE5 		ldr	r3, .L234+16
 2000 0564 002093E5 		ldr	r2, [r3]
 2001 0568 903A9FE5 		ldr	r3, .L234+184
 2002 056c 033082E0 		add	r3, r2, r3
 2003 0570 003093E5 		ldr	r3, [r3]
 2004 0574 013503E2 		and	r3, r3, #4194304
 2005 0578 000053E3 		cmp	r3, #0
 2006 057c F7FFFF0A 		beq	.L156
1140:F:/ARM_Project/W55FA92/N9H20/BSP/Driver/Source/SYS\wb_config.c **** 
1141:F:/ARM_Project/W55FA92/N9H20/BSP/Driver/Source/SYS\wb_config.c **** 	//dly = (inp32(REG_CHIPCFG)&SDRAMSEL)>>4;	 /* SDRAM has escaped self-refresh mode */
1142:F:/ARM_Project/W55FA92/N9H20/BSP/Driver/Source/SYS\wb_config.c **** 	//dbg(inp32(SRAM_UARTPORT), '0'+dly);
1143:F:/ARM_Project/W55FA92/N9H20/BSP/Driver/Source/SYS\wb_config.c **** 
1144:F:/ARM_Project/W55FA92/N9H20/BSP/Driver/Source/SYS\wb_config.c **** 	if( ((inp32(REG_CHIPCFG)&SDRAMSEL)>>4) == 2)
 2007              		.loc 1 1144 0 is_stmt 1
 2008 0580 4B32A0E3 		mov	r3, #-1342177276
 2009 0584 003093E5 		ldr	r3, [r3]
 2010 0588 2332A0E1 		lsr	r3, r3, #4
 2011 058c 033003E2 		and	r3, r3, #3
 2012 0590 020053E3 		cmp	r3, #2
 2013 0594 0300001A 		bne	.L157
1145:F:/ARM_Project/W55FA92/N9H20/BSP/Driver/Source/SYS\wb_config.c **** 		//High_Freq = 64000000;
1146:F:/ARM_Project/W55FA92/N9H20/BSP/Driver/Source/SYS\wb_config.c **** 		outp32(SRAM_HIGH_FREQ, 64000000);
 2014              		.loc 1 1146 0
 2015 0598 E8399FE5 		ldr	r3, .L234+64
 2016 059c E8299FE5 		ldr	r2, .L234+68
 2017 05a0 002083E5 		str	r2, [r3]
 2018 05a4 020000EA 		b	.L158
 2019              	.L157:
1147:F:/ARM_Project/W55FA92/N9H20/BSP/Driver/Source/SYS\wb_config.c **** 	else
1148:F:/ARM_Project/W55FA92/N9H20/BSP/Driver/Source/SYS\wb_config.c **** 		//High_Freq = 96000000;
1149:F:/ARM_Project/W55FA92/N9H20/BSP/Driver/Source/SYS\wb_config.c **** 	    outp32(SRAM_HIGH_FREQ, 96000000);
 2020              		.loc 1 1149 0
 2021 05a8 D8399FE5 		ldr	r3, .L234+64
 2022 05ac DC299FE5 		ldr	r2, .L234+72
 2023 05b0 002083E5 		str	r2, [r3]
 2024              	.L158:
1150:F:/ARM_Project/W55FA92/N9H20/BSP/Driver/Source/SYS\wb_config.c **** 	
1151:F:/ARM_Project/W55FA92/N9H20/BSP/Driver/Source/SYS\wb_config.c **** 	if(inp32(SRAM_DRAMFREQ)>=96000000){
 2025              		.loc 1 1151 0
 2026 05b4 94399FE5 		ldr	r3, .L234+8
 2027 05b8 003093E5 		ldr	r3, [r3]
 2028 05bc AC299FE5 		ldr	r2, .L234+40
 2029 05c0 020053E1 		cmp	r3, r2
 2030 05c4 1800009A 		bls	.L228
1152:F:/ARM_Project/W55FA92/N9H20/BSP/Driver/Source/SYS\wb_config.c **** 		dbg_woc(inp32(SRAM_UARTPORT), '+');
 2031              		.loc 1 1152 0
 2032 05c8 0000A0E1 		nop
 2033              	.L160:
 2034              		.loc 1 1152 0 is_stmt 0 discriminator 1
 2035 05cc 84399FE5 		ldr	r3, .L234+16
 2036 05d0 002093E5 		ldr	r2, [r3]
 2037 05d4 243A9FE5 		ldr	r3, .L234+184
 2038 05d8 033082E0 		add	r3, r2, r3
 2039 05dc 003093E5 		ldr	r3, [r3]
 2040 05e0 013503E2 		and	r3, r3, #4194304
 2041 05e4 000053E3 		cmp	r3, #0
 2042 05e8 F7FFFF0A 		beq	.L160
 2043              		.loc 1 1152 0 discriminator 2
 2044 05ec 64399FE5 		ldr	r3, .L234+16
 2045 05f0 003093E5 		ldr	r3, [r3]
 2046 05f4 2E3383E2 		add	r3, r3, #-1207959552
 2047 05f8 023983E2 		add	r3, r3, #32768
 2048 05fc 2B20A0E3 		mov	r2, #43
 2049 0600 0020C3E5 		strb	r2, [r3]
 2050 0604 0000A0E1 		nop
 2051              	.L161:
 2052              		.loc 1 1152 0 discriminator 4
 2053 0608 48399FE5 		ldr	r3, .L234+16
 2054 060c 002093E5 		ldr	r2, [r3]
 2055 0610 E8399FE5 		ldr	r3, .L234+184
 2056 0614 033082E0 		add	r3, r2, r3
 2057 0618 003093E5 		ldr	r3, [r3]
 2058 061c 013503E2 		and	r3, r3, #4194304
 2059 0620 000053E3 		cmp	r3, #0
 2060 0624 F7FFFF0A 		beq	.L161
 2061 0628 170000EA 		b	.L162
 2062              	.L228:
1153:F:/ARM_Project/W55FA92/N9H20/BSP/Driver/Source/SYS\wb_config.c **** 	}else{
1154:F:/ARM_Project/W55FA92/N9H20/BSP/Driver/Source/SYS\wb_config.c **** 		dbg_woc(inp32(SRAM_UARTPORT), '-');	
 2063              		.loc 1 1154 0 is_stmt 1
 2064 062c 0000A0E1 		nop
 2065              	.L163:
 2066              		.loc 1 1154 0 is_stmt 0 discriminator 1
 2067 0630 20399FE5 		ldr	r3, .L234+16
 2068 0634 002093E5 		ldr	r2, [r3]
 2069 0638 C0399FE5 		ldr	r3, .L234+184
 2070 063c 033082E0 		add	r3, r2, r3
 2071 0640 003093E5 		ldr	r3, [r3]
 2072 0644 013503E2 		and	r3, r3, #4194304
 2073 0648 000053E3 		cmp	r3, #0
 2074 064c F7FFFF0A 		beq	.L163
 2075              		.loc 1 1154 0 discriminator 2
 2076 0650 00399FE5 		ldr	r3, .L234+16
 2077 0654 003093E5 		ldr	r3, [r3]
 2078 0658 2E3383E2 		add	r3, r3, #-1207959552
 2079 065c 023983E2 		add	r3, r3, #32768
 2080 0660 2D20A0E3 		mov	r2, #45
 2081 0664 0020C3E5 		strb	r2, [r3]
 2082 0668 0000A0E1 		nop
 2083              	.L164:
 2084              		.loc 1 1154 0 discriminator 4
 2085 066c E4389FE5 		ldr	r3, .L234+16
 2086 0670 002093E5 		ldr	r2, [r3]
 2087 0674 84399FE5 		ldr	r3, .L234+184
 2088 0678 033082E0 		add	r3, r2, r3
 2089 067c 003093E5 		ldr	r3, [r3]
 2090 0680 013503E2 		and	r3, r3, #4194304
 2091 0684 000053E3 		cmp	r3, #0
 2092 0688 F7FFFF0A 		beq	.L164
 2093              	.L162:
1155:F:/ARM_Project/W55FA92/N9H20/BSP/Driver/Source/SYS\wb_config.c **** 	}
1156:F:/ARM_Project/W55FA92/N9H20/BSP/Driver/Source/SYS\wb_config.c **** 	//DRAM auto-calibration for optimal DRAM Phase
1157:F:/ARM_Project/W55FA92/N9H20/BSP/Driver/Source/SYS\wb_config.c **** #if 0
1158:F:/ARM_Project/W55FA92/N9H20/BSP/Driver/Source/SYS\wb_config.c **** 	u32DramFreq = inp32(SRAM_DRAMFREQ);
1159:F:/ARM_Project/W55FA92/N9H20/BSP/Driver/Source/SYS\wb_config.c **** 	if(u32DramFreq >= High_Freq)
1160:F:/ARM_Project/W55FA92/N9H20/BSP/Driver/Source/SYS\wb_config.c **** #else
1161:F:/ARM_Project/W55FA92/N9H20/BSP/Driver/Source/SYS\wb_config.c **** 	if( inp32(SRAM_DRAMFREQ) >= inp32(SRAM_HIGH_FREQ) )
 2094              		.loc 1 1161 0 is_stmt 1
 2095 068c BC389FE5 		ldr	r3, .L234+8
 2096 0690 002093E5 		ldr	r2, [r3]
 2097 0694 EC389FE5 		ldr	r3, .L234+64
 2098 0698 003093E5 		ldr	r3, [r3]
 2099 069c 030052E1 		cmp	r2, r3
 2100 06a0 5902003A 		bcc	.L229
1162:F:/ARM_Project/W55FA92/N9H20/BSP/Driver/Source/SYS\wb_config.c **** #endif	
1163:F:/ARM_Project/W55FA92/N9H20/BSP/Driver/Source/SYS\wb_config.c **** 	{//High Frequency
1164:F:/ARM_Project/W55FA92/N9H20/BSP/Driver/Source/SYS\wb_config.c **** 		outp32(REG_SDEMR, inp32(REG_SDEMR) & ~DLLEN);				// Enable  DLL of DDR2		
 2101              		.loc 1 1164 0
 2102 06a4 24399FE5 		ldr	r3, .L234+136
 2103 06a8 003093E5 		ldr	r3, [r3]
 2104 06ac 1C299FE5 		ldr	r2, .L234+136
 2105 06b0 0130C3E3 		bic	r3, r3, #1
 2106 06b4 003082E5 		str	r3, [r2]
1165:F:/ARM_Project/W55FA92/N9H20/BSP/Driver/Source/SYS\wb_config.c **** 		outp32(REG_SDMR,  0x532);   								// RESET DLL(bit[8]) of DDR2 
 2107              		.loc 1 1165 0
 2108 06b8 24399FE5 		ldr	r3, .L234+156
 2109 06bc D0289FE5 		ldr	r2, .L234+76
 2110 06c0 002083E5 		str	r2, [r3]
1166:F:/ARM_Project/W55FA92/N9H20/BSP/Driver/Source/SYS\wb_config.c **** 
1167:F:/ARM_Project/W55FA92/N9H20/BSP/Driver/Source/SYS\wb_config.c **** 		//for(dly=0; dly<50;dly++);
1168:F:/ARM_Project/W55FA92/N9H20/BSP/Driver/Source/SYS\wb_config.c **** 
1169:F:/ARM_Project/W55FA92/N9H20/BSP/Driver/Source/SYS\wb_config.c **** #ifdef __GNUC__
1170:F:/ARM_Project/W55FA92/N9H20/BSP/Driver/Source/SYS\wb_config.c **** 	__asm
 2111              		.loc 1 1170 0
 2112              		.syntax divided
 2113              	@ 1170 "F:/ARM_Project/W55FA92/N9H20/BSP/Driver/Source/SYS/wb_config.c" 1
 2114 06c4 3240A0E3 		  mov 	r4, #50    
 2115 06c8 0050A0E3 	  mov  r5, #0         
 2116 06cc 0160A0E3 	  mov  r6, #1         
 2117              	 DRAMHA:	           
 2118 06d0 065085E0 	  add  r5, r5, r6     
 2119 06d4 040055E1 	  cmp 	r5, r4         
 2120 06d8 FCFFFF1A 	  bne  DRAMHA         
 2121              	
 2122              	@ 0 "" 2
1171:F:/ARM_Project/W55FA92/N9H20/BSP/Driver/Source/SYS\wb_config.c ****     (
1172:F:/ARM_Project/W55FA92/N9H20/BSP/Driver/Source/SYS\wb_config.c ****         "  mov 	%0, #50    \n"
1173:F:/ARM_Project/W55FA92/N9H20/BSP/Driver/Source/SYS\wb_config.c ****         "  mov  %1, #0         \n"
1174:F:/ARM_Project/W55FA92/N9H20/BSP/Driver/Source/SYS\wb_config.c ****         "  mov  %2, #1         \n"
1175:F:/ARM_Project/W55FA92/N9H20/BSP/Driver/Source/SYS\wb_config.c ****         " DRAMHA:	           \n"
1176:F:/ARM_Project/W55FA92/N9H20/BSP/Driver/Source/SYS\wb_config.c ****         "  add  %1, %1, %2     \n"
1177:F:/ARM_Project/W55FA92/N9H20/BSP/Driver/Source/SYS\wb_config.c ****         "  cmp 	%1, %0         \n"
1178:F:/ARM_Project/W55FA92/N9H20/BSP/Driver/Source/SYS\wb_config.c ****         "  bne  DRAMHA         \n"
1179:F:/ARM_Project/W55FA92/N9H20/BSP/Driver/Source/SYS\wb_config.c ****     	: : "r"(reg2), "r"(reg1), "r"(reg0) :"memory"
1180:F:/ARM_Project/W55FA92/N9H20/BSP/Driver/Source/SYS\wb_config.c ****     );
1181:F:/ARM_Project/W55FA92/N9H20/BSP/Driver/Source/SYS\wb_config.c **** #else	
1182:F:/ARM_Project/W55FA92/N9H20/BSP/Driver/Source/SYS\wb_config.c **** 		__asm
1183:F:/ARM_Project/W55FA92/N9H20/BSP/Driver/Source/SYS\wb_config.c **** 		{
1184:F:/ARM_Project/W55FA92/N9H20/BSP/Driver/Source/SYS\wb_config.c **** 			mov     reg2, #50
1185:F:/ARM_Project/W55FA92/N9H20/BSP/Driver/Source/SYS\wb_config.c **** 			mov     reg1, #0
1186:F:/ARM_Project/W55FA92/N9H20/BSP/Driver/Source/SYS\wb_config.c **** 			mov     reg0, #1
1187:F:/ARM_Project/W55FA92/N9H20/BSP/Driver/Source/SYS\wb_config.c **** DRAMHA: 
1188:F:/ARM_Project/W55FA92/N9H20/BSP/Driver/Source/SYS\wb_config.c **** 			add     reg1, reg1, reg0
1189:F:/ARM_Project/W55FA92/N9H20/BSP/Driver/Source/SYS\wb_config.c **** 			cmp     reg1, reg2
1190:F:/ARM_Project/W55FA92/N9H20/BSP/Driver/Source/SYS\wb_config.c **** 			bne     DRAMHA
1191:F:/ARM_Project/W55FA92/N9H20/BSP/Driver/Source/SYS\wb_config.c **** 		}
1192:F:/ARM_Project/W55FA92/N9H20/BSP/Driver/Source/SYS\wb_config.c **** #endif		
1193:F:/ARM_Project/W55FA92/N9H20/BSP/Driver/Source/SYS\wb_config.c **** 
1194:F:/ARM_Project/W55FA92/N9H20/BSP/Driver/Source/SYS\wb_config.c **** 		outp32(REG_SDMR,  0x432);  									// RESET DLL(bit[8]) of DDR2 		
 2123              		.loc 1 1194 0
 2124              		.arm
 2125              		.syntax unified
 2126 06dc 00399FE5 		ldr	r3, .L234+156
 2127 06e0 B0289FE5 		ldr	r2, .L234+80
 2128 06e4 002083E5 		str	r2, [r3]
 2129              	.L166:
1195:F:/ARM_Project/W55FA92/N9H20/BSP/Driver/Source/SYS\wb_config.c **** again:	
1196:F:/ARM_Project/W55FA92/N9H20/BSP/Driver/Source/SYS\wb_config.c **** 		outp32(REG_DLLMODE,  (inp32(REG_DLLMODE_R)&~0x8) | 0x10);	// Disable chip's DLL
 2130              		.loc 1 1196 0
 2131 06e8 E4389FE5 		ldr	r3, .L234+140
 2132 06ec 003093E5 		ldr	r3, [r3]
 2133 06f0 1830C3E3 		bic	r3, r3, #24
 2134 06f4 DC289FE5 		ldr	r2, .L234+144
 2135 06f8 103083E3 		orr	r3, r3, #16
 2136 06fc 003082E5 		str	r3, [r2]
1197:F:/ARM_Project/W55FA92/N9H20/BSP/Driver/Source/SYS\wb_config.c **** 		outp32(REG_DLLMODE,   inp32(REG_DLLMODE_R)       | 0x18);	// Enable  chip's DLL
 2137              		.loc 1 1197 0
 2138 0700 CC389FE5 		ldr	r3, .L234+140
 2139 0704 003093E5 		ldr	r3, [r3]
 2140 0708 C8289FE5 		ldr	r2, .L234+144
 2141 070c 183083E3 		orr	r3, r3, #24
 2142 0710 003082E5 		str	r3, [r2]
1198:F:/ARM_Project/W55FA92/N9H20/BSP/Driver/Source/SYS\wb_config.c **** 		outp32(REG_CKDQSDS, 0x00888800);							// Skew for high freq
 2143              		.loc 1 1198 0
 2144 0714 E8389FE5 		ldr	r3, .L234+188
 2145 0718 7C289FE5 		ldr	r2, .L234+84
 2146 071c 002083E5 		str	r2, [r3]
1199:F:/ARM_Project/W55FA92/N9H20/BSP/Driver/Source/SYS\wb_config.c **** 
1200:F:/ARM_Project/W55FA92/N9H20/BSP/Driver/Source/SYS\wb_config.c **** 		    //change = 0;
1201:F:/ARM_Project/W55FA92/N9H20/BSP/Driver/Source/SYS\wb_config.c **** 	        //for(i=0; i<7; i=i+1)
1202:F:/ARM_Project/W55FA92/N9H20/BSP/Driver/Source/SYS\wb_config.c **** 		    outp32(SRAM_VAR, 0);
 2147              		.loc 1 1202 0
 2148 0720 78389FE5 		ldr	r3, .L234+88
 2149 0724 0020A0E3 		mov	r2, #0
 2150 0728 002083E5 		str	r2, [r3]
1203:F:/ARM_Project/W55FA92/N9H20/BSP/Driver/Source/SYS\wb_config.c **** 	        while(inp32(SRAM_VAR) < 7)
 2151              		.loc 1 1203 0
 2152 072c 7F0000EA 		b	.L167
 2153              	.L178:
1204:F:/ARM_Project/W55FA92/N9H20/BSP/Driver/Source/SYS\wb_config.c **** 	        {
1205:F:/ARM_Project/W55FA92/N9H20/BSP/Driver/Source/SYS\wb_config.c **** 	                //outp32(REG_DLLMODE, (0x19+i) );              //DLLMODE phase search
1206:F:/ARM_Project/W55FA92/N9H20/BSP/Driver/Source/SYS\wb_config.c **** 	        	    outp32(REG_DLLMODE, (0x19+inp32(SRAM_VAR)) );     //DLLMODE phase search
 2154              		.loc 1 1206 0
 2155 0730 68389FE5 		ldr	r3, .L234+88
 2156 0734 003093E5 		ldr	r3, [r3]
 2157 0738 98289FE5 		ldr	r2, .L234+144
 2158 073c 193083E2 		add	r3, r3, #25
 2159 0740 003082E5 		str	r3, [r2]
1207:F:/ARM_Project/W55FA92/N9H20/BSP/Driver/Source/SYS\wb_config.c **** #if 0
1208:F:/ARM_Project/W55FA92/N9H20/BSP/Driver/Source/SYS\wb_config.c **** 					for(dly=0; dly<0x2000;dly++);
1209:F:/ARM_Project/W55FA92/N9H20/BSP/Driver/Source/SYS\wb_config.c **** #else		
1210:F:/ARM_Project/W55FA92/N9H20/BSP/Driver/Source/SYS\wb_config.c ****    #ifdef __GNUC__
1211:F:/ARM_Project/W55FA92/N9H20/BSP/Driver/Source/SYS\wb_config.c **** 					__asm
 2160              		.loc 1 1211 0
 2161              		.syntax divided
 2162              	@ 1211 "F:/ARM_Project/W55FA92/N9H20/BSP/Driver/Source/SYS/wb_config.c" 1
 2163 0744 024AA0E3 		  mov 	r4, #0x2000    
 2164 0748 0050A0E3 	  mov  r5, #0         
 2165 074c 0160A0E3 	  mov  r6, #1         
 2166              	 DRAMHB:	           
 2167 0750 065085E0 	  add  r5, r5, r6     
 2168 0754 040055E1 	  cmp 	r5, r4         
 2169 0758 FCFFFF1A 	  bne  DRAMHB         
 2170              	
 2171              	@ 0 "" 2
1212:F:/ARM_Project/W55FA92/N9H20/BSP/Driver/Source/SYS\wb_config.c **** 					(
1213:F:/ARM_Project/W55FA92/N9H20/BSP/Driver/Source/SYS\wb_config.c **** 						"  mov 	%0, #0x2000    \n"
1214:F:/ARM_Project/W55FA92/N9H20/BSP/Driver/Source/SYS\wb_config.c **** 						"  mov  %1, #0         \n"
1215:F:/ARM_Project/W55FA92/N9H20/BSP/Driver/Source/SYS\wb_config.c **** 						"  mov  %2, #1         \n"
1216:F:/ARM_Project/W55FA92/N9H20/BSP/Driver/Source/SYS\wb_config.c **** 						" DRAMHB:	           \n"
1217:F:/ARM_Project/W55FA92/N9H20/BSP/Driver/Source/SYS\wb_config.c **** 						"  add  %1, %1, %2     \n"
1218:F:/ARM_Project/W55FA92/N9H20/BSP/Driver/Source/SYS\wb_config.c **** 						"  cmp 	%1, %0         \n"
1219:F:/ARM_Project/W55FA92/N9H20/BSP/Driver/Source/SYS\wb_config.c **** 						"  bne  DRAMHB         \n"
1220:F:/ARM_Project/W55FA92/N9H20/BSP/Driver/Source/SYS\wb_config.c **** 						: : "r"(reg2), "r"(reg1), "r"(reg0) :"memory"
1221:F:/ARM_Project/W55FA92/N9H20/BSP/Driver/Source/SYS\wb_config.c **** 					);
1222:F:/ARM_Project/W55FA92/N9H20/BSP/Driver/Source/SYS\wb_config.c ****    #else					
1223:F:/ARM_Project/W55FA92/N9H20/BSP/Driver/Source/SYS\wb_config.c **** 					__asm
1224:F:/ARM_Project/W55FA92/N9H20/BSP/Driver/Source/SYS\wb_config.c **** 					{
1225:F:/ARM_Project/W55FA92/N9H20/BSP/Driver/Source/SYS\wb_config.c **** 						mov     reg2, #0x2000
1226:F:/ARM_Project/W55FA92/N9H20/BSP/Driver/Source/SYS\wb_config.c **** 						mov     reg1, #0
1227:F:/ARM_Project/W55FA92/N9H20/BSP/Driver/Source/SYS\wb_config.c **** 						mov     reg0, #1
1228:F:/ARM_Project/W55FA92/N9H20/BSP/Driver/Source/SYS\wb_config.c **** 					DRAMHB: 
1229:F:/ARM_Project/W55FA92/N9H20/BSP/Driver/Source/SYS\wb_config.c **** 						add     reg1, reg1, reg0
1230:F:/ARM_Project/W55FA92/N9H20/BSP/Driver/Source/SYS\wb_config.c **** 						cmp     reg1, reg2
1231:F:/ARM_Project/W55FA92/N9H20/BSP/Driver/Source/SYS\wb_config.c **** 						bne     DRAMHB
1232:F:/ARM_Project/W55FA92/N9H20/BSP/Driver/Source/SYS\wb_config.c **** 					}
1233:F:/ARM_Project/W55FA92/N9H20/BSP/Driver/Source/SYS\wb_config.c ****    #endif					
1234:F:/ARM_Project/W55FA92/N9H20/BSP/Driver/Source/SYS\wb_config.c **** #endif
1235:F:/ARM_Project/W55FA92/N9H20/BSP/Driver/Source/SYS\wb_config.c **** #if 0
1236:F:/ARM_Project/W55FA92/N9H20/BSP/Driver/Source/SYS\wb_config.c **** 	        	 dly = (inp32(REG_CHIPCFG)&SDRAMSEL)>>4;
1237:F:/ARM_Project/W55FA92/N9H20/BSP/Driver/Source/SYS\wb_config.c **** //#else
1238:F:/ARM_Project/W55FA92/N9H20/BSP/Driver/Source/SYS\wb_config.c ****     #ifdef __GNUC__
1239:F:/ARM_Project/W55FA92/N9H20/BSP/Driver/Source/SYS\wb_config.c **** 					#if 0
1240:F:/ARM_Project/W55FA92/N9H20/BSP/Driver/Source/SYS\wb_config.c **** 	        	    __asm
1241:F:/ARM_Project/W55FA92/N9H20/BSP/Driver/Source/SYS\wb_config.c **** 					(
1242:F:/ARM_Project/W55FA92/N9H20/BSP/Driver/Source/SYS\wb_config.c **** 						"  MOV     %2, #0xb0000000  \n"
1243:F:/ARM_Project/W55FA92/N9H20/BSP/Driver/Source/SYS\wb_config.c **** 						"  LDR     %2,[%2, #4]      \n"
1244:F:/ARM_Project/W55FA92/N9H20/BSP/Driver/Source/SYS\wb_config.c **** 						"  MOV     %2, %2, LSL #26  \n"
1245:F:/ARM_Project/W55FA92/N9H20/BSP/Driver/Source/SYS\wb_config.c **** 						"  MOV     %2, %2, LSR #30  \n"
1246:F:/ARM_Project/W55FA92/N9H20/BSP/Driver/Source/SYS\wb_config.c **** 						"  MOV     %0, %2           \n"
1247:F:/ARM_Project/W55FA92/N9H20/BSP/Driver/Source/SYS\wb_config.c **** 						: : "r"(reg2), "r"(reg1), "r"(reg0) :"memory"
1248:F:/ARM_Project/W55FA92/N9H20/BSP/Driver/Source/SYS\wb_config.c **** 					);
1249:F:/ARM_Project/W55FA92/N9H20/BSP/Driver/Source/SYS\wb_config.c **** 					#endif
1250:F:/ARM_Project/W55FA92/N9H20/BSP/Driver/Source/SYS\wb_config.c ****     #else	
1251:F:/ARM_Project/W55FA92/N9H20/BSP/Driver/Source/SYS\wb_config.c **** 				    __asm
1252:F:/ARM_Project/W55FA92/N9H20/BSP/Driver/Source/SYS\wb_config.c **** 					{
1253:F:/ARM_Project/W55FA92/N9H20/BSP/Driver/Source/SYS\wb_config.c **** 						MOV     reg0, #0xb0000000
1254:F:/ARM_Project/W55FA92/N9H20/BSP/Driver/Source/SYS\wb_config.c **** 						LDR     reg0,[reg0, #4]
1255:F:/ARM_Project/W55FA92/N9H20/BSP/Driver/Source/SYS\wb_config.c **** 						MOV     reg0, reg0, LSL #26
1256:F:/ARM_Project/W55FA92/N9H20/BSP/Driver/Source/SYS\wb_config.c **** 						MOV     reg0, reg0, LSR #30
1257:F:/ARM_Project/W55FA92/N9H20/BSP/Driver/Source/SYS\wb_config.c **** 						MOV     dly, reg0
1258:F:/ARM_Project/W55FA92/N9H20/BSP/Driver/Source/SYS\wb_config.c **** 					}
1259:F:/ARM_Project/W55FA92/N9H20/BSP/Driver/Source/SYS\wb_config.c **** 	#endif				
1260:F:/ARM_Project/W55FA92/N9H20/BSP/Driver/Source/SYS\wb_config.c **** #endif		
1261:F:/ARM_Project/W55FA92/N9H20/BSP/Driver/Source/SYS\wb_config.c **** 	#ifdef __GNUC__
1262:F:/ARM_Project/W55FA92/N9H20/BSP/Driver/Source/SYS\wb_config.c **** 				if( inp32(SRAM_MEMTYPE) == 3)
 2172              		.loc 1 1262 0
 2173              		.arm
 2174              		.syntax unified
 2175 075c 84389FE5 		ldr	r3, .L234+160
 2176 0760 003093E5 		ldr	r3, [r3]
 2177 0764 030053E3 		cmp	r3, #3
 2178 0768 0600001A 		bne	.L168
1263:F:/ARM_Project/W55FA92/N9H20/BSP/Driver/Source/SYS\wb_config.c **** 				{//DDR2 type
1264:F:/ARM_Project/W55FA92/N9H20/BSP/Driver/Source/SYS\wb_config.c **** 					//dbg_woc(inp32(SRAM_UARTPORT), 'A');
1265:F:/ARM_Project/W55FA92/N9H20/BSP/Driver/Source/SYS\wb_config.c **** 					outp32(REG_SDOPM, 0x01130476);         	//Set DQS_PHASE_RST
 2179              		.loc 1 1265 0
 2180 076c 78389FE5 		ldr	r3, .L234+164
 2181 0770 2C289FE5 		ldr	r2, .L234+92
 2182 0774 002083E5 		str	r2, [r3]
1266:F:/ARM_Project/W55FA92/N9H20/BSP/Driver/Source/SYS\wb_config.c **** 					outp32(REG_SDOPM, 0x01030476);			//Clr DQS_PHASE_RST
 2183              		.loc 1 1266 0
 2184 0778 6C389FE5 		ldr	r3, .L234+164
 2185 077c 24289FE5 		ldr	r2, .L234+96
 2186 0780 002083E5 		str	r2, [r3]
 2187 0784 3C0000EA 		b	.L169
 2188              	.L168:
1267:F:/ARM_Project/W55FA92/N9H20/BSP/Driver/Source/SYS\wb_config.c **** 		        }
1268:F:/ARM_Project/W55FA92/N9H20/BSP/Driver/Source/SYS\wb_config.c **** 				else if(  inp32(SRAM_MEMTYPE) == 2)
 2189              		.loc 1 1268 0
 2190 0788 58389FE5 		ldr	r3, .L234+160
 2191 078c 003093E5 		ldr	r3, [r3]
 2192 0790 020053E3 		cmp	r3, #2
 2193 0794 0600001A 		bne	.L170
1269:F:/ARM_Project/W55FA92/N9H20/BSP/Driver/Source/SYS\wb_config.c **** 				{//DDR type
1270:F:/ARM_Project/W55FA92/N9H20/BSP/Driver/Source/SYS\wb_config.c **** 					//dbg_woc(inp32(SRAM_UARTPORT), 'B');
1271:F:/ARM_Project/W55FA92/N9H20/BSP/Driver/Source/SYS\wb_config.c **** 					outp32(REG_SDOPM, 0x01130456);         	//Set DQS_PHASE_RST
 2194              		.loc 1 1271 0
 2195 0798 4C389FE5 		ldr	r3, .L234+164
 2196 079c 08289FE5 		ldr	r2, .L234+100
 2197 07a0 002083E5 		str	r2, [r3]
1272:F:/ARM_Project/W55FA92/N9H20/BSP/Driver/Source/SYS\wb_config.c **** 					outp32(REG_SDOPM, 0x01030456);			//Clr DQS_PHASE_RST
 2198              		.loc 1 1272 0
 2199 07a4 40389FE5 		ldr	r3, .L234+164
 2200 07a8 00289FE5 		ldr	r2, .L234+104
 2201 07ac 002083E5 		str	r2, [r3]
 2202 07b0 310000EA 		b	.L169
 2203              	.L170:
1273:F:/ARM_Project/W55FA92/N9H20/BSP/Driver/Source/SYS\wb_config.c **** 		        }
1274:F:/ARM_Project/W55FA92/N9H20/BSP/Driver/Source/SYS\wb_config.c **** 				else if(  inp32(SRAM_MEMTYPE) == 0)
 2204              		.loc 1 1274 0
 2205 07b4 2C389FE5 		ldr	r3, .L234+160
 2206 07b8 003093E5 		ldr	r3, [r3]
 2207 07bc 000053E3 		cmp	r3, #0
 2208 07c0 0600001A 		bne	.L230
1275:F:/ARM_Project/W55FA92/N9H20/BSP/Driver/Source/SYS\wb_config.c **** 				{//DDR type
1276:F:/ARM_Project/W55FA92/N9H20/BSP/Driver/Source/SYS\wb_config.c **** 					//dbg_woc(inp32(SRAM_UARTPORT), 'C');
1277:F:/ARM_Project/W55FA92/N9H20/BSP/Driver/Source/SYS\wb_config.c **** 					outp32(REG_SDOPM, 0x01130416);         	//Set DQS_PHASE_RST
 2209              		.loc 1 1277 0
 2210 07c4 20389FE5 		ldr	r3, .L234+164
 2211 07c8 E4279FE5 		ldr	r2, .L234+108
 2212 07cc 002083E5 		str	r2, [r3]
1278:F:/ARM_Project/W55FA92/N9H20/BSP/Driver/Source/SYS\wb_config.c **** 					outp32(REG_SDOPM, 0x01030416);			//Clr DQS_PHASE_RST
 2213              		.loc 1 1278 0
 2214 07d0 14389FE5 		ldr	r3, .L234+164
 2215 07d4 DC279FE5 		ldr	r2, .L234+112
 2216 07d8 002083E5 		str	r2, [r3]
 2217 07dc 260000EA 		b	.L169
 2218              	.L230:
1279:F:/ARM_Project/W55FA92/N9H20/BSP/Driver/Source/SYS\wb_config.c **** 				}
1280:F:/ARM_Project/W55FA92/N9H20/BSP/Driver/Source/SYS\wb_config.c **** 				else
1281:F:/ARM_Project/W55FA92/N9H20/BSP/Driver/Source/SYS\wb_config.c **** 				{
1282:F:/ARM_Project/W55FA92/N9H20/BSP/Driver/Source/SYS\wb_config.c **** 					dbg(inp32(SRAM_UARTPORT), 'D');
 2219              		.loc 1 1282 0
 2220 07e0 0000A0E1 		nop
 2221              	.L172:
 2222              		.loc 1 1282 0 is_stmt 0 discriminator 1
 2223 07e4 6C379FE5 		ldr	r3, .L234+16
 2224 07e8 002093E5 		ldr	r2, [r3]
 2225 07ec 0C389FE5 		ldr	r3, .L234+184
 2226 07f0 033082E0 		add	r3, r2, r3
 2227 07f4 003093E5 		ldr	r3, [r3]
 2228 07f8 013503E2 		and	r3, r3, #4194304
 2229 07fc 000053E3 		cmp	r3, #0
 2230 0800 F7FFFF0A 		beq	.L172
 2231              		.loc 1 1282 0 discriminator 2
 2232 0804 4C379FE5 		ldr	r3, .L234+16
 2233 0808 003093E5 		ldr	r3, [r3]
 2234 080c 2E3383E2 		add	r3, r3, #-1207959552
 2235 0810 023983E2 		add	r3, r3, #32768
 2236 0814 4420A0E3 		mov	r2, #68
 2237 0818 0020C3E5 		strb	r2, [r3]
 2238 081c 0000A0E1 		nop
 2239              	.L173:
 2240              		.loc 1 1282 0 discriminator 4
 2241 0820 30379FE5 		ldr	r3, .L234+16
 2242 0824 002093E5 		ldr	r2, [r3]
 2243 0828 D0379FE5 		ldr	r3, .L234+184
 2244 082c 033082E0 		add	r3, r2, r3
 2245 0830 003093E5 		ldr	r3, [r3]
 2246 0834 013503E2 		and	r3, r3, #4194304
 2247 0838 000053E3 		cmp	r3, #0
 2248 083c F7FFFF0A 		beq	.L173
 2249              		.loc 1 1282 0 discriminator 5
 2250 0840 10379FE5 		ldr	r3, .L234+16
 2251 0844 003093E5 		ldr	r3, [r3]
 2252 0848 2E3383E2 		add	r3, r3, #-1207959552
 2253 084c 023983E2 		add	r3, r3, #32768
 2254 0850 0A20A0E3 		mov	r2, #10
 2255 0854 0020C3E5 		strb	r2, [r3]
 2256 0858 0000A0E1 		nop
 2257              	.L174:
 2258              		.loc 1 1282 0 discriminator 7
 2259 085c F4369FE5 		ldr	r3, .L234+16
 2260 0860 002093E5 		ldr	r2, [r3]
 2261 0864 94379FE5 		ldr	r3, .L234+184
 2262 0868 033082E0 		add	r3, r2, r3
 2263 086c 003093E5 		ldr	r3, [r3]
 2264 0870 013503E2 		and	r3, r3, #4194304
 2265 0874 000053E3 		cmp	r3, #0
 2266 0878 F7FFFF0A 		beq	.L174
 2267              	.L169:
1283:F:/ARM_Project/W55FA92/N9H20/BSP/Driver/Source/SYS\wb_config.c **** 				}
1284:F:/ARM_Project/W55FA92/N9H20/BSP/Driver/Source/SYS\wb_config.c **** 	#else			
1285:F:/ARM_Project/W55FA92/N9H20/BSP/Driver/Source/SYS\wb_config.c **** 			    __asm
1286:F:/ARM_Project/W55FA92/N9H20/BSP/Driver/Source/SYS\wb_config.c **** 				{
1287:F:/ARM_Project/W55FA92/N9H20/BSP/Driver/Source/SYS\wb_config.c **** 					MOV     reg0, #0xb0000000
1288:F:/ARM_Project/W55FA92/N9H20/BSP/Driver/Source/SYS\wb_config.c **** 					LDR     reg0,[reg0, #4]
1289:F:/ARM_Project/W55FA92/N9H20/BSP/Driver/Source/SYS\wb_config.c **** 					MOV     reg0, reg0, LSL #26
1290:F:/ARM_Project/W55FA92/N9H20/BSP/Driver/Source/SYS\wb_config.c **** 					MOV     reg0, reg0, LSR #30
1291:F:/ARM_Project/W55FA92/N9H20/BSP/Driver/Source/SYS\wb_config.c **** 					MOV     dly, reg0
1292:F:/ARM_Project/W55FA92/N9H20/BSP/Driver/Source/SYS\wb_config.c **** 				}
1293:F:/ARM_Project/W55FA92/N9H20/BSP/Driver/Source/SYS\wb_config.c **** 	        	if(dly==3){//DDR2 type   
1294:F:/ARM_Project/W55FA92/N9H20/BSP/Driver/Source/SYS\wb_config.c ****                         dbg_woc(inp32(SRAM_UARTPORT), 'A');						
1295:F:/ARM_Project/W55FA92/N9H20/BSP/Driver/Source/SYS\wb_config.c **** 	                	outp32(REG_SDOPM, 0x01130476);         	//Set DQS_PHASE_RST
1296:F:/ARM_Project/W55FA92/N9H20/BSP/Driver/Source/SYS\wb_config.c **** 		                outp32(REG_SDOPM, 0x01030476);			//Clr DQS_PHASE_RST
1297:F:/ARM_Project/W55FA92/N9H20/BSP/Driver/Source/SYS\wb_config.c **** 		         }else if(dly==2){//DDR type
1298:F:/ARM_Project/W55FA92/N9H20/BSP/Driver/Source/SYS\wb_config.c **** 					dbg_woc(inp32(SRAM_UARTPORT), 'B');	
1299:F:/ARM_Project/W55FA92/N9H20/BSP/Driver/Source/SYS\wb_config.c **** 		         	outp32(REG_SDOPM, 0x01130456);         		//Set DQS_PHASE_RST
1300:F:/ARM_Project/W55FA92/N9H20/BSP/Driver/Source/SYS\wb_config.c **** 		                outp32(REG_SDOPM, 0x01030456);			//Clr DQS_PHASE_RST
1301:F:/ARM_Project/W55FA92/N9H20/BSP/Driver/Source/SYS\wb_config.c **** 		         }else if(dly==0){//DDR type
1302:F:/ARM_Project/W55FA92/N9H20/BSP/Driver/Source/SYS\wb_config.c **** 					 dbg_woc(inp32(SRAM_UARTPORT), 'C');	
1303:F:/ARM_Project/W55FA92/N9H20/BSP/Driver/Source/SYS\wb_config.c **** 		         	outp32(REG_SDOPM, 0x01130416);         		//Set DQS_PHASE_RST
1304:F:/ARM_Project/W55FA92/N9H20/BSP/Driver/Source/SYS\wb_config.c **** 		                outp32(REG_SDOPM, 0x01030416);			//Clr DQS_PHASE_RST
1305:F:/ARM_Project/W55FA92/N9H20/BSP/Driver/Source/SYS\wb_config.c **** 		         }     
1306:F:/ARM_Project/W55FA92/N9H20/BSP/Driver/Source/SYS\wb_config.c **** 	#endif
1307:F:/ARM_Project/W55FA92/N9H20/BSP/Driver/Source/SYS\wb_config.c **** 	             //tmp = inp32(0x1aaaa8);              		//Dummy Read DRAM
1308:F:/ARM_Project/W55FA92/N9H20/BSP/Driver/Source/SYS\wb_config.c ****                  outp32(SRAM_MEMCONTENT, inp32(0x1aaaa8));
 2268              		.loc 1 1308 0 is_stmt 1
 2269 087c DC369FE5 		ldr	r3, .L234+24
 2270 0880 6C279FE5 		ldr	r2, .L234+172
 2271 0884 003093E5 		ldr	r3, [r3]
 2272 0888 003082E5 		str	r3, [r2]
1309:F:/ARM_Project/W55FA92/N9H20/BSP/Driver/Source/SYS\wb_config.c **** 
1310:F:/ARM_Project/W55FA92/N9H20/BSP/Driver/Source/SYS\wb_config.c ****                  //skew = skew <<1;
1311:F:/ARM_Project/W55FA92/N9H20/BSP/Driver/Source/SYS\wb_config.c ****                  outp32(SRAM_SKEW, inp32(SRAM_SKEW)<<1);
 2273              		.loc 1 1311 0
 2274 088c 28379FE5 		ldr	r3, .L234+116
 2275 0890 003093E5 		ldr	r3, [r3]
 2276 0894 20279FE5 		ldr	r2, .L234+116
 2277 0898 8330A0E1 		lsl	r3, r3, #1
 2278 089c 003082E5 		str	r3, [r2]
1312:F:/ARM_Project/W55FA92/N9H20/BSP/Driver/Source/SYS\wb_config.c **** 	             switch(inp32(SRAM_VAR))
 2279              		.loc 1 1312 0
 2280 08a0 F8369FE5 		ldr	r3, .L234+88
 2281 08a4 003093E5 		ldr	r3, [r3]
 2282 08a8 000053E3 		cmp	r3, #0
 2283 08ac 0200000A 		beq	.L176
 2284 08b0 060053E3 		cmp	r3, #6
 2285 08b4 1800008A 		bhi	.L175
 2286 08b8 090000EA 		b	.L226
 2287              	.L176:
1313:F:/ARM_Project/W55FA92/N9H20/BSP/Driver/Source/SYS\wb_config.c **** 	             {
1314:F:/ARM_Project/W55FA92/N9H20/BSP/Driver/Source/SYS\wb_config.c **** 	                #if 0
1315:F:/ARM_Project/W55FA92/N9H20/BSP/Driver/Source/SYS\wb_config.c **** 	                   case 0:     skew_19 = (inp32(REG_SDOPM) & 0x10000000)!=0 ;    break;           
1316:F:/ARM_Project/W55FA92/N9H20/BSP/Driver/Source/SYS\wb_config.c **** 	                   case 1:     skew_1a = (inp32(REG_SDOPM) & 0x10000000)!=0 ;    break;
1317:F:/ARM_Project/W55FA92/N9H20/BSP/Driver/Source/SYS\wb_config.c **** 	                   case 2:     skew_1b = (inp32(REG_SDOPM) & 0x10000000)!=0 ;    break;
1318:F:/ARM_Project/W55FA92/N9H20/BSP/Driver/Source/SYS\wb_config.c **** 	                   case 3:     skew_1c = (inp32(REG_SDOPM) & 0x10000000)!=0 ;    break;
1319:F:/ARM_Project/W55FA92/N9H20/BSP/Driver/Source/SYS\wb_config.c **** 	                   case 4:     skew_1d = (inp32(REG_SDOPM) & 0x10000000)!=0 ;    break; 
1320:F:/ARM_Project/W55FA92/N9H20/BSP/Driver/Source/SYS\wb_config.c **** 	                   case 5:     skew_1e = (inp32(REG_SDOPM) & 0x10000000)!=0 ;    break;
1321:F:/ARM_Project/W55FA92/N9H20/BSP/Driver/Source/SYS\wb_config.c **** 	                   case 6:     skew_1f  = (inp32(REG_SDOPM) & 0x10000000)!=0 ;    break;	         
1322:F:/ARM_Project/W55FA92/N9H20/BSP/Driver/Source/SYS\wb_config.c **** 	                #else
1323:F:/ARM_Project/W55FA92/N9H20/BSP/Driver/Source/SYS\wb_config.c **** 	                   //case 0:	   skew = (inp32(REG_SDOPM) & 0x10000000)!=0 ;    break;
1324:F:/ARM_Project/W55FA92/N9H20/BSP/Driver/Source/SYS\wb_config.c **** 	                   //case 1:     skew = skew | ((inp32(REG_SDOPM) & 0x10000000)!=0);    break;
1325:F:/ARM_Project/W55FA92/N9H20/BSP/Driver/Source/SYS\wb_config.c **** 	                   //case 2:     skew = skew | ((inp32(REG_SDOPM) & 0x10000000)!=0);    break;
1326:F:/ARM_Project/W55FA92/N9H20/BSP/Driver/Source/SYS\wb_config.c **** 	                   //case 3:     skew = skew | ((inp32(REG_SDOPM) & 0x10000000)!=0);    break;
1327:F:/ARM_Project/W55FA92/N9H20/BSP/Driver/Source/SYS\wb_config.c **** 	                   //case 4:     skew = skew | ((inp32(REG_SDOPM) & 0x10000000)!=0);    break;
1328:F:/ARM_Project/W55FA92/N9H20/BSP/Driver/Source/SYS\wb_config.c **** 	                   //case 5:     skew = skew | ((inp32(REG_SDOPM) & 0x10000000)!=0);    break;
1329:F:/ARM_Project/W55FA92/N9H20/BSP/Driver/Source/SYS\wb_config.c **** 	                   //case 6:     skew = skew | ((inp32(REG_SDOPM) & 0x10000000)!=0);    break;
1330:F:/ARM_Project/W55FA92/N9H20/BSP/Driver/Source/SYS\wb_config.c **** 	                   case 0:	 outp32(SRAM_SKEW, ((inp32(REG_SDOPM) & 0x10000000)!=0) );   break;
 2288              		.loc 1 1330 0
 2289 08bc 28379FE5 		ldr	r3, .L234+164
 2290 08c0 003093E5 		ldr	r3, [r3]
 2291 08c4 013203E2 		and	r3, r3, #268435456
 2292 08c8 000053E3 		cmp	r3, #0
 2293 08cc 0130A013 		movne	r3, #1
 2294 08d0 0030A003 		moveq	r3, #0
 2295 08d4 FF2003E2 		and	r2, r3, #255
 2296 08d8 DC369FE5 		ldr	r3, .L234+116
 2297 08dc 002083E5 		str	r2, [r3]
 2298 08e0 0D0000EA 		b	.L175
 2299              	.L226:
1331:F:/ARM_Project/W55FA92/N9H20/BSP/Driver/Source/SYS\wb_config.c **** 	                   case 1:
1332:F:/ARM_Project/W55FA92/N9H20/BSP/Driver/Source/SYS\wb_config.c **** 	                   case 2:
1333:F:/ARM_Project/W55FA92/N9H20/BSP/Driver/Source/SYS\wb_config.c **** 	                   case 3:
1334:F:/ARM_Project/W55FA92/N9H20/BSP/Driver/Source/SYS\wb_config.c **** 	                   case 4:
1335:F:/ARM_Project/W55FA92/N9H20/BSP/Driver/Source/SYS\wb_config.c **** 	                   case 5:
1336:F:/ARM_Project/W55FA92/N9H20/BSP/Driver/Source/SYS\wb_config.c **** 	                   case 6:
1337:F:/ARM_Project/W55FA92/N9H20/BSP/Driver/Source/SYS\wb_config.c **** 	                	   	   	   outp32(SRAM_SKEW, inp32(SRAM_SKEW) | ((inp32(REG_SDOPM) & 0x10000000)!
 2300              		.loc 1 1337 0
 2301 08e4 D0369FE5 		ldr	r3, .L234+116
 2302 08e8 003093E5 		ldr	r3, [r3]
 2303 08ec F8269FE5 		ldr	r2, .L234+164
 2304 08f0 002092E5 		ldr	r2, [r2]
 2305 08f4 012202E2 		and	r2, r2, #268435456
 2306 08f8 000052E3 		cmp	r2, #0
 2307 08fc 0120A013 		movne	r2, #1
 2308 0900 0020A003 		moveq	r2, #0
 2309 0904 FF2002E2 		and	r2, r2, #255
 2310 0908 0210A0E1 		mov	r1, r2
 2311 090c A8269FE5 		ldr	r2, .L234+116
 2312 0910 013083E1 		orr	r3, r3, r1
 2313 0914 003082E5 		str	r3, [r2]
 2314 0918 0000A0E1 		nop
 2315              	.L175:
1338:F:/ARM_Project/W55FA92/N9H20/BSP/Driver/Source/SYS\wb_config.c **** 	                	   	   	   //skew = skew | ((inp32(REG_SDOPM) & 0x10000000)!=0);    break;
1339:F:/ARM_Project/W55FA92/N9H20/BSP/Driver/Source/SYS\wb_config.c **** 	                #endif   
1340:F:/ARM_Project/W55FA92/N9H20/BSP/Driver/Source/SYS\wb_config.c **** 	                }
1341:F:/ARM_Project/W55FA92/N9H20/BSP/Driver/Source/SYS\wb_config.c **** 					outp32(SRAM_VAR, inp32(SRAM_VAR)+1);
 2316              		.loc 1 1341 0
 2317 091c 7C369FE5 		ldr	r3, .L234+88
 2318 0920 003093E5 		ldr	r3, [r3]
 2319 0924 74269FE5 		ldr	r2, .L234+88
 2320 0928 013083E2 		add	r3, r3, #1
 2321 092c 003082E5 		str	r3, [r2]
 2322              	.L167:
1203:F:/ARM_Project/W55FA92/N9H20/BSP/Driver/Source/SYS\wb_config.c **** 	        {
 2323              		.loc 1 1203 0
 2324 0930 68369FE5 		ldr	r3, .L234+88
 2325 0934 003093E5 		ldr	r3, [r3]
 2326 0938 060053E3 		cmp	r3, #6
 2327 093c 7BFFFF9A 		bls	.L178
1342:F:/ARM_Project/W55FA92/N9H20/BSP/Driver/Source/SYS\wb_config.c **** 	        } //for(i=0; i<7; i=i+1)//
1343:F:/ARM_Project/W55FA92/N9H20/BSP/Driver/Source/SYS\wb_config.c **** 	        
1344:F:/ARM_Project/W55FA92/N9H20/BSP/Driver/Source/SYS\wb_config.c **** /*	 
1345:F:/ARM_Project/W55FA92/N9H20/BSP/Driver/Source/SYS\wb_config.c **** 	        //Choose final DLLMODE value and re-calibration
1346:F:/ARM_Project/W55FA92/N9H20/BSP/Driver/Source/SYS\wb_config.c **** 	        if( (skew_19==skew_1a) &&  (skew_1a==skew_1b)  && (skew_1b==skew_1c) && (skew_1c==skew_1d)
1347:F:/ARM_Project/W55FA92/N9H20/BSP/Driver/Source/SYS\wb_config.c **** 	        //////////// New modification ////////////////////////////    	        
1348:F:/ARM_Project/W55FA92/N9H20/BSP/Driver/Source/SYS\wb_config.c **** 	        	if( ((skew_1d!=skew_1e)  || (skew_1e!=skew_1f) )  && ((inp32(REG_SDOPM)>>28)>=3) ){	//>= 
1349:F:/ARM_Project/W55FA92/N9H20/BSP/Driver/Source/SYS\wb_config.c **** //	                	outp32(REG_DLLMODE, 0x1f);  
1350:F:/ARM_Project/W55FA92/N9H20/BSP/Driver/Source/SYS\wb_config.c **** 	                	change = 5;
1351:F:/ARM_Project/W55FA92/N9H20/BSP/Driver/Source/SYS\wb_config.c **** 	                }
1352:F:/ARM_Project/W55FA92/N9H20/BSP/Driver/Source/SYS\wb_config.c **** 	                else	
1353:F:/ARM_Project/W55FA92/N9H20/BSP/Driver/Source/SYS\wb_config.c **** 	            	outp32(REG_DLLMODE, 0x1a);	
1354:F:/ARM_Project/W55FA92/N9H20/BSP/Driver/Source/SYS\wb_config.c **** 	        }        
1355:F:/ARM_Project/W55FA92/N9H20/BSP/Driver/Source/SYS\wb_config.c **** 	        else if(                   (skew_1a==skew_1b)  && (skew_1b==skew_1c) && (skew_1c==skew_1d)
1356:F:/ARM_Project/W55FA92/N9H20/BSP/Driver/Source/SYS\wb_config.c **** 	        { 
1357:F:/ARM_Project/W55FA92/N9H20/BSP/Driver/Source/SYS\wb_config.c **** 	                outp32(REG_DLLMODE, 0x1b); 	
1358:F:/ARM_Project/W55FA92/N9H20/BSP/Driver/Source/SYS\wb_config.c **** 	                change = 1;             
1359:F:/ARM_Project/W55FA92/N9H20/BSP/Driver/Source/SYS\wb_config.c **** 	        }
1360:F:/ARM_Project/W55FA92/N9H20/BSP/Driver/Source/SYS\wb_config.c **** 	        else if(                                          (skew_1b==skew_1c) && (skew_1c==skew_1d)
1361:F:/ARM_Project/W55FA92/N9H20/BSP/Driver/Source/SYS\wb_config.c **** 	        {	//00111 or 11000
1362:F:/ARM_Project/W55FA92/N9H20/BSP/Driver/Source/SYS\wb_config.c **** 	        		outp32(REG_DLLMODE, 0x1c);
1363:F:/ARM_Project/W55FA92/N9H20/BSP/Driver/Source/SYS\wb_config.c **** 	        		change = 2;	
1364:F:/ARM_Project/W55FA92/N9H20/BSP/Driver/Source/SYS\wb_config.c **** 	        }
1365:F:/ARM_Project/W55FA92/N9H20/BSP/Driver/Source/SYS\wb_config.c **** 	        else if(                                                                 skew_1c==skew_1d 
1366:F:/ARM_Project/W55FA92/N9H20/BSP/Driver/Source/SYS\wb_config.c **** 	        {
1367:F:/ARM_Project/W55FA92/N9H20/BSP/Driver/Source/SYS\wb_config.c **** 	        		outp32(REG_DLLMODE, 0x1d);
1368:F:/ARM_Project/W55FA92/N9H20/BSP/Driver/Source/SYS\wb_config.c **** 	        		change = 3;	        	
1369:F:/ARM_Project/W55FA92/N9H20/BSP/Driver/Source/SYS\wb_config.c **** 	        } 
1370:F:/ARM_Project/W55FA92/N9H20/BSP/Driver/Source/SYS\wb_config.c **** 	         else if(                                                                skew_1c!=skew_1d 
1371:F:/ARM_Project/W55FA92/N9H20/BSP/Driver/Source/SYS\wb_config.c **** 	        {
1372:F:/ARM_Project/W55FA92/N9H20/BSP/Driver/Source/SYS\wb_config.c **** 	        		outp32(REG_DLLMODE, 0x1e);
1373:F:/ARM_Project/W55FA92/N9H20/BSP/Driver/Source/SYS\wb_config.c **** 	        		change = 4;	        	
1374:F:/ARM_Project/W55FA92/N9H20/BSP/Driver/Source/SYS\wb_config.c **** 	        } 
1375:F:/ARM_Project/W55FA92/N9H20/BSP/Driver/Source/SYS\wb_config.c **** 	       	else 
1376:F:/ARM_Project/W55FA92/N9H20/BSP/Driver/Source/SYS\wb_config.c **** 		                outp32(REG_DLLMODE, 0x1a);  
1377:F:/ARM_Project/W55FA92/N9H20/BSP/Driver/Source/SYS\wb_config.c **** */
1378:F:/ARM_Project/W55FA92/N9H20/BSP/Driver/Source/SYS\wb_config.c ****         #if 0
1379:F:/ARM_Project/W55FA92/N9H20/BSP/Driver/Source/SYS\wb_config.c ****             while (!(inpw(REG_UART_FSR+u32LocalUartVar) & 0x400000));
1380:F:/ARM_Project/W55FA92/N9H20/BSP/Driver/Source/SYS\wb_config.c ****             outpb(REG_UART_THR+u32LocalUartVar, skew_19+48);       
1381:F:/ARM_Project/W55FA92/N9H20/BSP/Driver/Source/SYS\wb_config.c ****             while (!(inpw(REG_UART_FSR+u32LocalUartVar) & 0x400000));
1382:F:/ARM_Project/W55FA92/N9H20/BSP/Driver/Source/SYS\wb_config.c ****             outpb(REG_UART_THR+u32LocalUartVar, skew_1a+48);    
1383:F:/ARM_Project/W55FA92/N9H20/BSP/Driver/Source/SYS\wb_config.c ****             while (!(inpw(REG_UART_FSR+u32LocalUartVar) & 0x400000));
1384:F:/ARM_Project/W55FA92/N9H20/BSP/Driver/Source/SYS\wb_config.c ****             outpb(REG_UART_THR+u32LocalUartVar, skew_1b+48);    		   
1385:F:/ARM_Project/W55FA92/N9H20/BSP/Driver/Source/SYS\wb_config.c ****             while (!(inpw(REG_UART_FSR+u32LocalUartVar) & 0x400000));
1386:F:/ARM_Project/W55FA92/N9H20/BSP/Driver/Source/SYS\wb_config.c ****             outpb(REG_UART_THR+u32LocalUartVar, skew_1c+48);    
1387:F:/ARM_Project/W55FA92/N9H20/BSP/Driver/Source/SYS\wb_config.c ****             while (!(inpw(REG_UART_FSR+u32LocalUartVar) & 0x400000));
1388:F:/ARM_Project/W55FA92/N9H20/BSP/Driver/Source/SYS\wb_config.c ****             outpb(REG_UART_THR+u32LocalUartVar, skew_1d+48); 
1389:F:/ARM_Project/W55FA92/N9H20/BSP/Driver/Source/SYS\wb_config.c ****             while (!(inpw(REG_UART_FSR+u32LocalUartVar) & 0x400000));
1390:F:/ARM_Project/W55FA92/N9H20/BSP/Driver/Source/SYS\wb_config.c ****             outpb(REG_UART_THR+u32LocalUartVar, '.');    			 					            
1391:F:/ARM_Project/W55FA92/N9H20/BSP/Driver/Source/SYS\wb_config.c ****             while (!(inpw(REG_UART_FSR+u32LocalUartVar) & 0x400000));
1392:F:/ARM_Project/W55FA92/N9H20/BSP/Driver/Source/SYS\wb_config.c ****             outpb(REG_UART_THR+u32LocalUartVar, skew_1e+48);    			 					            
1393:F:/ARM_Project/W55FA92/N9H20/BSP/Driver/Source/SYS\wb_config.c **** 	    #else
1394:F:/ARM_Project/W55FA92/N9H20/BSP/Driver/Source/SYS\wb_config.c ****             //for(i=6; i>=0; i=i-1)
1395:F:/ARM_Project/W55FA92/N9H20/BSP/Driver/Source/SYS\wb_config.c **** 			outp32(SRAM_VAR, 6);
 2328              		.loc 1 1395 0
 2329 0940 58369FE5 		ldr	r3, .L234+88
 2330 0944 0620A0E3 		mov	r2, #6
 2331 0948 002083E5 		str	r2, [r3]
1396:F:/ARM_Project/W55FA92/N9H20/BSP/Driver/Source/SYS\wb_config.c ****             while( (INT32)(inp32(SRAM_VAR)) >= 0)
 2332              		.loc 1 1396 0
 2333 094c 260000EA 		b	.L179
 2334              	.L182:
1397:F:/ARM_Project/W55FA92/N9H20/BSP/Driver/Source/SYS\wb_config.c ****             {	        
1398:F:/ARM_Project/W55FA92/N9H20/BSP/Driver/Source/SYS\wb_config.c ****                 //dly = (skew >>i)&0x01;
1399:F:/ARM_Project/W55FA92/N9H20/BSP/Driver/Source/SYS\wb_config.c ****                 //dbg_woc(inp32(SRAM_UARTPORT), '0'+dly);
1400:F:/ARM_Project/W55FA92/N9H20/BSP/Driver/Source/SYS\wb_config.c ****             	dbg_woc(inp32(SRAM_UARTPORT), '0'+ ((inp32(SRAM_SKEW)>>inp32(SRAM_VAR))&0x01)  );
 2335              		.loc 1 1400 0
 2336 0950 0000A0E1 		nop
 2337              	.L180:
 2338              		.loc 1 1400 0 is_stmt 0 discriminator 1
 2339 0954 FC359FE5 		ldr	r3, .L234+16
 2340 0958 002093E5 		ldr	r2, [r3]
 2341 095c 9C369FE5 		ldr	r3, .L234+184
 2342 0960 033082E0 		add	r3, r2, r3
 2343 0964 003093E5 		ldr	r3, [r3]
 2344 0968 013503E2 		and	r3, r3, #4194304
 2345 096c 000053E3 		cmp	r3, #0
 2346 0970 F7FFFF0A 		beq	.L180
 2347              		.loc 1 1400 0 discriminator 2
 2348 0974 40369FE5 		ldr	r3, .L234+116
 2349 0978 002093E5 		ldr	r2, [r3]
 2350 097c 1C369FE5 		ldr	r3, .L234+88
 2351 0980 003093E5 		ldr	r3, [r3]
 2352 0984 3233A0E1 		lsr	r3, r2, r3
 2353 0988 FF3003E2 		and	r3, r3, #255
 2354 098c 013003E2 		and	r3, r3, #1
 2355 0990 FF2003E2 		and	r2, r3, #255
 2356 0994 BC359FE5 		ldr	r3, .L234+16
 2357 0998 003093E5 		ldr	r3, [r3]
 2358 099c 2E3383E2 		add	r3, r3, #-1207959552
 2359 09a0 023983E2 		add	r3, r3, #32768
 2360 09a4 0310A0E1 		mov	r1, r3
 2361 09a8 303082E2 		add	r3, r2, #48
 2362 09ac FF3003E2 		and	r3, r3, #255
 2363 09b0 0030C1E5 		strb	r3, [r1]
 2364 09b4 0000A0E1 		nop
 2365              	.L181:
 2366              		.loc 1 1400 0 discriminator 4
 2367 09b8 98359FE5 		ldr	r3, .L234+16
 2368 09bc 002093E5 		ldr	r2, [r3]
 2369 09c0 38369FE5 		ldr	r3, .L234+184
 2370 09c4 033082E0 		add	r3, r2, r3
 2371 09c8 003093E5 		ldr	r3, [r3]
 2372 09cc 013503E2 		and	r3, r3, #4194304
 2373 09d0 000053E3 		cmp	r3, #0
 2374 09d4 F7FFFF0A 		beq	.L181
1401:F:/ARM_Project/W55FA92/N9H20/BSP/Driver/Source/SYS\wb_config.c **** 				outp32(SRAM_VAR, inp32(SRAM_VAR)-1);
 2375              		.loc 1 1401 0 is_stmt 1
 2376 09d8 C0359FE5 		ldr	r3, .L234+88
 2377 09dc 003093E5 		ldr	r3, [r3]
 2378 09e0 B8259FE5 		ldr	r2, .L234+88
 2379 09e4 013043E2 		sub	r3, r3, #1
 2380 09e8 003082E5 		str	r3, [r2]
 2381              	.L179:
1396:F:/ARM_Project/W55FA92/N9H20/BSP/Driver/Source/SYS\wb_config.c ****             while( (INT32)(inp32(SRAM_VAR)) >= 0)
 2382              		.loc 1 1396 0
 2383 09ec AC359FE5 		ldr	r3, .L234+88
 2384 09f0 003093E5 		ldr	r3, [r3]
 2385 09f4 000053E3 		cmp	r3, #0
 2386 09f8 D4FFFFAA 		bge	.L182
1402:F:/ARM_Project/W55FA92/N9H20/BSP/Driver/Source/SYS\wb_config.c ****             }	
1403:F:/ARM_Project/W55FA92/N9H20/BSP/Driver/Source/SYS\wb_config.c **** 	    #endif           
1404:F:/ARM_Project/W55FA92/N9H20/BSP/Driver/Source/SYS\wb_config.c **** #if 0
1405:F:/ARM_Project/W55FA92/N9H20/BSP/Driver/Source/SYS\wb_config.c ****             for(dly=0; dly<0x2800;dly++);
1406:F:/ARM_Project/W55FA92/N9H20/BSP/Driver/Source/SYS\wb_config.c **** #else			
1407:F:/ARM_Project/W55FA92/N9H20/BSP/Driver/Source/SYS\wb_config.c **** 	#ifdef __GNUC__
1408:F:/ARM_Project/W55FA92/N9H20/BSP/Driver/Source/SYS\wb_config.c ****             __asm
 2387              		.loc 1 1408 0
 2388              		.syntax divided
 2389              	@ 1408 "F:/ARM_Project/W55FA92/N9H20/BSP/Driver/Source/SYS/wb_config.c" 1
 2390 09fc 0A4BA0E3 		  mov 	r4, #0x2800    
 2391 0a00 0050A0E3 	  mov  r5, #0         
 2392 0a04 0160A0E3 	  mov  r6, #1         
 2393              	 DRAMHC:	           
 2394 0a08 065085E0 	  add  r5, r5, r6     
 2395 0a0c 040055E1 	  cmp 	r5, r4         
 2396 0a10 FCFFFF1A 	  bne  DRAMHC         
 2397              	
 2398              	@ 0 "" 2
1409:F:/ARM_Project/W55FA92/N9H20/BSP/Driver/Source/SYS\wb_config.c **** 			(
1410:F:/ARM_Project/W55FA92/N9H20/BSP/Driver/Source/SYS\wb_config.c **** 				"  mov 	%0, #0x2800    \n"
1411:F:/ARM_Project/W55FA92/N9H20/BSP/Driver/Source/SYS\wb_config.c **** 				"  mov  %1, #0         \n"
1412:F:/ARM_Project/W55FA92/N9H20/BSP/Driver/Source/SYS\wb_config.c **** 				"  mov  %2, #1         \n"
1413:F:/ARM_Project/W55FA92/N9H20/BSP/Driver/Source/SYS\wb_config.c **** 				" DRAMHC:	           \n"
1414:F:/ARM_Project/W55FA92/N9H20/BSP/Driver/Source/SYS\wb_config.c **** 				"  add  %1, %1, %2     \n"
1415:F:/ARM_Project/W55FA92/N9H20/BSP/Driver/Source/SYS\wb_config.c **** 				"  cmp 	%1, %0         \n"
1416:F:/ARM_Project/W55FA92/N9H20/BSP/Driver/Source/SYS\wb_config.c **** 				"  bne  DRAMHC         \n"
1417:F:/ARM_Project/W55FA92/N9H20/BSP/Driver/Source/SYS\wb_config.c **** 				: : "r"(reg2), "r"(reg1), "r"(reg0) :"memory"
1418:F:/ARM_Project/W55FA92/N9H20/BSP/Driver/Source/SYS\wb_config.c **** 			);
1419:F:/ARM_Project/W55FA92/N9H20/BSP/Driver/Source/SYS\wb_config.c ****     #else					
1420:F:/ARM_Project/W55FA92/N9H20/BSP/Driver/Source/SYS\wb_config.c **** 			__asm
1421:F:/ARM_Project/W55FA92/N9H20/BSP/Driver/Source/SYS\wb_config.c **** 			{
1422:F:/ARM_Project/W55FA92/N9H20/BSP/Driver/Source/SYS\wb_config.c **** 				mov     reg2, #0x2800
1423:F:/ARM_Project/W55FA92/N9H20/BSP/Driver/Source/SYS\wb_config.c **** 				mov     reg1, #0
1424:F:/ARM_Project/W55FA92/N9H20/BSP/Driver/Source/SYS\wb_config.c **** 				mov     reg0, #1
1425:F:/ARM_Project/W55FA92/N9H20/BSP/Driver/Source/SYS\wb_config.c **** 			DRAMHC: 
1426:F:/ARM_Project/W55FA92/N9H20/BSP/Driver/Source/SYS\wb_config.c **** 				add     reg1, reg1, reg0
1427:F:/ARM_Project/W55FA92/N9H20/BSP/Driver/Source/SYS\wb_config.c **** 				cmp     reg1, reg2
1428:F:/ARM_Project/W55FA92/N9H20/BSP/Driver/Source/SYS\wb_config.c **** 				bne     DRAMHC
1429:F:/ARM_Project/W55FA92/N9H20/BSP/Driver/Source/SYS\wb_config.c **** 			}	
1430:F:/ARM_Project/W55FA92/N9H20/BSP/Driver/Source/SYS\wb_config.c **** 	#endif		
1431:F:/ARM_Project/W55FA92/N9H20/BSP/Driver/Source/SYS\wb_config.c **** #endif					
1432:F:/ARM_Project/W55FA92/N9H20/BSP/Driver/Source/SYS\wb_config.c **** 	        
1433:F:/ARM_Project/W55FA92/N9H20/BSP/Driver/Source/SYS\wb_config.c **** 	        //dly = ((inp32(REG_CHIPCFG)&SDRAMSEL)>>4);
1434:F:/ARM_Project/W55FA92/N9H20/BSP/Driver/Source/SYS\wb_config.c **** 	        if( inp32(SRAM_MEMTYPE) ==3)
 2399              		.loc 1 1434 0
 2400              		.arm
 2401              		.syntax unified
 2402 0a14 CC359FE5 		ldr	r3, .L234+160
 2403 0a18 003093E5 		ldr	r3, [r3]
 2404 0a1c 030053E3 		cmp	r3, #3
 2405 0a20 0600001A 		bne	.L183
1435:F:/ARM_Project/W55FA92/N9H20/BSP/Driver/Source/SYS\wb_config.c **** 	        {//DDR2 type
1436:F:/ARM_Project/W55FA92/N9H20/BSP/Driver/Source/SYS\wb_config.c **** 	        	outp32(REG_SDOPM, 0x01130476);       	//DQS_PHASE_RST
 2406              		.loc 1 1436 0
 2407 0a24 C0359FE5 		ldr	r3, .L234+164
 2408 0a28 74259FE5 		ldr	r2, .L234+92
 2409 0a2c 002083E5 		str	r2, [r3]
1437:F:/ARM_Project/W55FA92/N9H20/BSP/Driver/Source/SYS\wb_config.c **** 	        	outp32(REG_SDOPM, 0x01030476);
 2410              		.loc 1 1437 0
 2411 0a30 B4359FE5 		ldr	r3, .L234+164
 2412 0a34 6C259FE5 		ldr	r2, .L234+96
 2413 0a38 002083E5 		str	r2, [r3]
 2414 0a3c 140000EA 		b	.L184
 2415              	.L183:
1438:F:/ARM_Project/W55FA92/N9H20/BSP/Driver/Source/SYS\wb_config.c **** 	        }
1439:F:/ARM_Project/W55FA92/N9H20/BSP/Driver/Source/SYS\wb_config.c **** 	        else if( inp32(SRAM_MEMTYPE) ==2)
 2416              		.loc 1 1439 0
 2417 0a40 A0359FE5 		ldr	r3, .L234+160
 2418 0a44 003093E5 		ldr	r3, [r3]
 2419 0a48 020053E3 		cmp	r3, #2
 2420 0a4c 0600001A 		bne	.L185
1440:F:/ARM_Project/W55FA92/N9H20/BSP/Driver/Source/SYS\wb_config.c **** 	        {//DDR type
1441:F:/ARM_Project/W55FA92/N9H20/BSP/Driver/Source/SYS\wb_config.c **** 	        	outp32(REG_SDOPM, 0x01130456);       	//DQS_PHASE_RST
 2421              		.loc 1 1441 0
 2422 0a50 94359FE5 		ldr	r3, .L234+164
 2423 0a54 50259FE5 		ldr	r2, .L234+100
 2424 0a58 002083E5 		str	r2, [r3]
1442:F:/ARM_Project/W55FA92/N9H20/BSP/Driver/Source/SYS\wb_config.c **** 	        	outp32(REG_SDOPM, 0x01030456);
 2425              		.loc 1 1442 0
 2426 0a5c 88359FE5 		ldr	r3, .L234+164
 2427 0a60 48259FE5 		ldr	r2, .L234+104
 2428 0a64 002083E5 		str	r2, [r3]
 2429 0a68 090000EA 		b	.L184
 2430              	.L185:
1443:F:/ARM_Project/W55FA92/N9H20/BSP/Driver/Source/SYS\wb_config.c **** 	        }
1444:F:/ARM_Project/W55FA92/N9H20/BSP/Driver/Source/SYS\wb_config.c **** 	        else if( inp32(SRAM_MEMTYPE) ==0)
 2431              		.loc 1 1444 0
 2432 0a6c 74359FE5 		ldr	r3, .L234+160
 2433 0a70 003093E5 		ldr	r3, [r3]
 2434 0a74 000053E3 		cmp	r3, #0
 2435 0a78 0500001A 		bne	.L184
1445:F:/ARM_Project/W55FA92/N9H20/BSP/Driver/Source/SYS\wb_config.c **** 	        {//SDRAM type
1446:F:/ARM_Project/W55FA92/N9H20/BSP/Driver/Source/SYS\wb_config.c **** 	        	outp32(REG_SDOPM, 0x01130416);       	//DQS_PHASE_RST
 2436              		.loc 1 1446 0
 2437 0a7c 68359FE5 		ldr	r3, .L234+164
 2438 0a80 2C259FE5 		ldr	r2, .L234+108
 2439 0a84 002083E5 		str	r2, [r3]
1447:F:/ARM_Project/W55FA92/N9H20/BSP/Driver/Source/SYS\wb_config.c **** 	        	outp32(REG_SDOPM, 0x01030416);
 2440              		.loc 1 1447 0
 2441 0a88 5C359FE5 		ldr	r3, .L234+164
 2442 0a8c 24259FE5 		ldr	r2, .L234+112
 2443 0a90 002083E5 		str	r2, [r3]
 2444              	.L184:
1448:F:/ARM_Project/W55FA92/N9H20/BSP/Driver/Source/SYS\wb_config.c **** 	        }
1449:F:/ARM_Project/W55FA92/N9H20/BSP/Driver/Source/SYS\wb_config.c **** 	        else
1450:F:/ARM_Project/W55FA92/N9H20/BSP/Driver/Source/SYS\wb_config.c **** 	        {
1451:F:/ARM_Project/W55FA92/N9H20/BSP/Driver/Source/SYS\wb_config.c **** 	        	
1452:F:/ARM_Project/W55FA92/N9H20/BSP/Driver/Source/SYS\wb_config.c **** 	        }
1453:F:/ARM_Project/W55FA92/N9H20/BSP/Driver/Source/SYS\wb_config.c **** 
1454:F:/ARM_Project/W55FA92/N9H20/BSP/Driver/Source/SYS\wb_config.c **** 	        
1455:F:/ARM_Project/W55FA92/N9H20/BSP/Driver/Source/SYS\wb_config.c **** 	        //tmp = inp32(0x1aaaa8);                  		//Dummy Read DRAM
1456:F:/ARM_Project/W55FA92/N9H20/BSP/Driver/Source/SYS\wb_config.c **** 	        outp32(SRAM_MEMCONTENT, inp32(0x1aaaa8));
 2445              		.loc 1 1456 0
 2446 0a94 C4349FE5 		ldr	r3, .L234+24
 2447 0a98 54259FE5 		ldr	r2, .L234+172
 2448 0a9c 003093E5 		ldr	r3, [r3]
 2449 0aa0 003082E5 		str	r3, [r2]
1457:F:/ARM_Project/W55FA92/N9H20/BSP/Driver/Source/SYS\wb_config.c **** 	        
1458:F:/ARM_Project/W55FA92/N9H20/BSP/Driver/Source/SYS\wb_config.c **** 	        dbg_woc(inp32(SRAM_UARTPORT), '\n');              
 2450              		.loc 1 1458 0
 2451 0aa4 0000A0E1 		nop
 2452              	.L186:
 2453              		.loc 1 1458 0 is_stmt 0 discriminator 1
 2454 0aa8 A8349FE5 		ldr	r3, .L234+16
 2455 0aac 002093E5 		ldr	r2, [r3]
 2456 0ab0 48359FE5 		ldr	r3, .L234+184
 2457 0ab4 033082E0 		add	r3, r2, r3
 2458 0ab8 003093E5 		ldr	r3, [r3]
 2459 0abc 013503E2 		and	r3, r3, #4194304
 2460 0ac0 000053E3 		cmp	r3, #0
 2461 0ac4 F7FFFF0A 		beq	.L186
 2462              		.loc 1 1458 0 discriminator 2
 2463 0ac8 88349FE5 		ldr	r3, .L234+16
 2464 0acc 003093E5 		ldr	r3, [r3]
 2465 0ad0 2E3383E2 		add	r3, r3, #-1207959552
 2466 0ad4 023983E2 		add	r3, r3, #32768
 2467 0ad8 0A20A0E3 		mov	r2, #10
 2468 0adc 0020C3E5 		strb	r2, [r3]
 2469 0ae0 0000A0E1 		nop
 2470              	.L187:
 2471              		.loc 1 1458 0 discriminator 4
 2472 0ae4 6C349FE5 		ldr	r3, .L234+16
 2473 0ae8 002093E5 		ldr	r2, [r3]
 2474 0aec 0C359FE5 		ldr	r3, .L234+184
 2475 0af0 033082E0 		add	r3, r2, r3
 2476 0af4 003093E5 		ldr	r3, [r3]
 2477 0af8 013503E2 		and	r3, r3, #4194304
 2478 0afc 000053E3 		cmp	r3, #0
 2479 0b00 F7FFFF0A 		beq	.L187
1459:F:/ARM_Project/W55FA92/N9H20/BSP/Driver/Source/SYS\wb_config.c **** 
1460:F:/ARM_Project/W55FA92/N9H20/BSP/Driver/Source/SYS\wb_config.c **** 	        //while (!(inpw(REG_UART_FSR+u32LocalUartVar) & 0x400000));
1461:F:/ARM_Project/W55FA92/N9H20/BSP/Driver/Source/SYS\wb_config.c **** 		    //outpb(REG_UART_THR+u32LocalUartVar, (inp32(REG_SDOPM)>>28)+48);  	//Phase
1462:F:/ARM_Project/W55FA92/N9H20/BSP/Driver/Source/SYS\wb_config.c **** 	        dbg_woc(inp32(SRAM_UARTPORT), '0'+ (inp32(REG_SDOPM)>>28));//Phase
 2480              		.loc 1 1462 0 is_stmt 1
 2481 0b04 0000A0E1 		nop
 2482              	.L188:
 2483              		.loc 1 1462 0 is_stmt 0 discriminator 1
 2484 0b08 48349FE5 		ldr	r3, .L234+16
 2485 0b0c 002093E5 		ldr	r2, [r3]
 2486 0b10 E8349FE5 		ldr	r3, .L234+184
 2487 0b14 033082E0 		add	r3, r2, r3
 2488 0b18 003093E5 		ldr	r3, [r3]
 2489 0b1c 013503E2 		and	r3, r3, #4194304
 2490 0b20 000053E3 		cmp	r3, #0
 2491 0b24 F7FFFF0A 		beq	.L188
 2492              		.loc 1 1462 0 discriminator 2
 2493 0b28 BC349FE5 		ldr	r3, .L234+164
 2494 0b2c 003093E5 		ldr	r3, [r3]
 2495 0b30 233EA0E1 		lsr	r3, r3, #28
 2496 0b34 FF2003E2 		and	r2, r3, #255
 2497 0b38 18349FE5 		ldr	r3, .L234+16
 2498 0b3c 003093E5 		ldr	r3, [r3]
 2499 0b40 2E3383E2 		add	r3, r3, #-1207959552
 2500 0b44 023983E2 		add	r3, r3, #32768
 2501 0b48 0310A0E1 		mov	r1, r3
 2502 0b4c 303082E2 		add	r3, r2, #48
 2503 0b50 FF3003E2 		and	r3, r3, #255
 2504 0b54 0030C1E5 		strb	r3, [r1]
 2505 0b58 0000A0E1 		nop
 2506              	.L189:
 2507              		.loc 1 1462 0 discriminator 4
 2508 0b5c F4339FE5 		ldr	r3, .L234+16
 2509 0b60 002093E5 		ldr	r2, [r3]
 2510 0b64 94349FE5 		ldr	r3, .L234+184
 2511 0b68 033082E0 		add	r3, r2, r3
 2512 0b6c 003093E5 		ldr	r3, [r3]
 2513 0b70 013503E2 		and	r3, r3, #4194304
 2514 0b74 000053E3 		cmp	r3, #0
 2515 0b78 F7FFFF0A 		beq	.L189
1463:F:/ARM_Project/W55FA92/N9H20/BSP/Driver/Source/SYS\wb_config.c **** 	                
1464:F:/ARM_Project/W55FA92/N9H20/BSP/Driver/Source/SYS\wb_config.c **** //Bon	        outp32(REG_DLLMODE, (inp32(REG_DLLMODE_R) - change) | 0x10 );  //Real DLL phase
1465:F:/ARM_Project/W55FA92/N9H20/BSP/Driver/Source/SYS\wb_config.c **** 		    outp32(REG_DLLMODE,  0x1a );  //Real DLL phase
 2516              		.loc 1 1465 0 is_stmt 1
 2517 0b7c 54349FE5 		ldr	r3, .L234+144
 2518 0b80 1A20A0E3 		mov	r2, #26
 2519 0b84 002083E5 		str	r2, [r3]
1466:F:/ARM_Project/W55FA92/N9H20/BSP/Driver/Source/SYS\wb_config.c **** #if 0					
1467:F:/ARM_Project/W55FA92/N9H20/BSP/Driver/Source/SYS\wb_config.c **** 			for(dly=0; dly<0x2800;dly++);	
1468:F:/ARM_Project/W55FA92/N9H20/BSP/Driver/Source/SYS\wb_config.c **** #else	
1469:F:/ARM_Project/W55FA92/N9H20/BSP/Driver/Source/SYS\wb_config.c **** 	#ifdef __GNUC__
1470:F:/ARM_Project/W55FA92/N9H20/BSP/Driver/Source/SYS\wb_config.c **** 			__asm
 2520              		.loc 1 1470 0
 2521              		.syntax divided
 2522              	@ 1470 "F:/ARM_Project/W55FA92/N9H20/BSP/Driver/Source/SYS/wb_config.c" 1
 2523 0b88 0149A0E3 		  mov 	r4, #0x4000    
 2524 0b8c 0050A0E3 	  mov  r5, #0         
 2525 0b90 0160A0E3 	  mov  r6, #1         
 2526              	 DRAMHD:	           
 2527 0b94 065085E0 	  add  r5, r5, r6     
 2528 0b98 040055E1 	  cmp 	r5, r4         
 2529 0b9c FCFFFF1A 	  bne  DRAMHD         
 2530              	
 2531              	@ 0 "" 2
1471:F:/ARM_Project/W55FA92/N9H20/BSP/Driver/Source/SYS\wb_config.c **** 			(
1472:F:/ARM_Project/W55FA92/N9H20/BSP/Driver/Source/SYS\wb_config.c **** 				"  mov 	%0, #0x4000    \n"
1473:F:/ARM_Project/W55FA92/N9H20/BSP/Driver/Source/SYS\wb_config.c **** 				"  mov  %1, #0         \n"
1474:F:/ARM_Project/W55FA92/N9H20/BSP/Driver/Source/SYS\wb_config.c **** 				"  mov  %2, #1         \n"
1475:F:/ARM_Project/W55FA92/N9H20/BSP/Driver/Source/SYS\wb_config.c **** 				" DRAMHD:	           \n"
1476:F:/ARM_Project/W55FA92/N9H20/BSP/Driver/Source/SYS\wb_config.c **** 				"  add  %1, %1, %2     \n"
1477:F:/ARM_Project/W55FA92/N9H20/BSP/Driver/Source/SYS\wb_config.c **** 				"  cmp 	%1, %0         \n"
1478:F:/ARM_Project/W55FA92/N9H20/BSP/Driver/Source/SYS\wb_config.c **** 				"  bne  DRAMHD         \n"
1479:F:/ARM_Project/W55FA92/N9H20/BSP/Driver/Source/SYS\wb_config.c **** 				: : "r"(reg2), "r"(reg1), "r"(reg0) :"memory"
1480:F:/ARM_Project/W55FA92/N9H20/BSP/Driver/Source/SYS\wb_config.c **** 			);
1481:F:/ARM_Project/W55FA92/N9H20/BSP/Driver/Source/SYS\wb_config.c ****     #else			
1482:F:/ARM_Project/W55FA92/N9H20/BSP/Driver/Source/SYS\wb_config.c **** 			__asm
1483:F:/ARM_Project/W55FA92/N9H20/BSP/Driver/Source/SYS\wb_config.c **** 			{
1484:F:/ARM_Project/W55FA92/N9H20/BSP/Driver/Source/SYS\wb_config.c **** 				mov     reg2, #0x2800
1485:F:/ARM_Project/W55FA92/N9H20/BSP/Driver/Source/SYS\wb_config.c **** 				mov     reg1, #0
1486:F:/ARM_Project/W55FA92/N9H20/BSP/Driver/Source/SYS\wb_config.c **** 				mov     reg0, #1
1487:F:/ARM_Project/W55FA92/N9H20/BSP/Driver/Source/SYS\wb_config.c **** 			DRAMHD: 
1488:F:/ARM_Project/W55FA92/N9H20/BSP/Driver/Source/SYS\wb_config.c **** 				add     reg1, reg1, reg0
1489:F:/ARM_Project/W55FA92/N9H20/BSP/Driver/Source/SYS\wb_config.c **** 				cmp     reg1, reg2
1490:F:/ARM_Project/W55FA92/N9H20/BSP/Driver/Source/SYS\wb_config.c **** 				bne     DRAMHD
1491:F:/ARM_Project/W55FA92/N9H20/BSP/Driver/Source/SYS\wb_config.c **** 			}
1492:F:/ARM_Project/W55FA92/N9H20/BSP/Driver/Source/SYS\wb_config.c **** 	#endif
1493:F:/ARM_Project/W55FA92/N9H20/BSP/Driver/Source/SYS\wb_config.c **** #endif		
1494:F:/ARM_Project/W55FA92/N9H20/BSP/Driver/Source/SYS\wb_config.c ****         	//tmp = inp32(0x1aaaa8);                 		//Read DRAM
1495:F:/ARM_Project/W55FA92/N9H20/BSP/Driver/Source/SYS\wb_config.c **** 			outp32(SRAM_MEMCONTENT, inp32(0x1aaaa8));
 2532              		.loc 1 1495 0
 2533              		.arm
 2534              		.syntax unified
 2535 0ba0 B8339FE5 		ldr	r3, .L234+24
 2536 0ba4 48249FE5 		ldr	r2, .L234+172
 2537 0ba8 003093E5 		ldr	r3, [r3]
 2538 0bac 003082E5 		str	r3, [r2]
1496:F:/ARM_Project/W55FA92/N9H20/BSP/Driver/Source/SYS\wb_config.c **** 
1497:F:/ARM_Project/W55FA92/N9H20/BSP/Driver/Source/SYS\wb_config.c **** 	        //while (!(inpw(REG_UART_FSR+u32LocalUartVar) & 0x400000));
1498:F:/ARM_Project/W55FA92/N9H20/BSP/Driver/Source/SYS\wb_config.c **** 			//outpb(REG_UART_THR+u32LocalUartVar, '.');
1499:F:/ARM_Project/W55FA92/N9H20/BSP/Driver/Source/SYS\wb_config.c ****         	dbg_woc(inp32(SRAM_UARTPORT), '.');
 2539              		.loc 1 1499 0
 2540 0bb0 0000A0E1 		nop
 2541              	.L190:
 2542              		.loc 1 1499 0 is_stmt 0 discriminator 1
 2543 0bb4 9C339FE5 		ldr	r3, .L234+16
 2544 0bb8 002093E5 		ldr	r2, [r3]
 2545 0bbc 3C349FE5 		ldr	r3, .L234+184
 2546 0bc0 033082E0 		add	r3, r2, r3
 2547 0bc4 003093E5 		ldr	r3, [r3]
 2548 0bc8 013503E2 		and	r3, r3, #4194304
 2549 0bcc 000053E3 		cmp	r3, #0
 2550 0bd0 F7FFFF0A 		beq	.L190
 2551              		.loc 1 1499 0 discriminator 2
 2552 0bd4 7C339FE5 		ldr	r3, .L234+16
 2553 0bd8 003093E5 		ldr	r3, [r3]
 2554 0bdc 2E3383E2 		add	r3, r3, #-1207959552
 2555 0be0 023983E2 		add	r3, r3, #32768
 2556 0be4 2E20A0E3 		mov	r2, #46
 2557 0be8 0020C3E5 		strb	r2, [r3]
 2558 0bec 0000A0E1 		nop
 2559              	.L191:
 2560              		.loc 1 1499 0 discriminator 4
 2561 0bf0 60339FE5 		ldr	r3, .L234+16
 2562 0bf4 002093E5 		ldr	r2, [r3]
 2563 0bf8 00349FE5 		ldr	r3, .L234+184
 2564 0bfc 033082E0 		add	r3, r2, r3
 2565 0c00 003093E5 		ldr	r3, [r3]
 2566 0c04 013503E2 		and	r3, r3, #4194304
 2567 0c08 000053E3 		cmp	r3, #0
 2568 0c0c F7FFFF0A 		beq	.L191
1500:F:/ARM_Project/W55FA92/N9H20/BSP/Driver/Source/SYS\wb_config.c **** 			
1501:F:/ARM_Project/W55FA92/N9H20/BSP/Driver/Source/SYS\wb_config.c **** 	        //while (!(inpw(REG_UART_FSR+u32LocalUartVar) & 0x400000));
1502:F:/ARM_Project/W55FA92/N9H20/BSP/Driver/Source/SYS\wb_config.c **** 			//outpb(REG_UART_THR+u32LocalUartVar, inp32(REG_DLLMODE_R)+39);
1503:F:/ARM_Project/W55FA92/N9H20/BSP/Driver/Source/SYS\wb_config.c ****         	dbg_woc(inp32(SRAM_UARTPORT), inp32(REG_DLLMODE_R)+39);
 2569              		.loc 1 1503 0 is_stmt 1
 2570 0c10 0000A0E1 		nop
 2571              	.L192:
 2572              		.loc 1 1503 0 is_stmt 0 discriminator 1
 2573 0c14 3C339FE5 		ldr	r3, .L234+16
 2574 0c18 002093E5 		ldr	r2, [r3]
 2575 0c1c DC339FE5 		ldr	r3, .L234+184
 2576 0c20 033082E0 		add	r3, r2, r3
 2577 0c24 003093E5 		ldr	r3, [r3]
 2578 0c28 013503E2 		and	r3, r3, #4194304
 2579 0c2c 000053E3 		cmp	r3, #0
 2580 0c30 F7FFFF0A 		beq	.L192
 2581              		.loc 1 1503 0 discriminator 2
 2582 0c34 98339FE5 		ldr	r3, .L234+140
 2583 0c38 003093E5 		ldr	r3, [r3]
 2584 0c3c FF2003E2 		and	r2, r3, #255
 2585 0c40 10339FE5 		ldr	r3, .L234+16
 2586 0c44 003093E5 		ldr	r3, [r3]
 2587 0c48 2E3383E2 		add	r3, r3, #-1207959552
 2588 0c4c 023983E2 		add	r3, r3, #32768
 2589 0c50 0310A0E1 		mov	r1, r3
 2590 0c54 273082E2 		add	r3, r2, #39
 2591 0c58 FF3003E2 		and	r3, r3, #255
 2592 0c5c 0030C1E5 		strb	r3, [r1]
 2593 0c60 0000A0E1 		nop
 2594              	.L193:
 2595              		.loc 1 1503 0 discriminator 4
 2596 0c64 EC329FE5 		ldr	r3, .L234+16
 2597 0c68 002093E5 		ldr	r2, [r3]
 2598 0c6c 8C339FE5 		ldr	r3, .L234+184
 2599 0c70 033082E0 		add	r3, r2, r3
 2600 0c74 003093E5 		ldr	r3, [r3]
 2601 0c78 013503E2 		and	r3, r3, #4194304
 2602 0c7c 000053E3 		cmp	r3, #0
 2603 0c80 F7FFFF0A 		beq	.L193
1504:F:/ARM_Project/W55FA92/N9H20/BSP/Driver/Source/SYS\wb_config.c **** 
1505:F:/ARM_Project/W55FA92/N9H20/BSP/Driver/Source/SYS\wb_config.c **** 	        //while (!(inpw(REG_UART_FSR+u32LocalUartVar) & 0x400000));
1506:F:/ARM_Project/W55FA92/N9H20/BSP/Driver/Source/SYS\wb_config.c **** 	        if( inp32(SRAM_MEMCONTENT) == 0x5555aaaa )
 2604              		.loc 1 1506 0 is_stmt 1
 2605 0c84 68339FE5 		ldr	r3, .L234+172
 2606 0c88 003093E5 		ldr	r3, [r3]
 2607 0c8c 64239FE5 		ldr	r2, .L234+176
 2608 0c90 020053E1 		cmp	r3, r2
 2609 0c94 1800001A 		bne	.L231
1507:F:/ARM_Project/W55FA92/N9H20/BSP/Driver/Source/SYS\wb_config.c **** 	        {
1508:F:/ARM_Project/W55FA92/N9H20/BSP/Driver/Source/SYS\wb_config.c **** 				//outpb(REG_UART_THR+u32LocalUartVar, 'p');
1509:F:/ARM_Project/W55FA92/N9H20/BSP/Driver/Source/SYS\wb_config.c **** 	        	dbg_woc(inp32(SRAM_UARTPORT), 'p');
 2610              		.loc 1 1509 0
 2611 0c98 0000A0E1 		nop
 2612              	.L195:
 2613              		.loc 1 1509 0 is_stmt 0 discriminator 1
 2614 0c9c B4329FE5 		ldr	r3, .L234+16
 2615 0ca0 002093E5 		ldr	r2, [r3]
 2616 0ca4 54339FE5 		ldr	r3, .L234+184
 2617 0ca8 033082E0 		add	r3, r2, r3
 2618 0cac 003093E5 		ldr	r3, [r3]
 2619 0cb0 013503E2 		and	r3, r3, #4194304
 2620 0cb4 000053E3 		cmp	r3, #0
 2621 0cb8 F7FFFF0A 		beq	.L195
 2622              		.loc 1 1509 0 discriminator 2
 2623 0cbc 94329FE5 		ldr	r3, .L234+16
 2624 0cc0 003093E5 		ldr	r3, [r3]
 2625 0cc4 2E3383E2 		add	r3, r3, #-1207959552
 2626 0cc8 023983E2 		add	r3, r3, #32768
 2627 0ccc 7020A0E3 		mov	r2, #112
 2628 0cd0 0020C3E5 		strb	r2, [r3]
 2629 0cd4 0000A0E1 		nop
 2630              	.L196:
 2631              		.loc 1 1509 0 discriminator 4
 2632 0cd8 78329FE5 		ldr	r3, .L234+16
 2633 0cdc 002093E5 		ldr	r2, [r3]
 2634 0ce0 18339FE5 		ldr	r3, .L234+184
 2635 0ce4 033082E0 		add	r3, r2, r3
 2636 0ce8 003093E5 		ldr	r3, [r3]
 2637 0cec 013503E2 		and	r3, r3, #4194304
 2638 0cf0 000053E3 		cmp	r3, #0
 2639 0cf4 F7FFFF0A 		beq	.L196
 2640 0cf8 170000EA 		b	.L232
 2641              	.L231:
1510:F:/ARM_Project/W55FA92/N9H20/BSP/Driver/Source/SYS\wb_config.c **** 	        }
1511:F:/ARM_Project/W55FA92/N9H20/BSP/Driver/Source/SYS\wb_config.c **** 			else 
1512:F:/ARM_Project/W55FA92/N9H20/BSP/Driver/Source/SYS\wb_config.c **** 			{
1513:F:/ARM_Project/W55FA92/N9H20/BSP/Driver/Source/SYS\wb_config.c **** 				//outpb(REG_UART_THR+u32LocalUartVar, 'f');
1514:F:/ARM_Project/W55FA92/N9H20/BSP/Driver/Source/SYS\wb_config.c **** 				dbg_woc(inp32(SRAM_UARTPORT), 'f');
 2642              		.loc 1 1514 0 is_stmt 1
 2643 0cfc 0000A0E1 		nop
 2644              	.L198:
 2645              		.loc 1 1514 0 is_stmt 0 discriminator 1
 2646 0d00 50329FE5 		ldr	r3, .L234+16
 2647 0d04 002093E5 		ldr	r2, [r3]
 2648 0d08 F0329FE5 		ldr	r3, .L234+184
 2649 0d0c 033082E0 		add	r3, r2, r3
 2650 0d10 003093E5 		ldr	r3, [r3]
 2651 0d14 013503E2 		and	r3, r3, #4194304
 2652 0d18 000053E3 		cmp	r3, #0
 2653 0d1c F7FFFF0A 		beq	.L198
 2654              		.loc 1 1514 0 discriminator 2
 2655 0d20 30329FE5 		ldr	r3, .L234+16
 2656 0d24 003093E5 		ldr	r3, [r3]
 2657 0d28 2E3383E2 		add	r3, r3, #-1207959552
 2658 0d2c 023983E2 		add	r3, r3, #32768
 2659 0d30 6620A0E3 		mov	r2, #102
 2660 0d34 0020C3E5 		strb	r2, [r3]
 2661 0d38 0000A0E1 		nop
 2662              	.L199:
 2663              		.loc 1 1514 0 discriminator 4
 2664 0d3c 14329FE5 		ldr	r3, .L234+16
 2665 0d40 002093E5 		ldr	r2, [r3]
 2666 0d44 B4329FE5 		ldr	r3, .L234+184
 2667 0d48 033082E0 		add	r3, r2, r3
 2668 0d4c 003093E5 		ldr	r3, [r3]
 2669 0d50 013503E2 		and	r3, r3, #4194304
 2670 0d54 000053E3 		cmp	r3, #0
 2671 0d58 F7FFFF0A 		beq	.L199
 2672              	.L232:
1515:F:/ARM_Project/W55FA92/N9H20/BSP/Driver/Source/SYS\wb_config.c **** 			}
1516:F:/ARM_Project/W55FA92/N9H20/BSP/Driver/Source/SYS\wb_config.c ****             //while (!(inpw(REG_UART_FSR+u32LocalUartVar) & 0x400000));
1517:F:/ARM_Project/W55FA92/N9H20/BSP/Driver/Source/SYS\wb_config.c ****             //outpb(REG_UART_THR+u32LocalUartVar,(inp32(REG_SDOPM)>>28)+48); 	//Final Phase
1518:F:/ARM_Project/W55FA92/N9H20/BSP/Driver/Source/SYS\wb_config.c **** 	        dbg_woc(inp32(SRAM_UARTPORT), (inp32(REG_SDOPM)>>28)+'0');
 2673              		.loc 1 1518 0 is_stmt 1
 2674 0d5c 0000A0E1 		nop
 2675              	.L200:
 2676              		.loc 1 1518 0 is_stmt 0 discriminator 1
 2677 0d60 F0319FE5 		ldr	r3, .L234+16
 2678 0d64 002093E5 		ldr	r2, [r3]
 2679 0d68 90329FE5 		ldr	r3, .L234+184
 2680 0d6c 033082E0 		add	r3, r2, r3
 2681 0d70 003093E5 		ldr	r3, [r3]
 2682 0d74 013503E2 		and	r3, r3, #4194304
 2683 0d78 000053E3 		cmp	r3, #0
 2684 0d7c F7FFFF0A 		beq	.L200
 2685              		.loc 1 1518 0 discriminator 2
 2686 0d80 64329FE5 		ldr	r3, .L234+164
 2687 0d84 003093E5 		ldr	r3, [r3]
 2688 0d88 233EA0E1 		lsr	r3, r3, #28
 2689 0d8c FF2003E2 		and	r2, r3, #255
 2690 0d90 C0319FE5 		ldr	r3, .L234+16
 2691 0d94 003093E5 		ldr	r3, [r3]
 2692 0d98 2E3383E2 		add	r3, r3, #-1207959552
 2693 0d9c 023983E2 		add	r3, r3, #32768
 2694 0da0 0310A0E1 		mov	r1, r3
 2695 0da4 303082E2 		add	r3, r2, #48
 2696 0da8 FF3003E2 		and	r3, r3, #255
 2697 0dac 0030C1E5 		strb	r3, [r1]
 2698 0db0 0000A0E1 		nop
 2699              	.L201:
 2700              		.loc 1 1518 0 discriminator 4
 2701 0db4 9C319FE5 		ldr	r3, .L234+16
 2702 0db8 002093E5 		ldr	r2, [r3]
 2703 0dbc 3C329FE5 		ldr	r3, .L234+184
 2704 0dc0 033082E0 		add	r3, r2, r3
 2705 0dc4 003093E5 		ldr	r3, [r3]
 2706 0dc8 013503E2 		and	r3, r3, #4194304
 2707 0dcc 000053E3 		cmp	r3, #0
 2708 0dd0 F7FFFF0A 		beq	.L201
1519:F:/ARM_Project/W55FA92/N9H20/BSP/Driver/Source/SYS\wb_config.c **** 
1520:F:/ARM_Project/W55FA92/N9H20/BSP/Driver/Source/SYS\wb_config.c ****             //while (!(inpw(REG_UART_FSR+u32LocalUartVar) & 0x400000));
1521:F:/ARM_Project/W55FA92/N9H20/BSP/Driver/Source/SYS\wb_config.c ****             //outpb(REG_UART_THR+u32LocalUartVar, ':');
1522:F:/ARM_Project/W55FA92/N9H20/BSP/Driver/Source/SYS\wb_config.c **** 	        dbg_woc(inp32(SRAM_UARTPORT), ':');
 2709              		.loc 1 1522 0 is_stmt 1
 2710 0dd4 0000A0E1 		nop
 2711              	.L202:
 2712              		.loc 1 1522 0 is_stmt 0 discriminator 1
 2713 0dd8 78319FE5 		ldr	r3, .L234+16
 2714 0ddc 002093E5 		ldr	r2, [r3]
 2715 0de0 18329FE5 		ldr	r3, .L234+184
 2716 0de4 033082E0 		add	r3, r2, r3
 2717 0de8 003093E5 		ldr	r3, [r3]
 2718 0dec 013503E2 		and	r3, r3, #4194304
 2719 0df0 000053E3 		cmp	r3, #0
 2720 0df4 F7FFFF0A 		beq	.L202
 2721              		.loc 1 1522 0 discriminator 2
 2722 0df8 58319FE5 		ldr	r3, .L234+16
 2723 0dfc 003093E5 		ldr	r3, [r3]
 2724 0e00 2E3383E2 		add	r3, r3, #-1207959552
 2725 0e04 023983E2 		add	r3, r3, #32768
 2726 0e08 3A20A0E3 		mov	r2, #58
 2727 0e0c 0020C3E5 		strb	r2, [r3]
 2728 0e10 0000A0E1 		nop
 2729              	.L203:
 2730              		.loc 1 1522 0 discriminator 4
 2731 0e14 3C319FE5 		ldr	r3, .L234+16
 2732 0e18 002093E5 		ldr	r2, [r3]
 2733 0e1c DC319FE5 		ldr	r3, .L234+184
 2734 0e20 033082E0 		add	r3, r2, r3
 2735 0e24 003093E5 		ldr	r3, [r3]
 2736 0e28 013503E2 		and	r3, r3, #4194304
 2737 0e2c 000053E3 		cmp	r3, #0
 2738 0e30 F7FFFF0A 		beq	.L203
1523:F:/ARM_Project/W55FA92/N9H20/BSP/Driver/Source/SYS\wb_config.c **** 
1524:F:/ARM_Project/W55FA92/N9H20/BSP/Driver/Source/SYS\wb_config.c **** 			//if(tmp != 0x5555aaaa)
1525:F:/ARM_Project/W55FA92/N9H20/BSP/Driver/Source/SYS\wb_config.c **** 	        if( inp32(SRAM_MEMCONTENT) != 0x5555aaaa )
 2739              		.loc 1 1525 0 is_stmt 1
 2740 0e34 B8319FE5 		ldr	r3, .L234+172
 2741 0e38 003093E5 		ldr	r3, [r3]
 2742 0e3c B4219FE5 		ldr	r2, .L234+176
 2743 0e40 020053E1 		cmp	r3, r2
 2744 0e44 0000000A 		beq	.L204
1526:F:/ARM_Project/W55FA92/N9H20/BSP/Driver/Source/SYS\wb_config.c **** 				goto again;
 2745              		.loc 1 1526 0
 2746 0e48 26FEFFEA 		b	.L166
 2747              	.L204:
1527:F:/ARM_Project/W55FA92/N9H20/BSP/Driver/Source/SYS\wb_config.c **** 			
1528:F:/ARM_Project/W55FA92/N9H20/BSP/Driver/Source/SYS\wb_config.c **** 			
1529:F:/ARM_Project/W55FA92/N9H20/BSP/Driver/Source/SYS\wb_config.c **** 	#ifdef N9H26K_A_VERSION
1530:F:/ARM_Project/W55FA92/N9H20/BSP/Driver/Source/SYS\wb_config.c **** 	
1531:F:/ARM_Project/W55FA92/N9H20/BSP/Driver/Source/SYS\wb_config.c **** 	#else
1532:F:/ARM_Project/W55FA92/N9H20/BSP/Driver/Source/SYS\wb_config.c **** 		#if 0
1533:F:/ARM_Project/W55FA92/N9H20/BSP/Driver/Source/SYS\wb_config.c **** 		if(u32DramFreq>=180000000)
1534:F:/ARM_Project/W55FA92/N9H20/BSP/Driver/Source/SYS\wb_config.c **** 			outp32(REG_SDOPM, 0x0103046E);       	// Enable open page
1535:F:/ARM_Project/W55FA92/N9H20/BSP/Driver/Source/SYS\wb_config.c **** 		else
1536:F:/ARM_Project/W55FA92/N9H20/BSP/Driver/Source/SYS\wb_config.c **** 			outp32(REG_SDOPM, 0x01030476);       	// Disable open page
1537:F:/ARM_Project/W55FA92/N9H20/BSP/Driver/Source/SYS\wb_config.c **** 		#else
1538:F:/ARM_Project/W55FA92/N9H20/BSP/Driver/Source/SYS\wb_config.c **** 		//dly = (inp32(REG_CHIPCFG)&SDRAMSEL)>>4;
1539:F:/ARM_Project/W55FA92/N9H20/BSP/Driver/Source/SYS\wb_config.c **** 		//if(u32DramFreq>=180000000)
1540:F:/ARM_Project/W55FA92/N9H20/BSP/Driver/Source/SYS\wb_config.c **** 		if(inp32(SRAM_DRAMFREQ) >= 180000000)
 2748              		.loc 1 1540 0
 2749 0e4c FC309FE5 		ldr	r3, .L234+8
 2750 0e50 003093E5 		ldr	r3, [r3]
 2751 0e54 64219FE5 		ldr	r2, .L234+120
 2752 0e58 020053E1 		cmp	r3, r2
 2753 0e5c 1700009A 		bls	.L205
1541:F:/ARM_Project/W55FA92/N9H20/BSP/Driver/Source/SYS\wb_config.c **** 		{
1542:F:/ARM_Project/W55FA92/N9H20/BSP/Driver/Source/SYS\wb_config.c **** 			if( inp32(SRAM_MEMTYPE) == 3)
 2754              		.loc 1 1542 0
 2755 0e60 80319FE5 		ldr	r3, .L234+160
 2756 0e64 003093E5 		ldr	r3, [r3]
 2757 0e68 030053E3 		cmp	r3, #3
 2758 0e6c 0300001A 		bne	.L206
1543:F:/ARM_Project/W55FA92/N9H20/BSP/Driver/Source/SYS\wb_config.c **** 			{//DDR2 type
1544:F:/ARM_Project/W55FA92/N9H20/BSP/Driver/Source/SYS\wb_config.c **** 				outp32(REG_SDOPM, 0x0103046E);       	// Enable open page
 2759              		.loc 1 1544 0
 2760 0e70 74319FE5 		ldr	r3, .L234+164
 2761 0e74 48219FE5 		ldr	r2, .L234+124
 2762 0e78 002083E5 		str	r2, [r3]
 2763 0e7c 260000EA 		b	.L209
 2764              	.L206:
1545:F:/ARM_Project/W55FA92/N9H20/BSP/Driver/Source/SYS\wb_config.c **** 			}
1546:F:/ARM_Project/W55FA92/N9H20/BSP/Driver/Source/SYS\wb_config.c **** 			else if( inp32(SRAM_MEMTYPE) == 2)
 2765              		.loc 1 1546 0
 2766 0e80 60319FE5 		ldr	r3, .L234+160
 2767 0e84 003093E5 		ldr	r3, [r3]
 2768 0e88 020053E3 		cmp	r3, #2
 2769 0e8c 0300001A 		bne	.L208
1547:F:/ARM_Project/W55FA92/N9H20/BSP/Driver/Source/SYS\wb_config.c **** 			{//DDR type
1548:F:/ARM_Project/W55FA92/N9H20/BSP/Driver/Source/SYS\wb_config.c **** 			 	outp32(REG_SDOPM, 0x0103044E);       	// Enable open page
 2770              		.loc 1 1548 0
 2771 0e90 54319FE5 		ldr	r3, .L234+164
 2772 0e94 2C219FE5 		ldr	r2, .L234+128
 2773 0e98 002083E5 		str	r2, [r3]
 2774 0e9c 1E0000EA 		b	.L209
 2775              	.L208:
1549:F:/ARM_Project/W55FA92/N9H20/BSP/Driver/Source/SYS\wb_config.c **** 			}else if( inp32(SRAM_MEMTYPE)  ==0)
 2776              		.loc 1 1549 0
 2777 0ea0 40319FE5 		ldr	r3, .L234+160
 2778 0ea4 003093E5 		ldr	r3, [r3]
 2779 0ea8 000053E3 		cmp	r3, #0
 2780 0eac 1A00001A 		bne	.L209
1550:F:/ARM_Project/W55FA92/N9H20/BSP/Driver/Source/SYS\wb_config.c **** 			{//SDRAM type
1551:F:/ARM_Project/W55FA92/N9H20/BSP/Driver/Source/SYS\wb_config.c **** 			 	outp32(REG_SDOPM, 0x0103040E);       	// Enable open page
 2781              		.loc 1 1551 0
 2782 0eb0 34319FE5 		ldr	r3, .L234+164
 2783 0eb4 10219FE5 		ldr	r2, .L234+132
 2784 0eb8 002083E5 		str	r2, [r3]
 2785 0ebc 160000EA 		b	.L209
 2786              	.L205:
1552:F:/ARM_Project/W55FA92/N9H20/BSP/Driver/Source/SYS\wb_config.c **** 			}
1553:F:/ARM_Project/W55FA92/N9H20/BSP/Driver/Source/SYS\wb_config.c **** 		}	
1554:F:/ARM_Project/W55FA92/N9H20/BSP/Driver/Source/SYS\wb_config.c **** 		else
1555:F:/ARM_Project/W55FA92/N9H20/BSP/Driver/Source/SYS\wb_config.c **** 		{
1556:F:/ARM_Project/W55FA92/N9H20/BSP/Driver/Source/SYS\wb_config.c **** 			if( inp32(SRAM_MEMTYPE)  ==3)
 2787              		.loc 1 1556 0
 2788 0ec0 20319FE5 		ldr	r3, .L234+160
 2789 0ec4 003093E5 		ldr	r3, [r3]
 2790 0ec8 030053E3 		cmp	r3, #3
 2791 0ecc 0300001A 		bne	.L210
1557:F:/ARM_Project/W55FA92/N9H20/BSP/Driver/Source/SYS\wb_config.c **** 			{//DDR2 type
1558:F:/ARM_Project/W55FA92/N9H20/BSP/Driver/Source/SYS\wb_config.c **** 				outp32(REG_SDOPM, 0x01030476);       	// Disable open page
 2792              		.loc 1 1558 0
 2793 0ed0 14319FE5 		ldr	r3, .L234+164
 2794 0ed4 CC209FE5 		ldr	r2, .L234+96
 2795 0ed8 002083E5 		str	r2, [r3]
 2796 0edc 0E0000EA 		b	.L209
 2797              	.L210:
1559:F:/ARM_Project/W55FA92/N9H20/BSP/Driver/Source/SYS\wb_config.c **** 			}
1560:F:/ARM_Project/W55FA92/N9H20/BSP/Driver/Source/SYS\wb_config.c **** 			else if( inp32(SRAM_MEMTYPE)  ==2)
 2798              		.loc 1 1560 0
 2799 0ee0 00319FE5 		ldr	r3, .L234+160
 2800 0ee4 003093E5 		ldr	r3, [r3]
 2801 0ee8 020053E3 		cmp	r3, #2
 2802 0eec 0300001A 		bne	.L211
1561:F:/ARM_Project/W55FA92/N9H20/BSP/Driver/Source/SYS\wb_config.c **** 			{//DDR type
1562:F:/ARM_Project/W55FA92/N9H20/BSP/Driver/Source/SYS\wb_config.c **** 				outp32(REG_SDOPM, 0x01030456);       	// Disable open page								
 2803              		.loc 1 1562 0
 2804 0ef0 F4309FE5 		ldr	r3, .L234+164
 2805 0ef4 B4209FE5 		ldr	r2, .L234+104
 2806 0ef8 002083E5 		str	r2, [r3]
 2807 0efc 060000EA 		b	.L209
 2808              	.L211:
1563:F:/ARM_Project/W55FA92/N9H20/BSP/Driver/Source/SYS\wb_config.c **** 			}
1564:F:/ARM_Project/W55FA92/N9H20/BSP/Driver/Source/SYS\wb_config.c **** 			else if( inp32(SRAM_MEMTYPE)  ==0)
 2809              		.loc 1 1564 0
 2810 0f00 E0309FE5 		ldr	r3, .L234+160
 2811 0f04 003093E5 		ldr	r3, [r3]
 2812 0f08 000053E3 		cmp	r3, #0
 2813 0f0c 0200001A 		bne	.L209
1565:F:/ARM_Project/W55FA92/N9H20/BSP/Driver/Source/SYS\wb_config.c **** 			{//SDRAM type
1566:F:/ARM_Project/W55FA92/N9H20/BSP/Driver/Source/SYS\wb_config.c **** 			 	outp32(REG_SDOPM, 0x01030416);       	// Disable open page
 2814              		.loc 1 1566 0
 2815 0f10 D4309FE5 		ldr	r3, .L234+164
 2816 0f14 9C209FE5 		ldr	r2, .L234+112
 2817 0f18 002083E5 		str	r2, [r3]
 2818              	.L209:
1567:F:/ARM_Project/W55FA92/N9H20/BSP/Driver/Source/SYS\wb_config.c **** 			}
1568:F:/ARM_Project/W55FA92/N9H20/BSP/Driver/Source/SYS\wb_config.c **** 		 }			
1569:F:/ARM_Project/W55FA92/N9H20/BSP/Driver/Source/SYS\wb_config.c **** 		#endif	
1570:F:/ARM_Project/W55FA92/N9H20/BSP/Driver/Source/SYS\wb_config.c **** 	#endif /* N9H26K_A_VERSION */
1571:F:/ARM_Project/W55FA92/N9H20/BSP/Driver/Source/SYS\wb_config.c **** 		if( inp32(SRAM_MEMTYPE)  ==2)//DDR
 2819              		.loc 1 1571 0
 2820 0f1c C4309FE5 		ldr	r3, .L234+160
 2821 0f20 003093E5 		ldr	r3, [r3]
 2822 0f24 020053E3 		cmp	r3, #2
 2823 0f28 E200001A 		bne	.L213
1572:F:/ARM_Project/W55FA92/N9H20/BSP/Driver/Source/SYS\wb_config.c **** 			outp32(REG_SDMR, inp32(REG_SDMR) & (~0xF0) | 0x30);     //CL = 3;	
 2824              		.loc 1 1572 0
 2825 0f2c B0309FE5 		ldr	r3, .L234+156
 2826 0f30 003093E5 		ldr	r3, [r3]
 2827 0f34 F030C3E3 		bic	r3, r3, #240
 2828 0f38 A4209FE5 		ldr	r2, .L234+156
 2829 0f3c 303083E3 		orr	r3, r3, #48
 2830 0f40 003082E5 		str	r3, [r2]
 2831 0f44 DB0000EA 		b	.L213
 2832              	.L235:
 2833              		.align	2
 2834              	.L234:
 2835 0f48 E01F00FF 		.word	-16769056
 2836 0f4c E41F00FF 		.word	-16769052
 2837 0f50 E81F00FF 		.word	-16769048
 2838 0f54 EC1F00FF 		.word	-16769044
 2839 0f58 F81F00FF 		.word	-16769032
 2840 0f5c 00000000 		.word	u32UartPort
 2841 0f60 A8AA1A00 		.word	1747624
 2842 0f64 0C0200B0 		.word	-1342176756
 2843 0f68 F01F00FF 		.word	-16769040
 2844 0f6c 043000B0 		.word	-1342164988
 2845 0f70 FFD7B805 		.word	95999999
 2846 0f74 400200B0 		.word	-1342176704
 2847 0f78 280200B0 		.word	-1342176728
 2848 0f7c 740000B0 		.word	-1342177164
 2849 0f80 200200B0 		.word	-1342176736
 2850 0f84 240200B0 		.word	-1342176732
 2851 0f88 F41F00FF 		.word	-16769036
 2852 0f8c 0090D003 		.word	64000000
 2853 0f90 00D8B805 		.word	96000000
 2854 0f94 32050000 		.word	1330
 2855 0f98 32040000 		.word	1074
 2856 0f9c 00888800 		.word	8947712
 2857 0fa0 FC1F00FF 		.word	-16769028
 2858 0fa4 76041301 		.word	18023542
 2859 0fa8 76040301 		.word	16974966
 2860 0fac 56041301 		.word	18023510
 2861 0fb0 56040301 		.word	16974934
 2862 0fb4 16041301 		.word	18023446
 2863 0fb8 16040301 		.word	16974870
 2864 0fbc D81F00FF 		.word	-16769064
 2865 0fc0 FF94BA0A 		.word	179999999
 2866 0fc4 6E040301 		.word	16974958
 2867 0fc8 4E040301 		.word	16974926
 2868 0fcc 0E040301 		.word	16974862
 2869 0fd0 1C3000B0 		.word	-1342164964
 2870 0fd4 583000B0 		.word	-1342164904
 2871 0fd8 543000B0 		.word	-1342164908
 2872 0fdc 76840700 		.word	492662
 2873 0fe0 56840700 		.word	492630
 2874 0fe4 183000B0 		.word	-1342164968
 2875 0fe8 D41F00FF 		.word	-16769068
 2876 0fec 003000B0 		.word	-1342164992
 2877 0ff0 16840700 		.word	492566
 2878 0ff4 D01F00FF 		.word	-16769072
 2879 0ff8 AAAA5555 		.word	1431677610
 2880 0ffc F81F00FF 		.word	-16769032
 2881 1000 188000B8 		.word	-1207926760
 2882 1004 343000B0 		.word	-1342164940
 2883 1008 A8AA1A00 		.word	1747624
 2884              	.L229:
1573:F:/ARM_Project/W55FA92/N9H20/BSP/Driver/Source/SYS\wb_config.c **** 			
1574:F:/ARM_Project/W55FA92/N9H20/BSP/Driver/Source/SYS\wb_config.c **** 	}
1575:F:/ARM_Project/W55FA92/N9H20/BSP/Driver/Source/SYS\wb_config.c **** 	else  //Low freq. mode setting
1576:F:/ARM_Project/W55FA92/N9H20/BSP/Driver/Source/SYS\wb_config.c **** 	{		
1577:F:/ARM_Project/W55FA92/N9H20/BSP/Driver/Source/SYS\wb_config.c **** 			dbg_woc(inp32(SRAM_UARTPORT), 'V');
 2885              		.loc 1 1577 0
 2886 100c 0000A0E1 		nop
 2887              	.L214:
 2888              		.loc 1 1577 0 is_stmt 0 discriminator 1
 2889 1010 1C301FE5 		ldr	r3, .L234+180
 2890 1014 002093E5 		ldr	r2, [r3]
 2891 1018 20301FE5 		ldr	r3, .L234+184
 2892 101c 033082E0 		add	r3, r2, r3
 2893 1020 003093E5 		ldr	r3, [r3]
 2894 1024 013503E2 		and	r3, r3, #4194304
 2895 1028 000053E3 		cmp	r3, #0
 2896 102c F7FFFF0A 		beq	.L214
 2897              		.loc 1 1577 0 discriminator 2
 2898 1030 3C301FE5 		ldr	r3, .L234+180
 2899 1034 003093E5 		ldr	r3, [r3]
 2900 1038 2E3383E2 		add	r3, r3, #-1207959552
 2901 103c 023983E2 		add	r3, r3, #32768
 2902 1040 5620A0E3 		mov	r2, #86
 2903 1044 0020C3E5 		strb	r2, [r3]
 2904 1048 0000A0E1 		nop
 2905              	.L215:
 2906              		.loc 1 1577 0 discriminator 4
 2907 104c 58301FE5 		ldr	r3, .L234+180
 2908 1050 002093E5 		ldr	r2, [r3]
 2909 1054 5C301FE5 		ldr	r3, .L234+184
 2910 1058 033082E0 		add	r3, r2, r3
 2911 105c 003093E5 		ldr	r3, [r3]
 2912 1060 013503E2 		and	r3, r3, #4194304
 2913 1064 000053E3 		cmp	r3, #0
 2914 1068 F7FFFF0A 		beq	.L215
1578:F:/ARM_Project/W55FA92/N9H20/BSP/Driver/Source/SYS\wb_config.c **** 			outp32(REG_SDEMR, inp32(REG_SDEMR)  | DLLEN); 			//Disable DLL of DRAM device 	
 2915              		.loc 1 1578 0 is_stmt 1
 2916 106c A4301FE5 		ldr	r3, .L234+136
 2917 1070 003093E5 		ldr	r3, [r3]
 2918 1074 AC201FE5 		ldr	r2, .L234+136
 2919 1078 013083E3 		orr	r3, r3, #1
 2920 107c 003082E5 		str	r3, [r2]
1579:F:/ARM_Project/W55FA92/N9H20/BSP/Driver/Source/SYS\wb_config.c **** #if 0	
1580:F:/ARM_Project/W55FA92/N9H20/BSP/Driver/Source/SYS\wb_config.c **** 			for(dly=0; dly<0x2800;dly++);
1581:F:/ARM_Project/W55FA92/N9H20/BSP/Driver/Source/SYS\wb_config.c **** #else
1582:F:/ARM_Project/W55FA92/N9H20/BSP/Driver/Source/SYS\wb_config.c **** 	#ifdef __GNUC__
1583:F:/ARM_Project/W55FA92/N9H20/BSP/Driver/Source/SYS\wb_config.c **** 			__asm
 2921              		.loc 1 1583 0
 2922              		.syntax divided
 2923              	@ 1583 "F:/ARM_Project/W55FA92/N9H20/BSP/Driver/Source/SYS/wb_config.c" 1
 2924 1080 0A4BA0E3 		  mov 	r4, #0x2800    
 2925 1084 0050A0E3 	  mov  r5, #0         
 2926 1088 0160A0E3 	  mov  r6, #1         
 2927              	 DRAM_L:	           
 2928 108c 065085E0 	  add  r5, r5, r6     
 2929 1090 040055E1 	  cmp 	r5, r4         
 2930 1094 FCFFFF1A 	  bne  DRAM_L         
 2931              	
 2932              	@ 0 "" 2
1584:F:/ARM_Project/W55FA92/N9H20/BSP/Driver/Source/SYS\wb_config.c **** 			(
1585:F:/ARM_Project/W55FA92/N9H20/BSP/Driver/Source/SYS\wb_config.c **** 				"  mov 	%0, #0x2800    \n"
1586:F:/ARM_Project/W55FA92/N9H20/BSP/Driver/Source/SYS\wb_config.c **** 				"  mov  %1, #0         \n"
1587:F:/ARM_Project/W55FA92/N9H20/BSP/Driver/Source/SYS\wb_config.c **** 				"  mov  %2, #1         \n"
1588:F:/ARM_Project/W55FA92/N9H20/BSP/Driver/Source/SYS\wb_config.c **** 				" DRAM_L:	           \n"
1589:F:/ARM_Project/W55FA92/N9H20/BSP/Driver/Source/SYS\wb_config.c **** 				"  add  %1, %1, %2     \n"
1590:F:/ARM_Project/W55FA92/N9H20/BSP/Driver/Source/SYS\wb_config.c **** 				"  cmp 	%1, %0         \n"
1591:F:/ARM_Project/W55FA92/N9H20/BSP/Driver/Source/SYS\wb_config.c **** 				"  bne  DRAM_L         \n"
1592:F:/ARM_Project/W55FA92/N9H20/BSP/Driver/Source/SYS\wb_config.c **** 				: : "r"(reg2), "r"(reg1), "r"(reg0) :"memory"
1593:F:/ARM_Project/W55FA92/N9H20/BSP/Driver/Source/SYS\wb_config.c **** 			);
1594:F:/ARM_Project/W55FA92/N9H20/BSP/Driver/Source/SYS\wb_config.c ****     #else		
1595:F:/ARM_Project/W55FA92/N9H20/BSP/Driver/Source/SYS\wb_config.c **** 			__asm
1596:F:/ARM_Project/W55FA92/N9H20/BSP/Driver/Source/SYS\wb_config.c **** 			{
1597:F:/ARM_Project/W55FA92/N9H20/BSP/Driver/Source/SYS\wb_config.c **** 				mov     reg2, #0x2800
1598:F:/ARM_Project/W55FA92/N9H20/BSP/Driver/Source/SYS\wb_config.c **** 				mov     reg1, #0
1599:F:/ARM_Project/W55FA92/N9H20/BSP/Driver/Source/SYS\wb_config.c **** 				mov     reg0, #1
1600:F:/ARM_Project/W55FA92/N9H20/BSP/Driver/Source/SYS\wb_config.c **** 	DRAM_L:	
1601:F:/ARM_Project/W55FA92/N9H20/BSP/Driver/Source/SYS\wb_config.c **** 				add     reg1, reg1, reg0
1602:F:/ARM_Project/W55FA92/N9H20/BSP/Driver/Source/SYS\wb_config.c **** 				cmp     reg1, reg2
1603:F:/ARM_Project/W55FA92/N9H20/BSP/Driver/Source/SYS\wb_config.c **** 				bne     DRAM_L
1604:F:/ARM_Project/W55FA92/N9H20/BSP/Driver/Source/SYS\wb_config.c **** 			}
1605:F:/ARM_Project/W55FA92/N9H20/BSP/Driver/Source/SYS\wb_config.c **** 	#endif
1606:F:/ARM_Project/W55FA92/N9H20/BSP/Driver/Source/SYS\wb_config.c **** #endif
1607:F:/ARM_Project/W55FA92/N9H20/BSP/Driver/Source/SYS\wb_config.c **** 
1608:F:/ARM_Project/W55FA92/N9H20/BSP/Driver/Source/SYS\wb_config.c **** 
1609:F:/ARM_Project/W55FA92/N9H20/BSP/Driver/Source/SYS\wb_config.c **** 			outp32(REG_DLLMODE, ((inp32(REG_DLLMODE_R) & ~0x18)) );  //Disable chip's DLL
 2933              		.loc 1 1609 0
 2934              		.arm
 2935              		.syntax unified
 2936 1098 CC301FE5 		ldr	r3, .L234+140
 2937 109c 003093E5 		ldr	r3, [r3]
 2938 10a0 D0201FE5 		ldr	r2, .L234+144
 2939 10a4 1830C3E3 		bic	r3, r3, #24
 2940 10a8 003082E5 		str	r3, [r2]
1610:F:/ARM_Project/W55FA92/N9H20/BSP/Driver/Source/SYS\wb_config.c **** #if 1
1611:F:/ARM_Project/W55FA92/N9H20/BSP/Driver/Source/SYS\wb_config.c **** 	//		dly = (inp32(REG_CHIPCFG)&SDRAMSEL)>>4;
1612:F:/ARM_Project/W55FA92/N9H20/BSP/Driver/Source/SYS\wb_config.c **** #else		
1613:F:/ARM_Project/W55FA92/N9H20/BSP/Driver/Source/SYS\wb_config.c **** 	 #ifdef __GNUC__
1614:F:/ARM_Project/W55FA92/N9H20/BSP/Driver/Source/SYS\wb_config.c **** 			__asm
1615:F:/ARM_Project/W55FA92/N9H20/BSP/Driver/Source/SYS\wb_config.c **** 			(
1616:F:/ARM_Project/W55FA92/N9H20/BSP/Driver/Source/SYS\wb_config.c **** 				"  MOV     %2, #0xb0000000  \n"
1617:F:/ARM_Project/W55FA92/N9H20/BSP/Driver/Source/SYS\wb_config.c **** 				"  LDR     %2,[%2, #4]      \n"
1618:F:/ARM_Project/W55FA92/N9H20/BSP/Driver/Source/SYS\wb_config.c **** 				"  MOV     %2, %2, LSL #26  \n"
1619:F:/ARM_Project/W55FA92/N9H20/BSP/Driver/Source/SYS\wb_config.c **** 				"  MOV     %2, %2, LSR #30  \n"
1620:F:/ARM_Project/W55FA92/N9H20/BSP/Driver/Source/SYS\wb_config.c **** 				"  MOV     %0, %2           \n"
1621:F:/ARM_Project/W55FA92/N9H20/BSP/Driver/Source/SYS\wb_config.c **** 				: : "r"(reg2), "r"(reg1), "r"(reg0) :"memory"
1622:F:/ARM_Project/W55FA92/N9H20/BSP/Driver/Source/SYS\wb_config.c **** 			);
1623:F:/ARM_Project/W55FA92/N9H20/BSP/Driver/Source/SYS\wb_config.c ****     #else	
1624:F:/ARM_Project/W55FA92/N9H20/BSP/Driver/Source/SYS\wb_config.c **** 			__asm
1625:F:/ARM_Project/W55FA92/N9H20/BSP/Driver/Source/SYS\wb_config.c **** 			{
1626:F:/ARM_Project/W55FA92/N9H20/BSP/Driver/Source/SYS\wb_config.c **** 				MOV 	reg0, #0xb0000000
1627:F:/ARM_Project/W55FA92/N9H20/BSP/Driver/Source/SYS\wb_config.c **** 				LDR		reg0,[reg0, #4]
1628:F:/ARM_Project/W55FA92/N9H20/BSP/Driver/Source/SYS\wb_config.c **** 				MOV		reg0, reg0, LSL #26
1629:F:/ARM_Project/W55FA92/N9H20/BSP/Driver/Source/SYS\wb_config.c **** 				MOV		reg0, reg0, LSR #30
1630:F:/ARM_Project/W55FA92/N9H20/BSP/Driver/Source/SYS\wb_config.c **** 				MOV		dly, reg0
1631:F:/ARM_Project/W55FA92/N9H20/BSP/Driver/Source/SYS\wb_config.c **** 			}
1632:F:/ARM_Project/W55FA92/N9H20/BSP/Driver/Source/SYS\wb_config.c **** 	#endif		
1633:F:/ARM_Project/W55FA92/N9H20/BSP/Driver/Source/SYS\wb_config.c **** #endif		
1634:F:/ARM_Project/W55FA92/N9H20/BSP/Driver/Source/SYS\wb_config.c **** 	#ifdef __GNUC__
1635:F:/ARM_Project/W55FA92/N9H20/BSP/Driver/Source/SYS\wb_config.c **** 			if(inp32(SRAM_MEMTYPE) == 3)
 2941              		.loc 1 1635 0
 2942 10ac CC301FE5 		ldr	r3, .L234+160
 2943 10b0 003093E5 		ldr	r3, [r3]
 2944 10b4 030053E3 		cmp	r3, #3
 2945 10b8 0300001A 		bne	.L216
1636:F:/ARM_Project/W55FA92/N9H20/BSP/Driver/Source/SYS\wb_config.c **** 			{//DDR2 type
1637:F:/ARM_Project/W55FA92/N9H20/BSP/Driver/Source/SYS\wb_config.c **** 				outp32(REG_SDOPM,   0x00078476);					//bit[24]=0, bit[18]&[15]=1  and bit[4]=0 (SEL_USE_DLL)			
 2946              		.loc 1 1637 0
 2947 10bc D8301FE5 		ldr	r3, .L234+164
 2948 10c0 EC201FE5 		ldr	r2, .L234+148
 2949 10c4 002083E5 		str	r2, [r3]
 2950 10c8 140000EA 		b	.L217
 2951              	.L216:
1638:F:/ARM_Project/W55FA92/N9H20/BSP/Driver/Source/SYS\wb_config.c **** 			}
1639:F:/ARM_Project/W55FA92/N9H20/BSP/Driver/Source/SYS\wb_config.c **** 			else if(inp32(SRAM_MEMTYPE) == 2)
 2952              		.loc 1 1639 0
 2953 10cc EC301FE5 		ldr	r3, .L234+160
 2954 10d0 003093E5 		ldr	r3, [r3]
 2955 10d4 020053E3 		cmp	r3, #2
 2956 10d8 0900001A 		bne	.L218
1640:F:/ARM_Project/W55FA92/N9H20/BSP/Driver/Source/SYS\wb_config.c **** 			{//DDR type
1641:F:/ARM_Project/W55FA92/N9H20/BSP/Driver/Source/SYS\wb_config.c **** 				outp32(REG_SDOPM,   0x00078456);					//bit[24]=0, bit[18]&[15]=1  and bit[4]=0 (SEL_USE_DLL)
 2957              		.loc 1 1641 0
 2958 10dc F8301FE5 		ldr	r3, .L234+164
 2959 10e0 08211FE5 		ldr	r2, .L234+152
 2960 10e4 002083E5 		str	r2, [r3]
1642:F:/ARM_Project/W55FA92/N9H20/BSP/Driver/Source/SYS\wb_config.c **** 				outp32(REG_SDMR, inp32(REG_SDMR) & (~0xF0) | 0x20);	//CL=2				
 2961              		.loc 1 1642 0
 2962 10e8 0C311FE5 		ldr	r3, .L234+156
 2963 10ec 003093E5 		ldr	r3, [r3]
 2964 10f0 F030C3E3 		bic	r3, r3, #240
 2965 10f4 18211FE5 		ldr	r2, .L234+156
 2966 10f8 203083E3 		orr	r3, r3, #32
 2967 10fc 003082E5 		str	r3, [r2]
 2968 1100 060000EA 		b	.L217
 2969              	.L218:
1643:F:/ARM_Project/W55FA92/N9H20/BSP/Driver/Source/SYS\wb_config.c **** 			}
1644:F:/ARM_Project/W55FA92/N9H20/BSP/Driver/Source/SYS\wb_config.c **** 			else if(inp32(SRAM_MEMTYPE) == 0)
 2970              		.loc 1 1644 0
 2971 1104 24311FE5 		ldr	r3, .L234+160
 2972 1108 003093E5 		ldr	r3, [r3]
 2973 110c 000053E3 		cmp	r3, #0
 2974 1110 0200001A 		bne	.L217
1645:F:/ARM_Project/W55FA92/N9H20/BSP/Driver/Source/SYS\wb_config.c **** 			{//SDRAM type
1646:F:/ARM_Project/W55FA92/N9H20/BSP/Driver/Source/SYS\wb_config.c **** 				outp32(REG_SDOPM,   0x00078416);					//bit[24]=0, bit[18]&[15]=1  and bit[4]=0 (SEL_USE_DLL)
 2975              		.loc 1 1646 0
 2976 1114 30311FE5 		ldr	r3, .L234+164
 2977 1118 30211FE5 		ldr	r2, .L234+168
 2978 111c 002083E5 		str	r2, [r3]
 2979              	.L217:
1647:F:/ARM_Project/W55FA92/N9H20/BSP/Driver/Source/SYS\wb_config.c **** 			}	
1648:F:/ARM_Project/W55FA92/N9H20/BSP/Driver/Source/SYS\wb_config.c **** 	#else			
1649:F:/ARM_Project/W55FA92/N9H20/BSP/Driver/Source/SYS\wb_config.c **** 			if(inp32(SRAM_MEMTYPE) == 3)
1650:F:/ARM_Project/W55FA92/N9H20/BSP/Driver/Source/SYS\wb_config.c **** 			{//DDR2 type
1651:F:/ARM_Project/W55FA92/N9H20/BSP/Driver/Source/SYS\wb_config.c **** 				outp32(REG_SDOPM,   0x00078476);					//bit[24]=0, bit[18]&[15]=1  and bit[4]=0 (SEL_USE_DLL)			
1652:F:/ARM_Project/W55FA92/N9H20/BSP/Driver/Source/SYS\wb_config.c **** 			}
1653:F:/ARM_Project/W55FA92/N9H20/BSP/Driver/Source/SYS\wb_config.c **** 			else if(inp32(SRAM_MEMTYPE) == 2)
1654:F:/ARM_Project/W55FA92/N9H20/BSP/Driver/Source/SYS\wb_config.c **** 			{//DDR type
1655:F:/ARM_Project/W55FA92/N9H20/BSP/Driver/Source/SYS\wb_config.c **** 				outp32(REG_SDOPM,   0x00078456);					//bit[24]=0, bit[18]&[15]=1  and bit[4]=0 (SEL_USE_DLL)
1656:F:/ARM_Project/W55FA92/N9H20/BSP/Driver/Source/SYS\wb_config.c **** 				outp32(REG_SDMR, inp32(REG_SDMR) & (~0xF0) | 0x20);	//CL=2				
1657:F:/ARM_Project/W55FA92/N9H20/BSP/Driver/Source/SYS\wb_config.c **** 			}
1658:F:/ARM_Project/W55FA92/N9H20/BSP/Driver/Source/SYS\wb_config.c **** 			else if(inp32(SRAM_MEMTYPE) == 0)
1659:F:/ARM_Project/W55FA92/N9H20/BSP/Driver/Source/SYS\wb_config.c **** 			{//SDRAM type
1660:F:/ARM_Project/W55FA92/N9H20/BSP/Driver/Source/SYS\wb_config.c **** 				outp32(REG_SDOPM,   0x00078416);					//bit[24]=0, bit[18]&[15]=1  and bit[4]=0 (SEL_USE_DLL)
1661:F:/ARM_Project/W55FA92/N9H20/BSP/Driver/Source/SYS\wb_config.c **** 			}	
1662:F:/ARM_Project/W55FA92/N9H20/BSP/Driver/Source/SYS\wb_config.c ****     #endif			
1663:F:/ARM_Project/W55FA92/N9H20/BSP/Driver/Source/SYS\wb_config.c **** 			outp32(REG_CKDQSDS, 0x0000ff00);						// Skew for low freq
 2980              		.loc 1 1663 0
 2981 1120 24311FE5 		ldr	r3, .L234+188
 2982 1124 FF2CA0E3 		mov	r2, #65280
 2983 1128 002083E5 		str	r2, [r3]
1664:F:/ARM_Project/W55FA92/N9H20/BSP/Driver/Source/SYS\wb_config.c **** #if 0			
1665:F:/ARM_Project/W55FA92/N9H20/BSP/Driver/Source/SYS\wb_config.c **** 	for(dly=0; dly<0x30;dly++);
1666:F:/ARM_Project/W55FA92/N9H20/BSP/Driver/Source/SYS\wb_config.c **** #else
1667:F:/ARM_Project/W55FA92/N9H20/BSP/Driver/Source/SYS\wb_config.c **** 	#ifdef __GNUC__
1668:F:/ARM_Project/W55FA92/N9H20/BSP/Driver/Source/SYS\wb_config.c **** 	__asm
 2984              		.loc 1 1668 0
 2985              		.syntax divided
 2986              	@ 1668 "F:/ARM_Project/W55FA92/N9H20/BSP/Driver/Source/SYS/wb_config.c" 1
 2987 112c 7D4EA0E3 		  mov 	r4, #2000    
 2988 1130 0050A0E3 	  mov  r5, #0         
 2989 1134 0160A0E3 	  mov  r6, #1         
 2990              	 DRAM1B:	           
 2991 1138 065085E0 	  add  r5, r5, r6     
 2992 113c 040055E1 	  cmp 	r5, r4         
 2993 1140 FCFFFF1A 	  bne  DRAM1B         
 2994              	
 2995              	@ 0 "" 2
1669:F:/ARM_Project/W55FA92/N9H20/BSP/Driver/Source/SYS\wb_config.c **** 	(
1670:F:/ARM_Project/W55FA92/N9H20/BSP/Driver/Source/SYS\wb_config.c **** 		"  mov 	%0, #2000    \n"
1671:F:/ARM_Project/W55FA92/N9H20/BSP/Driver/Source/SYS\wb_config.c **** 		"  mov  %1, #0         \n"
1672:F:/ARM_Project/W55FA92/N9H20/BSP/Driver/Source/SYS\wb_config.c **** 		"  mov  %2, #1         \n"
1673:F:/ARM_Project/W55FA92/N9H20/BSP/Driver/Source/SYS\wb_config.c **** 		" DRAM1B:	           \n"
1674:F:/ARM_Project/W55FA92/N9H20/BSP/Driver/Source/SYS\wb_config.c **** 		"  add  %1, %1, %2     \n"
1675:F:/ARM_Project/W55FA92/N9H20/BSP/Driver/Source/SYS\wb_config.c **** 		"  cmp 	%1, %0         \n"
1676:F:/ARM_Project/W55FA92/N9H20/BSP/Driver/Source/SYS\wb_config.c **** 		"  bne  DRAM1B         \n"
1677:F:/ARM_Project/W55FA92/N9H20/BSP/Driver/Source/SYS\wb_config.c **** 		: : "r"(reg2), "r"(reg1), "r"(reg0) :"memory"
1678:F:/ARM_Project/W55FA92/N9H20/BSP/Driver/Source/SYS\wb_config.c **** 	);
1679:F:/ARM_Project/W55FA92/N9H20/BSP/Driver/Source/SYS\wb_config.c ****     #else
1680:F:/ARM_Project/W55FA92/N9H20/BSP/Driver/Source/SYS\wb_config.c **** 	__asm
1681:F:/ARM_Project/W55FA92/N9H20/BSP/Driver/Source/SYS\wb_config.c **** 	{
1682:F:/ARM_Project/W55FA92/N9H20/BSP/Driver/Source/SYS\wb_config.c **** 		mov     reg2, #2000
1683:F:/ARM_Project/W55FA92/N9H20/BSP/Driver/Source/SYS\wb_config.c **** 		mov     reg1, #0
1684:F:/ARM_Project/W55FA92/N9H20/BSP/Driver/Source/SYS\wb_config.c **** 		mov     reg0, #1
1685:F:/ARM_Project/W55FA92/N9H20/BSP/Driver/Source/SYS\wb_config.c **** DRAM1B:	add     reg1, reg1, reg0
1686:F:/ARM_Project/W55FA92/N9H20/BSP/Driver/Source/SYS\wb_config.c **** 		cmp     reg1, reg2
1687:F:/ARM_Project/W55FA92/N9H20/BSP/Driver/Source/SYS\wb_config.c **** 		bne     DRAM1B
1688:F:/ARM_Project/W55FA92/N9H20/BSP/Driver/Source/SYS\wb_config.c **** 	}	
1689:F:/ARM_Project/W55FA92/N9H20/BSP/Driver/Source/SYS\wb_config.c **** 	#endif
1690:F:/ARM_Project/W55FA92/N9H20/BSP/Driver/Source/SYS\wb_config.c **** #endif			
1691:F:/ARM_Project/W55FA92/N9H20/BSP/Driver/Source/SYS\wb_config.c **** //Zentel_mode:	
1692:F:/ARM_Project/W55FA92/N9H20/BSP/Driver/Source/SYS\wb_config.c **** 		//tmp = inp32(0x1aaaa8);
1693:F:/ARM_Project/W55FA92/N9H20/BSP/Driver/Source/SYS\wb_config.c **** 		outp32(SRAM_MEMCONTENT, inp32(0x1aaaa8));
 2996              		.loc 1 1693 0
 2997              		.arm
 2998              		.syntax unified
 2999 1144 44311FE5 		ldr	r3, .L234+192
 3000 1148 5C211FE5 		ldr	r2, .L234+172
 3001 114c 003093E5 		ldr	r3, [r3]
 3002 1150 003082E5 		str	r3, [r2]
1694:F:/ARM_Project/W55FA92/N9H20/BSP/Driver/Source/SYS\wb_config.c **** 		//if( tmp == 0x5555aaaa )
1695:F:/ARM_Project/W55FA92/N9H20/BSP/Driver/Source/SYS\wb_config.c **** 		if(inp32(SRAM_MEMCONTENT) == 0x5555aaaa)
 3003              		.loc 1 1695 0
 3004 1154 68311FE5 		ldr	r3, .L234+172
 3005 1158 003093E5 		ldr	r3, [r3]
 3006 115c 6C211FE5 		ldr	r2, .L234+176
 3007 1160 020053E1 		cmp	r3, r2
 3008 1164 2700001A 		bne	.L233
1696:F:/ARM_Project/W55FA92/N9H20/BSP/Driver/Source/SYS\wb_config.c **** 		{
1697:F:/ARM_Project/W55FA92/N9H20/BSP/Driver/Source/SYS\wb_config.c **** 			//outpb(REG_UART_THR+u32LocalUartVar, 'W');
1698:F:/ARM_Project/W55FA92/N9H20/BSP/Driver/Source/SYS\wb_config.c **** 			//while (!(inpw(REG_UART_FSR+u32LocalUartVar) & 0x400000));
1699:F:/ARM_Project/W55FA92/N9H20/BSP/Driver/Source/SYS\wb_config.c **** 			//outpb(REG_UART_THR+u32LocalUartVar, '\n');
1700:F:/ARM_Project/W55FA92/N9H20/BSP/Driver/Source/SYS\wb_config.c **** 			dbg(inp32(SRAM_UARTPORT), 'W');
 3009              		.loc 1 1700 0
 3010 1168 0000A0E1 		nop
 3011              	.L220:
 3012              		.loc 1 1700 0 is_stmt 0 discriminator 1
 3013 116c 78311FE5 		ldr	r3, .L234+180
 3014 1170 002093E5 		ldr	r2, [r3]
 3015 1174 7C311FE5 		ldr	r3, .L234+184
 3016 1178 033082E0 		add	r3, r2, r3
 3017 117c 003093E5 		ldr	r3, [r3]
 3018 1180 013503E2 		and	r3, r3, #4194304
 3019 1184 000053E3 		cmp	r3, #0
 3020 1188 F7FFFF0A 		beq	.L220
 3021              		.loc 1 1700 0 discriminator 2
 3022 118c 98311FE5 		ldr	r3, .L234+180
 3023 1190 003093E5 		ldr	r3, [r3]
 3024 1194 2E3383E2 		add	r3, r3, #-1207959552
 3025 1198 023983E2 		add	r3, r3, #32768
 3026 119c 5720A0E3 		mov	r2, #87
 3027 11a0 0020C3E5 		strb	r2, [r3]
 3028 11a4 0000A0E1 		nop
 3029              	.L221:
 3030              		.loc 1 1700 0 discriminator 4
 3031 11a8 B4311FE5 		ldr	r3, .L234+180
 3032 11ac 002093E5 		ldr	r2, [r3]
 3033 11b0 B8311FE5 		ldr	r3, .L234+184
 3034 11b4 033082E0 		add	r3, r2, r3
 3035 11b8 003093E5 		ldr	r3, [r3]
 3036 11bc 013503E2 		and	r3, r3, #4194304
 3037 11c0 000053E3 		cmp	r3, #0
 3038 11c4 F7FFFF0A 		beq	.L221
 3039              		.loc 1 1700 0 discriminator 5
 3040 11c8 D4311FE5 		ldr	r3, .L234+180
 3041 11cc 003093E5 		ldr	r3, [r3]
 3042 11d0 2E3383E2 		add	r3, r3, #-1207959552
 3043 11d4 023983E2 		add	r3, r3, #32768
 3044 11d8 0A20A0E3 		mov	r2, #10
 3045 11dc 0020C3E5 		strb	r2, [r3]
 3046 11e0 0000A0E1 		nop
 3047              	.L222:
 3048              		.loc 1 1700 0 discriminator 7
 3049 11e4 F0311FE5 		ldr	r3, .L234+180
 3050 11e8 002093E5 		ldr	r2, [r3]
 3051 11ec F4311FE5 		ldr	r3, .L234+184
 3052 11f0 033082E0 		add	r3, r2, r3
 3053 11f4 003093E5 		ldr	r3, [r3]
 3054 11f8 013503E2 		and	r3, r3, #4194304
 3055 11fc 000053E3 		cmp	r3, #0
 3056 1200 F7FFFF0A 		beq	.L222
 3057 1204 2B0000EA 		b	.L213
 3058              	.L233:
1701:F:/ARM_Project/W55FA92/N9H20/BSP/Driver/Source/SYS\wb_config.c **** 
1702:F:/ARM_Project/W55FA92/N9H20/BSP/Driver/Source/SYS\wb_config.c **** 		}else
1703:F:/ARM_Project/W55FA92/N9H20/BSP/Driver/Source/SYS\wb_config.c **** 		{
1704:F:/ARM_Project/W55FA92/N9H20/BSP/Driver/Source/SYS\wb_config.c **** 			//outpb(REG_UART_THR+u32LocalUartVar, 'Z');
1705:F:/ARM_Project/W55FA92/N9H20/BSP/Driver/Source/SYS\wb_config.c **** 			//while (!(inpw(REG_UART_FSR+u32LocalUartVar) & 0x400000));
1706:F:/ARM_Project/W55FA92/N9H20/BSP/Driver/Source/SYS\wb_config.c **** 			//outpb(REG_UART_THR+u32LocalUartVar, '\n');
1707:F:/ARM_Project/W55FA92/N9H20/BSP/Driver/Source/SYS\wb_config.c **** 			dbg(inp32(SRAM_UARTPORT), 'Z');
 3059              		.loc 1 1707 0 is_stmt 1
 3060 1208 0000A0E1 		nop
 3061              	.L223:
 3062              		.loc 1 1707 0 is_stmt 0 discriminator 1
 3063 120c 18321FE5 		ldr	r3, .L234+180
 3064 1210 002093E5 		ldr	r2, [r3]
 3065 1214 1C321FE5 		ldr	r3, .L234+184
 3066 1218 033082E0 		add	r3, r2, r3
 3067 121c 003093E5 		ldr	r3, [r3]
 3068 1220 013503E2 		and	r3, r3, #4194304
 3069 1224 000053E3 		cmp	r3, #0
 3070 1228 F7FFFF0A 		beq	.L223
 3071              		.loc 1 1707 0 discriminator 2
 3072 122c 38321FE5 		ldr	r3, .L234+180
 3073 1230 003093E5 		ldr	r3, [r3]
 3074 1234 2E3383E2 		add	r3, r3, #-1207959552
 3075 1238 023983E2 		add	r3, r3, #32768
 3076 123c 5A20A0E3 		mov	r2, #90
 3077 1240 0020C3E5 		strb	r2, [r3]
 3078 1244 0000A0E1 		nop
 3079              	.L224:
 3080              		.loc 1 1707 0 discriminator 4
 3081 1248 54321FE5 		ldr	r3, .L234+180
 3082 124c 002093E5 		ldr	r2, [r3]
 3083 1250 58321FE5 		ldr	r3, .L234+184
 3084 1254 033082E0 		add	r3, r2, r3
 3085 1258 003093E5 		ldr	r3, [r3]
 3086 125c 013503E2 		and	r3, r3, #4194304
 3087 1260 000053E3 		cmp	r3, #0
 3088 1264 F7FFFF0A 		beq	.L224
 3089              		.loc 1 1707 0 discriminator 5
 3090 1268 74321FE5 		ldr	r3, .L234+180
 3091 126c 003093E5 		ldr	r3, [r3]
 3092 1270 2E3383E2 		add	r3, r3, #-1207959552
 3093 1274 023983E2 		add	r3, r3, #32768
 3094 1278 0A20A0E3 		mov	r2, #10
 3095 127c 0020C3E5 		strb	r2, [r3]
 3096 1280 0000A0E1 		nop
 3097              	.L225:
 3098              		.loc 1 1707 0 discriminator 7
 3099 1284 90321FE5 		ldr	r3, .L234+180
 3100 1288 002093E5 		ldr	r2, [r3]
 3101 128c 94321FE5 		ldr	r3, .L234+184
 3102 1290 033082E0 		add	r3, r2, r3
 3103 1294 003093E5 		ldr	r3, [r3]
 3104 1298 013503E2 		and	r3, r3, #4194304
 3105 129c 000053E3 		cmp	r3, #0
 3106 12a0 F7FFFF0A 		beq	.L225
1708:F:/ARM_Project/W55FA92/N9H20/BSP/Driver/Source/SYS\wb_config.c ****  			outp32(REG_CKDQSDS, inp32(REG_CKDQSDS) | 0x01000000);	// bit[25:24] = 1 for Zentel 3T+4ns. 
 3107              		.loc 1 1708 0 is_stmt 1
 3108 12a4 A8321FE5 		ldr	r3, .L234+188
 3109 12a8 003093E5 		ldr	r3, [r3]
 3110 12ac B0221FE5 		ldr	r2, .L234+188
 3111 12b0 013483E3 		orr	r3, r3, #16777216
 3112 12b4 003082E5 		str	r3, [r2]
 3113              	.L213:
1709:F:/ARM_Project/W55FA92/N9H20/BSP/Driver/Source/SYS\wb_config.c **** 		}
1710:F:/ARM_Project/W55FA92/N9H20/BSP/Driver/Source/SYS\wb_config.c **** 	}			
1711:F:/ARM_Project/W55FA92/N9H20/BSP/Driver/Source/SYS\wb_config.c **** 	outp32(0x1aaaa8, u32mem_1aaaa8);	/* Restore content in address 0x1aaaa8 */		
 3114              		.loc 1 1711 0
 3115 12b8 B8221FE5 		ldr	r2, .L234+192
 3116 12bc 18301BE5 		ldr	r3, [fp, #-24]
 3117 12c0 003082E5 		str	r3, [r2]
1712:F:/ARM_Project/W55FA92/N9H20/BSP/Driver/Source/SYS\wb_config.c **** }
 3118              		.loc 1 1712 0
 3119 12c4 0000A0E1 		nop
 3120 12c8 10D04BE2 		sub	sp, fp, #16
 3121              		.cfi_def_cfa 13, 20
 3122              		@ sp needed
 3123 12cc 7088BDE8 		pop	{r4, r5, r6, fp, pc}
 3124              		.cfi_endproc
 3125              	.LFE22:
 3127              		.section	.text._dramClockSwitchStart,"ax",%progbits
 3128              		.align	2
 3129              		.global	_dramClockSwitchStart
 3130              		.syntax unified
 3131              		.arm
 3132              		.fpu softvfp
 3134              	_dramClockSwitchStart:
 3135              	.LFB23:
1713:F:/ARM_Project/W55FA92/N9H20/BSP/Driver/Source/SYS\wb_config.c **** #if defined (__GNUC__) && !defined (__CC_ARM)
1714:F:/ARM_Project/W55FA92/N9H20/BSP/Driver/Source/SYS\wb_config.c **** #pragma GCC pop_options
1715:F:/ARM_Project/W55FA92/N9H20/BSP/Driver/Source/SYS\wb_config.c **** #endif
1716:F:/ARM_Project/W55FA92/N9H20/BSP/Driver/Source/SYS\wb_config.c **** 
1717:F:/ARM_Project/W55FA92/N9H20/BSP/Driver/Source/SYS\wb_config.c **** 
1718:F:/ARM_Project/W55FA92/N9H20/BSP/Driver/Source/SYS\wb_config.c **** void _dramClockSwitchStart(E_SYS_SRC_CLK eSrcClk,
1719:F:/ARM_Project/W55FA92/N9H20/BSP/Driver/Source/SYS\wb_config.c **** 						UINT32 u32RegPll,	
1720:F:/ARM_Project/W55FA92/N9H20/BSP/Driver/Source/SYS\wb_config.c **** 						UINT32 u32DramClock,
1721:F:/ARM_Project/W55FA92/N9H20/BSP/Driver/Source/SYS\wb_config.c **** 						UINT32 u32DramClockReg)
1722:F:/ARM_Project/W55FA92/N9H20/BSP/Driver/Source/SYS\wb_config.c **** {
 3136              		.loc 1 1722 0
 3137              		.cfi_startproc
 3138              		@ args = 0, pretend = 0, frame = 8
 3139              		@ frame_needed = 0, uses_anonymous_args = 0
 3140              	.LVL177:
 3141 0000 F74F2DE9 		push	{r0, r1, r2, r4, r5, r6, r7, r8, r9, r10, fp, lr}
 3142              		.cfi_def_cfa_offset 48
 3143              		.cfi_offset 4, -36
 3144              		.cfi_offset 5, -32
 3145              		.cfi_offset 6, -28
 3146              		.cfi_offset 7, -24
 3147              		.cfi_offset 8, -20
 3148              		.cfi_offset 9, -16
 3149              		.cfi_offset 10, -12
 3150              		.cfi_offset 11, -8
 3151              		.cfi_offset 14, -4
1723:F:/ARM_Project/W55FA92/N9H20/BSP/Driver/Source/SYS\wb_config.c **** 	BOOL bIsCacheState=FALSE;
1724:F:/ARM_Project/W55FA92/N9H20/BSP/Driver/Source/SYS\wb_config.c **** 	INT32  u32CacheMode;
1725:F:/ARM_Project/W55FA92/N9H20/BSP/Driver/Source/SYS\wb_config.c **** 	UINT32   vram_base, aic_status = 0, aic_statush=0;
1726:F:/ARM_Project/W55FA92/N9H20/BSP/Driver/Source/SYS\wb_config.c **** 	
1727:F:/ARM_Project/W55FA92/N9H20/BSP/Driver/Source/SYS\wb_config.c **** 	//VOID    (*wb_func)(UINT32,UINT32);
1728:F:/ARM_Project/W55FA92/N9H20/BSP/Driver/Source/SYS\wb_config.c **** 	VOID    (*wb_func)(UINT32,
1729:F:/ARM_Project/W55FA92/N9H20/BSP/Driver/Source/SYS\wb_config.c **** 					UINT32,
1730:F:/ARM_Project/W55FA92/N9H20/BSP/Driver/Source/SYS\wb_config.c **** 					UINT32,
1731:F:/ARM_Project/W55FA92/N9H20/BSP/Driver/Source/SYS\wb_config.c **** 					UINT32);
1732:F:/ARM_Project/W55FA92/N9H20/BSP/Driver/Source/SYS\wb_config.c **** 	
1733:F:/ARM_Project/W55FA92/N9H20/BSP/Driver/Source/SYS\wb_config.c **** //	DBG_PRINTF("_dramClockSwitchStart\n");	
1734:F:/ARM_Project/W55FA92/N9H20/BSP/Driver/Source/SYS\wb_config.c **** 	
1735:F:/ARM_Project/W55FA92/N9H20/BSP/Driver/Source/SYS\wb_config.c **** 				
1736:F:/ARM_Project/W55FA92/N9H20/BSP/Driver/Source/SYS\wb_config.c **** 	aic_status = inpw(REG_AIC_IMR);					
1737:F:/ARM_Project/W55FA92/N9H20/BSP/Driver/Source/SYS\wb_config.c **** 	aic_statush = inpw(REG_AIC_IMRH);				
1738:F:/ARM_Project/W55FA92/N9H20/BSP/Driver/Source/SYS\wb_config.c **** 	outpw(REG_AIC_MDCR, 0xFFFFFFFF);	//Disable interrupt 
1739:F:/ARM_Project/W55FA92/N9H20/BSP/Driver/Source/SYS\wb_config.c **** 	outpw(REG_AIC_MDCRH, 0xFFFFFFFF);	//Disable interrupt 
1740:F:/ARM_Project/W55FA92/N9H20/BSP/Driver/Source/SYS\wb_config.c **** 
1741:F:/ARM_Project/W55FA92/N9H20/BSP/Driver/Source/SYS\wb_config.c **** 	vram_base = PD_RAM_BASE;		
1742:F:/ARM_Project/W55FA92/N9H20/BSP/Driver/Source/SYS\wb_config.c **** 
1743:F:/ARM_Project/W55FA92/N9H20/BSP/Driver/Source/SYS\wb_config.c **** //	outp32(0xff000f80,8);
1744:F:/ARM_Project/W55FA92/N9H20/BSP/Driver/Source/SYS\wb_config.c **** 	memcpy((char *)((UINT32)_tmp_buf | 0x80000000), 
 3152              		.loc 1 1744 0
 3153 0004 C8409FE5 		ldr	r4, .L241
1722:F:/ARM_Project/W55FA92/N9H20/BSP/Driver/Source/SYS\wb_config.c **** 	BOOL bIsCacheState=FALSE;
 3154              		.loc 1 1722 0
 3155 0008 03B0A0E1 		mov	fp, r3
1736:F:/ARM_Project/W55FA92/N9H20/BSP/Driver/Source/SYS\wb_config.c **** 	aic_statush = inpw(REG_AIC_IMRH);				
 3156              		.loc 1 1736 0
 3157 000c 2E33A0E3 		mov	r3, #-1207959552
 3158              	.LVL178:
 3159 0010 286193E5 		ldr	r6, [r3, #296]
 3160              	.LVL179:
1722:F:/ARM_Project/W55FA92/N9H20/BSP/Driver/Source/SYS\wb_config.c **** 	BOOL bIsCacheState=FALSE;
 3161              		.loc 1 1722 0
 3162 0014 02A0A0E1 		mov	r10, r2
1737:F:/ARM_Project/W55FA92/N9H20/BSP/Driver/Source/SYS\wb_config.c **** 	outpw(REG_AIC_MDCR, 0xFFFFFFFF);	//Disable interrupt 
 3163              		.loc 1 1737 0
 3164 0018 2C2193E5 		ldr	r2, [r3, #300]
 3165              	.LVL180:
 3166              		.loc 1 1744 0
 3167 001c 024184E3 		orr	r4, r4, #-2147483648
1737:F:/ARM_Project/W55FA92/N9H20/BSP/Driver/Source/SYS\wb_config.c **** 	outpw(REG_AIC_MDCR, 0xFFFFFFFF);	//Disable interrupt 
 3168              		.loc 1 1737 0
 3169 0020 04208DE5 		str	r2, [sp, #4]
 3170              	.LVL181:
1738:F:/ARM_Project/W55FA92/N9H20/BSP/Driver/Source/SYS\wb_config.c **** 	outpw(REG_AIC_MDCRH, 0xFFFFFFFF);	//Disable interrupt 
 3171              		.loc 1 1738 0
 3172 0024 0020E0E3 		mvn	r2, #0
 3173              	.LVL182:
 3174 0028 382183E5 		str	r2, [r3, #312]
1722:F:/ARM_Project/W55FA92/N9H20/BSP/Driver/Source/SYS\wb_config.c **** 	BOOL bIsCacheState=FALSE;
 3175              		.loc 1 1722 0
 3176 002c 0080A0E1 		mov	r8, r0
1739:F:/ARM_Project/W55FA92/N9H20/BSP/Driver/Source/SYS\wb_config.c **** 
 3177              		.loc 1 1739 0
 3178 0030 3C2183E5 		str	r2, [r3, #316]
 3179              	.LVL183:
1722:F:/ARM_Project/W55FA92/N9H20/BSP/Driver/Source/SYS\wb_config.c **** 	BOOL bIsCacheState=FALSE;
 3180              		.loc 1 1722 0
 3181 0034 0190A0E1 		mov	r9, r1
 3182              		.loc 1 1744 0
 3183 0038 022AA0E3 		mov	r2, #8192
 3184 003c FF14A0E3 		mov	r1, #-16777216
 3185              	.LVL184:
 3186 0040 0400A0E1 		mov	r0, r4
 3187              	.LVL185:
 3188 0044 FEFFFFEB 		bl	memcpy
 3189              	.LVL186:
1745:F:/ARM_Project/W55FA92/N9H20/BSP/Driver/Source/SYS\wb_config.c **** 			(char *)((UINT32)vram_base | 0x80000000), 
1746:F:/ARM_Project/W55FA92/N9H20/BSP/Driver/Source/SYS\wb_config.c **** 			PD_RAM_SIZE);		
1747:F:/ARM_Project/W55FA92/N9H20/BSP/Driver/Source/SYS\wb_config.c **** 	memcpy((VOID *)((UINT32)vram_base | 0x80000000),
 3190              		.loc 1 1747 0
 3191 0048 88109FE5 		ldr	r1, .L241+4
 3192 004c 022AA0E3 		mov	r2, #8192
 3193 0050 021181E3 		orr	r1, r1, #-2147483648
 3194 0054 FF04A0E3 		mov	r0, #-16777216
 3195 0058 FEFFFFEB 		bl	memcpy
 3196              	.LVL187:
1748:F:/ARM_Project/W55FA92/N9H20/BSP/Driver/Source/SYS\wb_config.c **** 			(VOID *)(((UINT32)_dramClockSwitch-(PD_RAM_START-PD_RAM_BASE)) | 0x80000000), 
1749:F:/ARM_Project/W55FA92/N9H20/BSP/Driver/Source/SYS\wb_config.c **** 			PD_RAM_SIZE);									
1750:F:/ARM_Project/W55FA92/N9H20/BSP/Driver/Source/SYS\wb_config.c **** //	outp32(0xff000f80,9);
1751:F:/ARM_Project/W55FA92/N9H20/BSP/Driver/Source/SYS\wb_config.c **** 	DBG_PRINTF("memcpy ok\n");
1752:F:/ARM_Project/W55FA92/N9H20/BSP/Driver/Source/SYS\wb_config.c **** 	
1753:F:/ARM_Project/W55FA92/N9H20/BSP/Driver/Source/SYS\wb_config.c **** //	outp32(0xff000f80,10);
1754:F:/ARM_Project/W55FA92/N9H20/BSP/Driver/Source/SYS\wb_config.c **** 	if(sysGetCacheState()==TRUE){
 3197              		.loc 1 1754 0
 3198 005c FEFFFFEB 		bl	sysGetCacheState
 3199              	.LVL188:
 3200 0060 010050E3 		cmp	r0, #1
1723:F:/ARM_Project/W55FA92/N9H20/BSP/Driver/Source/SYS\wb_config.c **** 	INT32  u32CacheMode;
 3201              		.loc 1 1723 0
 3202 0064 0050A013 		movne	r5, #0
 3203              		.loc 1 1754 0
 3204 0068 0500001A 		bne	.L237
 3205 006c 0050A0E1 		mov	r5, r0
 3206              	.LVL189:
1755:F:/ARM_Project/W55FA92/N9H20/BSP/Driver/Source/SYS\wb_config.c **** 		DBG_PRINTF("Cache enable\n");		
1756:F:/ARM_Project/W55FA92/N9H20/BSP/Driver/Source/SYS\wb_config.c **** 		bIsCacheState = TRUE;		
1757:F:/ARM_Project/W55FA92/N9H20/BSP/Driver/Source/SYS\wb_config.c **** 		u32CacheMode = sysGetCacheMode();
 3207              		.loc 1 1757 0
 3208 0070 FEFFFFEB 		bl	sysGetCacheMode
 3209              	.LVL190:
 3210 0074 0070A0E1 		mov	r7, r0
 3211              	.LVL191:
1758:F:/ARM_Project/W55FA92/N9H20/BSP/Driver/Source/SYS\wb_config.c **** 		sysDisableCache(); 	
 3212              		.loc 1 1758 0
 3213 0078 FEFFFFEB 		bl	sysDisableCache
 3214              	.LVL192:
1759:F:/ARM_Project/W55FA92/N9H20/BSP/Driver/Source/SYS\wb_config.c **** 		sysFlushCache(I_D_CACHE);	
 3215              		.loc 1 1759 0
 3216 007c 0800A0E3 		mov	r0, #8
 3217 0080 FEFFFFEB 		bl	sysFlushCache
 3218              	.LVL193:
 3219              	.L237:
1760:F:/ARM_Project/W55FA92/N9H20/BSP/Driver/Source/SYS\wb_config.c **** 	}else{
1761:F:/ARM_Project/W55FA92/N9H20/BSP/Driver/Source/SYS\wb_config.c **** 		DBG_PRINTF("Cache disable\n");	
1762:F:/ARM_Project/W55FA92/N9H20/BSP/Driver/Source/SYS\wb_config.c **** 	}	
1763:F:/ARM_Project/W55FA92/N9H20/BSP/Driver/Source/SYS\wb_config.c **** 
1764:F:/ARM_Project/W55FA92/N9H20/BSP/Driver/Source/SYS\wb_config.c **** //	outp32(0xff000f80,11);		
1765:F:/ARM_Project/W55FA92/N9H20/BSP/Driver/Source/SYS\wb_config.c **** 	//sysFlushCache(I_D_CACHE);
1766:F:/ARM_Project/W55FA92/N9H20/BSP/Driver/Source/SYS\wb_config.c **** 	vram_base = PD_RAM_START;	
1767:F:/ARM_Project/W55FA92/N9H20/BSP/Driver/Source/SYS\wb_config.c **** 	//wb_func = (void(*)(UINT32, UINT32)) vram_base;	
1768:F:/ARM_Project/W55FA92/N9H20/BSP/Driver/Source/SYS\wb_config.c **** 	wb_func = (void(*)(UINT32, UINT32, UINT32, UINT32)) vram_base;
1769:F:/ARM_Project/W55FA92/N9H20/BSP/Driver/Source/SYS\wb_config.c **** 	
1770:F:/ARM_Project/W55FA92/N9H20/BSP/Driver/Source/SYS\wb_config.c **** 	//--------------------------------------
1771:F:/ARM_Project/W55FA92/N9H20/BSP/Driver/Source/SYS\wb_config.c **** 	DBG_PRINTF("Jump to SRAM\n");
1772:F:/ARM_Project/W55FA92/N9H20/BSP/Driver/Source/SYS\wb_config.c **** 	//wb_func(eSrcClk, u32RegPll);	
1773:F:/ARM_Project/W55FA92/N9H20/BSP/Driver/Source/SYS\wb_config.c **** 	wb_func(eSrcClk, u32RegPll, u32DramClock, u32DramClockReg);
 3220              		.loc 1 1773 0
 3221 0084 0800A0E1 		mov	r0, r8
 3222 0088 0B30A0E1 		mov	r3, fp
 3223 008c 0A20A0E1 		mov	r2, r10
 3224 0090 0910A0E1 		mov	r1, r9
 3225 0094 40809FE5 		ldr	r8, .L241+8
 3226 0098 38FF2FE1 		blx	r8
 3227              	.LVL194:
1774:F:/ARM_Project/W55FA92/N9H20/BSP/Driver/Source/SYS\wb_config.c **** 	vram_base = PD_RAM_BASE;	
1775:F:/ARM_Project/W55FA92/N9H20/BSP/Driver/Source/SYS\wb_config.c **** 	memcpy((VOID *)((UINT32)vram_base | 0x80000000), 
 3228              		.loc 1 1775 0
 3229 009c 022AA0E3 		mov	r2, #8192
 3230 00a0 0410A0E1 		mov	r1, r4
 3231 00a4 FF04A0E3 		mov	r0, #-16777216
 3232 00a8 FEFFFFEB 		bl	memcpy
 3233              	.LVL195:
1776:F:/ARM_Project/W55FA92/N9H20/BSP/Driver/Source/SYS\wb_config.c **** 			(VOID *)((UINT32)_tmp_buf | 0x80000000), 
1777:F:/ARM_Project/W55FA92/N9H20/BSP/Driver/Source/SYS\wb_config.c **** 			PD_RAM_SIZE);	
1778:F:/ARM_Project/W55FA92/N9H20/BSP/Driver/Source/SYS\wb_config.c **** 	if(bIsCacheState==TRUE)
 3234              		.loc 1 1778 0
 3235 00ac 010055E3 		cmp	r5, #1
 3236 00b0 0100001A 		bne	.L238
 3237              	.LVL196:
1779:F:/ARM_Project/W55FA92/N9H20/BSP/Driver/Source/SYS\wb_config.c **** 		sysEnableCache(u32CacheMode);	
 3238              		.loc 1 1779 0
 3239 00b4 0700A0E1 		mov	r0, r7
 3240 00b8 FEFFFFEB 		bl	sysEnableCache
 3241              	.LVL197:
 3242              	.L238:
1780:F:/ARM_Project/W55FA92/N9H20/BSP/Driver/Source/SYS\wb_config.c **** 
1781:F:/ARM_Project/W55FA92/N9H20/BSP/Driver/Source/SYS\wb_config.c **** 	outpw(REG_AIC_MECR, aic_status);    	// Restore AIC setting 
1782:F:/ARM_Project/W55FA92/N9H20/BSP/Driver/Source/SYS\wb_config.c **** 	outpw(REG_AIC_MECRH,aic_statush);	
 3243              		.loc 1 1782 0
 3244 00bc 04209DE5 		ldr	r2, [sp, #4]
1781:F:/ARM_Project/W55FA92/N9H20/BSP/Driver/Source/SYS\wb_config.c **** 	outpw(REG_AIC_MECRH,aic_statush);	
 3245              		.loc 1 1781 0
 3246 00c0 2E33A0E3 		mov	r3, #-1207959552
 3247 00c4 306183E5 		str	r6, [r3, #304]
 3248              		.loc 1 1782 0
 3249 00c8 342183E5 		str	r2, [r3, #308]
1783:F:/ARM_Project/W55FA92/N9H20/BSP/Driver/Source/SYS\wb_config.c **** }
 3250              		.loc 1 1783 0
 3251 00cc 0CD08DE2 		add	sp, sp, #12
 3252              		.cfi_def_cfa_offset 36
 3253              		@ sp needed
 3254 00d0 F08FBDE8 		pop	{r4, r5, r6, r7, r8, r9, r10, fp, pc}
 3255              	.LVL198:
 3256              	.L242:
 3257              		.align	2
 3258              	.L241:
 3259 00d4 00000000 		.word	_tmp_buf
 3260 00d8 00F8FFFF 		.word	_dramClockSwitch-2048
 3261 00dc 000800FF 		.word	-16775168
 3262              		.cfi_endproc
 3263              	.LFE23:
 3265              		.section	.text.sysSetDramClock,"ax",%progbits
 3266              		.align	2
 3267              		.global	sysSetDramClock
 3268              		.syntax unified
 3269              		.arm
 3270              		.fpu softvfp
 3272              	sysSetDramClock:
 3273              	.LFB24:
1784:F:/ARM_Project/W55FA92/N9H20/BSP/Driver/Source/SYS\wb_config.c **** /*
1785:F:/ARM_Project/W55FA92/N9H20/BSP/Driver/Source/SYS\wb_config.c **** 	Memory clock constraint
1786:F:/ARM_Project/W55FA92/N9H20/BSP/Driver/Source/SYS\wb_config.c **** 	1. SDIC' clock > AHB1/AHB3/AHB4 
1787:F:/ARM_Project/W55FA92/N9H20/BSP/Driver/Source/SYS\wb_config.c **** 	
1788:F:/ARM_Project/W55FA92/N9H20/BSP/Driver/Source/SYS\wb_config.c **** 	
1789:F:/ARM_Project/W55FA92/N9H20/BSP/Driver/Source/SYS\wb_config.c **** 	E_SYS_SRC_CLK eSrcClk 			Memory clock source. It will always = MPLL
1790:F:/ARM_Project/W55FA92/N9H20/BSP/Driver/Source/SYS\wb_config.c **** 	UINT32 u32PLLClockHz, 			MPLL frequency  
1791:F:/ARM_Project/W55FA92/N9H20/BSP/Driver/Source/SYS\wb_config.c **** 	UINT32 u32DramClock			DDR clock (2* SDIC) 
1792:F:/ARM_Project/W55FA92/N9H20/BSP/Driver/Source/SYS\wb_config.c **** 
1793:F:/ARM_Project/W55FA92/N9H20/BSP/Driver/Source/SYS\wb_config.c **** */
1794:F:/ARM_Project/W55FA92/N9H20/BSP/Driver/Source/SYS\wb_config.c **** UINT32 sysSetDramClock(E_SYS_SRC_CLK eSrcClk, UINT32 u32PLLClockHz, UINT32 u32DdrClock)
1795:F:/ARM_Project/W55FA92/N9H20/BSP/Driver/Source/SYS\wb_config.c **** {
 3274              		.loc 1 1795 0
 3275              		.cfi_startproc
 3276              		@ args = 0, pretend = 0, frame = 0
 3277              		@ frame_needed = 0, uses_anonymous_args = 0
 3278              	.LVL199:
 3279 0000 F0472DE9 		push	{r4, r5, r6, r7, r8, r9, r10, lr}
 3280              		.cfi_def_cfa_offset 32
 3281              		.cfi_offset 4, -32
 3282              		.cfi_offset 5, -28
 3283              		.cfi_offset 6, -24
 3284              		.cfi_offset 7, -20
 3285              		.cfi_offset 8, -16
 3286              		.cfi_offset 9, -12
 3287              		.cfi_offset 10, -8
 3288              		.cfi_offset 14, -4
1796:F:/ARM_Project/W55FA92/N9H20/BSP/Driver/Source/SYS\wb_config.c **** 	UINT32 u32FinHz, u32DramDiv;
1797:F:/ARM_Project/W55FA92/N9H20/BSP/Driver/Source/SYS\wb_config.c **** 	UINT32 u32DivN1, u32DivN0, u32DramClockReg;
1798:F:/ARM_Project/W55FA92/N9H20/BSP/Driver/Source/SYS\wb_config.c **** 	UINT32 u32CpuFreq, u32Hclk1Frq, u32Hclk234;
1799:F:/ARM_Project/W55FA92/N9H20/BSP/Driver/Source/SYS\wb_config.c **** 	UINT32 u32DramClock = u32DdrClock/2;
1800:F:/ARM_Project/W55FA92/N9H20/BSP/Driver/Source/SYS\wb_config.c **** 	UINT32 u32sysSrc = (inp32(REG_CLKDIV0)&SYSTEM_S)>>3;
 3289              		.loc 1 1800 0
 3290 0004 0B92A0E3 		mov	r9, #-1342177280
1795:F:/ARM_Project/W55FA92/N9H20/BSP/Driver/Source/SYS\wb_config.c **** 	UINT32 u32FinHz, u32DramDiv;
 3291              		.loc 1 1795 0
 3292 0008 0060A0E1 		mov	r6, r0
 3293              		.loc 1 1800 0
 3294 000c 0C4299E5 		ldr	r4, [r9, #524]
1795:F:/ARM_Project/W55FA92/N9H20/BSP/Driver/Source/SYS\wb_config.c **** 	UINT32 u32FinHz, u32DramDiv;
 3295              		.loc 1 1795 0
 3296 0010 0170A0E1 		mov	r7, r1
 3297 0014 0280A0E1 		mov	r8, r2
1799:F:/ARM_Project/W55FA92/N9H20/BSP/Driver/Source/SYS\wb_config.c **** 	UINT32 u32sysSrc = (inp32(REG_CLKDIV0)&SYSTEM_S)>>3;
 3298              		.loc 1 1799 0
 3299 0018 A250A0E1 		lsr	r5, r2, #1
 3300              	.LVL200:
1801:F:/ARM_Project/W55FA92/N9H20/BSP/Driver/Source/SYS\wb_config.c **** 	
1802:F:/ARM_Project/W55FA92/N9H20/BSP/Driver/Source/SYS\wb_config.c **** 	/* Judge MCLK > HCLK1 */ 
1803:F:/ARM_Project/W55FA92/N9H20/BSP/Driver/Source/SYS\wb_config.c **** 	u32CpuFreq = sysGetCPUClock();
 3301              		.loc 1 1803 0
 3302 001c FEFFFFEB 		bl	sysGetCPUClock
 3303              	.LVL201:
1804:F:/ARM_Project/W55FA92/N9H20/BSP/Driver/Source/SYS\wb_config.c **** 	if((inp32(REG_CLKDIV4)&CPU_N) == 0)
 3304              		.loc 1 1804 0
 3305 0020 1C3299E5 		ldr	r3, [r9, #540]
1800:F:/ARM_Project/W55FA92/N9H20/BSP/Driver/Source/SYS\wb_config.c **** 	
 3306              		.loc 1 1800 0
 3307 0024 A441A0E1 		lsr	r4, r4, #3
 3308              		.loc 1 1804 0
 3309 0028 0F0013E3 		tst	r3, #15
1800:F:/ARM_Project/W55FA92/N9H20/BSP/Driver/Source/SYS\wb_config.c **** 	
 3310              		.loc 1 1800 0
 3311 002c 034004E2 		and	r4, r4, #3
 3312              	.LVL202:
1805:F:/ARM_Project/W55FA92/N9H20/BSP/Driver/Source/SYS\wb_config.c **** 		u32Hclk1Frq = u32CpuFreq/2;
 3313              		.loc 1 1805 0
 3314 0030 A000A001 		lsreq	r0, r0, #1
 3315              	.LVL203:
1806:F:/ARM_Project/W55FA92/N9H20/BSP/Driver/Source/SYS\wb_config.c **** 	else
1807:F:/ARM_Project/W55FA92/N9H20/BSP/Driver/Source/SYS\wb_config.c **** 		u32Hclk1Frq = u32CpuFreq;	
1808:F:/ARM_Project/W55FA92/N9H20/BSP/Driver/Source/SYS\wb_config.c **** 	if(u32sysSrc==eSrcClk){
 3316              		.loc 1 1808 0
 3317 0034 040056E1 		cmp	r6, r4
 3318 0038 0500001A 		bne	.L245
1809:F:/ARM_Project/W55FA92/N9H20/BSP/Driver/Source/SYS\wb_config.c **** 		if(u32DramClock< u32Hclk1Frq){
 3319              		.loc 1 1809 0
 3320 003c 050050E1 		cmp	r0, r5
 3321 0040 0500009A 		bls	.L246
 3322              	.LVL204:
 3323              	.L248:
1810:F:/ARM_Project/W55FA92/N9H20/BSP/Driver/Source/SYS\wb_config.c **** 			sysprintf("Err to set memory clock\n");
 3324              		.loc 1 1810 0
 3325 0044 DC009FE5 		ldr	r0, .L257
 3326 0048 FEFFFFEB 		bl	sysprintf
 3327              	.LVL205:
1811:F:/ARM_Project/W55FA92/N9H20/BSP/Driver/Source/SYS\wb_config.c **** 			return WB_INVALID_CLOCK;
 3328              		.loc 1 1811 0
 3329 004c D8009FE5 		ldr	r0, .L257+4
 3330 0050 F087BDE8 		pop	{r4, r5, r6, r7, r8, r9, r10, pc}
 3331              	.LVL206:
 3332              	.L245:
1812:F:/ARM_Project/W55FA92/N9H20/BSP/Driver/Source/SYS\wb_config.c **** 		}	
1813:F:/ARM_Project/W55FA92/N9H20/BSP/Driver/Source/SYS\wb_config.c **** 	}else{
1814:F:/ARM_Project/W55FA92/N9H20/BSP/Driver/Source/SYS\wb_config.c **** 		if(u32DramClock<= u32Hclk1Frq){
 3333              		.loc 1 1814 0
 3334 0054 050050E1 		cmp	r0, r5
 3335 0058 F9FFFF2A 		bcs	.L248
 3336              	.L246:
1815:F:/ARM_Project/W55FA92/N9H20/BSP/Driver/Source/SYS\wb_config.c **** 			sysprintf("Err to set memory clock\n");
1816:F:/ARM_Project/W55FA92/N9H20/BSP/Driver/Source/SYS\wb_config.c **** 			return WB_INVALID_CLOCK;
1817:F:/ARM_Project/W55FA92/N9H20/BSP/Driver/Source/SYS\wb_config.c **** 		}
1818:F:/ARM_Project/W55FA92/N9H20/BSP/Driver/Source/SYS\wb_config.c **** 	}	
1819:F:/ARM_Project/W55FA92/N9H20/BSP/Driver/Source/SYS\wb_config.c **** 	/* Judge MCLK > HCLK3 and HCLK4, assume HCLK234_DIV = 0 */ 
1820:F:/ARM_Project/W55FA92/N9H20/BSP/Driver/Source/SYS\wb_config.c **** 	u32Hclk234 = sysGetHCLK234Clock();	/* HCLK234  */	
 3337              		.loc 1 1820 0
 3338 005c FEFFFFEB 		bl	sysGetHCLK234Clock
 3339              	.LVL207:
1821:F:/ARM_Project/W55FA92/N9H20/BSP/Driver/Source/SYS\wb_config.c **** 	if(u32sysSrc==eSrcClk){
 3340              		.loc 1 1821 0
 3341 0060 040056E1 		cmp	r6, r4
 3342 0064 1500001A 		bne	.L249
1822:F:/ARM_Project/W55FA92/N9H20/BSP/Driver/Source/SYS\wb_config.c **** 		if(u32DramClock< u32Hclk234){
 3343              		.loc 1 1822 0
 3344 0068 000055E1 		cmp	r5, r0
 3345 006c F4FFFF3A 		bcc	.L248
 3346              	.L250:
1823:F:/ARM_Project/W55FA92/N9H20/BSP/Driver/Source/SYS\wb_config.c **** 			sysprintf("Err to set memory clock\n");
1824:F:/ARM_Project/W55FA92/N9H20/BSP/Driver/Source/SYS\wb_config.c **** 			return WB_INVALID_CLOCK;
1825:F:/ARM_Project/W55FA92/N9H20/BSP/Driver/Source/SYS\wb_config.c **** 		}
1826:F:/ARM_Project/W55FA92/N9H20/BSP/Driver/Source/SYS\wb_config.c **** 	}else{
1827:F:/ARM_Project/W55FA92/N9H20/BSP/Driver/Source/SYS\wb_config.c **** 		if(u32DramClock<= u32Hclk234){
1828:F:/ARM_Project/W55FA92/N9H20/BSP/Driver/Source/SYS\wb_config.c **** 			sysprintf("Err to set memory clock\n");
1829:F:/ARM_Project/W55FA92/N9H20/BSP/Driver/Source/SYS\wb_config.c **** 			return WB_INVALID_CLOCK;
1830:F:/ARM_Project/W55FA92/N9H20/BSP/Driver/Source/SYS\wb_config.c **** 		}
1831:F:/ARM_Project/W55FA92/N9H20/BSP/Driver/Source/SYS\wb_config.c **** 	}	
1832:F:/ARM_Project/W55FA92/N9H20/BSP/Driver/Source/SYS\wb_config.c **** 	u32DramDiv = u32PLLClockHz/u32DdrClock;	
 3347              		.loc 1 1832 0
 3348 0070 0810A0E1 		mov	r1, r8
 3349 0074 0700A0E1 		mov	r0, r7
 3350              	.LVL208:
 3351 0078 FEFFFFEB 		bl	__aeabi_uidiv
 3352              	.LVL209:
1833:F:/ARM_Project/W55FA92/N9H20/BSP/Driver/Source/SYS\wb_config.c **** 	for(u32DivN1 = 1; u32DivN1<=8; u32DivN1=u32DivN1+1){
 3353              		.loc 1 1833 0
 3354 007c 0120A0E3 		mov	r2, #1
1832:F:/ARM_Project/W55FA92/N9H20/BSP/Driver/Source/SYS\wb_config.c **** 	for(u32DivN1 = 1; u32DivN1<=8; u32DivN1=u32DivN1+1){
 3355              		.loc 1 1832 0
 3356 0080 0010A0E1 		mov	r1, r0
 3357              	.LVL210:
 3358              	.L251:
1795:F:/ARM_Project/W55FA92/N9H20/BSP/Driver/Source/SYS\wb_config.c **** 	UINT32 u32FinHz, u32DramDiv;
 3359              		.loc 1 1795 0
 3360 0084 02C0A0E1 		mov	ip, r2
1834:F:/ARM_Project/W55FA92/N9H20/BSP/Driver/Source/SYS\wb_config.c **** 		for(u32DivN0 = 1; u32DivN0<=8; u32DivN0=u32DivN0+1){
 3361              		.loc 1 1834 0
 3362 0088 0130A0E3 		mov	r3, #1
 3363              	.LVL211:
 3364              	.L253:
1835:F:/ARM_Project/W55FA92/N9H20/BSP/Driver/Source/SYS\wb_config.c **** 			if(u32DramDiv==(u32DivN1*u32DivN0))
 3365              		.loc 1 1835 0
 3366 008c 0C0051E1 		cmp	r1, ip
 3367 0090 0D00000A 		beq	.L252
1834:F:/ARM_Project/W55FA92/N9H20/BSP/Driver/Source/SYS\wb_config.c **** 		for(u32DivN0 = 1; u32DivN0<=8; u32DivN0=u32DivN0+1){
 3368              		.loc 1 1834 0 discriminator 2
 3369 0094 013083E2 		add	r3, r3, #1
 3370              	.LVL212:
 3371 0098 090053E3 		cmp	r3, #9
 3372 009c 02C08CE0 		add	ip, ip, r2
 3373 00a0 F9FFFF1A 		bne	.L253
1833:F:/ARM_Project/W55FA92/N9H20/BSP/Driver/Source/SYS\wb_config.c **** 		for(u32DivN0 = 1; u32DivN0<=8; u32DivN0=u32DivN0+1){
 3374              		.loc 1 1833 0 discriminator 2
 3375 00a4 012082E2 		add	r2, r2, #1
 3376              	.LVL213:
 3377 00a8 090052E3 		cmp	r2, #9
 3378 00ac F4FFFF1A 		bne	.L251
1836:F:/ARM_Project/W55FA92/N9H20/BSP/Driver/Source/SYS\wb_config.c **** 				break;			
1837:F:/ARM_Project/W55FA92/N9H20/BSP/Driver/Source/SYS\wb_config.c **** 		}
1838:F:/ARM_Project/W55FA92/N9H20/BSP/Driver/Source/SYS\wb_config.c **** 		if(u32DivN0>=9)
1839:F:/ARM_Project/W55FA92/N9H20/BSP/Driver/Source/SYS\wb_config.c **** 			continue;
1840:F:/ARM_Project/W55FA92/N9H20/BSP/Driver/Source/SYS\wb_config.c **** 		if(u32DramDiv==(u32DivN1*u32DivN0))		
1841:F:/ARM_Project/W55FA92/N9H20/BSP/Driver/Source/SYS\wb_config.c **** 			break;	
1842:F:/ARM_Project/W55FA92/N9H20/BSP/Driver/Source/SYS\wb_config.c **** 	}
1843:F:/ARM_Project/W55FA92/N9H20/BSP/Driver/Source/SYS\wb_config.c **** 	if(u32DivN0>=9){//Over 8*8 range or prime number (19, 17, 13, 15..)
1844:F:/ARM_Project/W55FA92/N9H20/BSP/Driver/Source/SYS\wb_config.c **** 		sysprintf("Can not set the clock due to divider is %d\n", u32DramDiv);
 3379              		.loc 1 1844 0
 3380 00b0 78009FE5 		ldr	r0, .L257+8
 3381              	.LVL214:
 3382 00b4 FEFFFFEB 		bl	sysprintf
 3383              	.LVL215:
1845:F:/ARM_Project/W55FA92/N9H20/BSP/Driver/Source/SYS\wb_config.c **** 		return WB_INVALID_CLOCK;
 3384              		.loc 1 1845 0
 3385 00b8 6C009FE5 		ldr	r0, .L257+4
 3386 00bc F087BDE8 		pop	{r4, r5, r6, r7, r8, r9, r10, pc}
 3387              	.LVL216:
 3388              	.L249:
1827:F:/ARM_Project/W55FA92/N9H20/BSP/Driver/Source/SYS\wb_config.c **** 			sysprintf("Err to set memory clock\n");
 3389              		.loc 1 1827 0
 3390 00c0 000055E1 		cmp	r5, r0
 3391 00c4 E9FFFF8A 		bhi	.L250
 3392 00c8 DDFFFFEA 		b	.L248
 3393              	.LVL217:
 3394              	.L252:
1846:F:/ARM_Project/W55FA92/N9H20/BSP/Driver/Source/SYS\wb_config.c **** 	}			
1847:F:/ARM_Project/W55FA92/N9H20/BSP/Driver/Source/SYS\wb_config.c **** 	if(u32DivN0!=0)
1848:F:/ARM_Project/W55FA92/N9H20/BSP/Driver/Source/SYS\wb_config.c **** 		u32DivN0 = u32DivN0-1;
1849:F:/ARM_Project/W55FA92/N9H20/BSP/Driver/Source/SYS\wb_config.c **** 	if(u32DivN1!=0)	
1850:F:/ARM_Project/W55FA92/N9H20/BSP/Driver/Source/SYS\wb_config.c **** 		u32DivN1 = u32DivN1-1;    	
1851:F:/ARM_Project/W55FA92/N9H20/BSP/Driver/Source/SYS\wb_config.c **** 	u32DramClockReg = ((u32DivN1<<5) | (eSrcClk<<3) | u32DivN0);	
1852:F:/ARM_Project/W55FA92/N9H20/BSP/Driver/Source/SYS\wb_config.c **** 	u32DramClockReg = (inp32(REG_CLKDIV7) & ~(DRAM_N1 | DRAM_S | DRAM_N0)) | u32DramClockReg;
 3395              		.loc 1 1852 0
 3396 00cc 0B12A0E3 		mov	r1, #-1342177280
 3397 00d0 404291E5 		ldr	r4, [r1, #576]
 3398              	.LVL218:
1848:F:/ARM_Project/W55FA92/N9H20/BSP/Driver/Source/SYS\wb_config.c **** 	if(u32DivN1!=0)	
 3399              		.loc 1 1848 0
 3400 00d4 013043E2 		sub	r3, r3, #1
 3401              	.LVL219:
 3402              		.loc 1 1852 0
 3403 00d8 FF40C4E3 		bic	r4, r4, #255
 3404 00dc 864184E1 		orr	r4, r4, r6, lsl #3
 3405 00e0 034084E1 		orr	r4, r4, r3
1850:F:/ARM_Project/W55FA92/N9H20/BSP/Driver/Source/SYS\wb_config.c **** 	u32DramClockReg = ((u32DivN1<<5) | (eSrcClk<<3) | u32DivN0);	
 3406              		.loc 1 1850 0
 3407 00e4 012042E2 		sub	r2, r2, #1
 3408              	.LVL220:
 3409              		.loc 1 1852 0
 3410 00e8 824284E1 		orr	r4, r4, r2, lsl #5
 3411              	.LVL221:
 3412              	.LBB26:
 3413              	.LBB27:
 688:F:/ARM_Project/W55FA92/N9H20/BSP/Driver/Source/SYS\wb_config.c **** #endif		
 3414              		.loc 1 688 0
 3415 00ec 40309FE5 		ldr	r3, .L257+12
 3416              	.LVL222:
 3417 00f0 40209FE5 		ldr	r2, .L257+16
 3418              	.LVL223:
 3419              	.LBE27:
 3420              	.LBE26:
1853:F:/ARM_Project/W55FA92/N9H20/BSP/Driver/Source/SYS\wb_config.c **** 
1854:F:/ARM_Project/W55FA92/N9H20/BSP/Driver/Source/SYS\wb_config.c **** 	u32FinHz = sysGetExternalClock();
1855:F:/ARM_Project/W55FA92/N9H20/BSP/Driver/Source/SYS\wb_config.c **** 	g_i32REG_MPLL = _sysGetPLLControlRegister((u32FinHz/1000), u32PLLClockHz);	
 3421              		.loc 1 1855 0
 3422 00f4 0710A0E1 		mov	r1, r7
 3423 00f8 3C009FE5 		ldr	r0, .L257+20
 3424              	.LVL224:
 3425              	.LBB29:
 3426              	.LBB28:
 688:F:/ARM_Project/W55FA92/N9H20/BSP/Driver/Source/SYS\wb_config.c **** #endif		
 3427              		.loc 1 688 0
 3428 00fc 002083E5 		str	r2, [r3]
 3429              	.LBE28:
 3430              	.LBE29:
 3431              		.loc 1 1855 0
 3432 0100 FEFFFFEB 		bl	_sysGetPLLControlRegister
 3433              	.LVL225:
 3434 0104 34309FE5 		ldr	r3, .L257+24
1856:F:/ARM_Project/W55FA92/N9H20/BSP/Driver/Source/SYS\wb_config.c **** 	
1857:F:/ARM_Project/W55FA92/N9H20/BSP/Driver/Source/SYS\wb_config.c **** 	//sysprintf("Want to set DRAM DIV REG = 0x%x\n",u32DramClockReg);
1858:F:/ARM_Project/W55FA92/N9H20/BSP/Driver/Source/SYS\wb_config.c **** 	_dramClockSwitchStart(eSrcClk, 			/* PLL clock source */
 3435              		.loc 1 1858 0
 3436 0108 0520A0E1 		mov	r2, r5
1855:F:/ARM_Project/W55FA92/N9H20/BSP/Driver/Source/SYS\wb_config.c **** 	
 3437              		.loc 1 1855 0
 3438 010c 0010A0E1 		mov	r1, r0
 3439 0110 000083E5 		str	r0, [r3]
 3440              		.loc 1 1858 0
 3441 0114 0600A0E1 		mov	r0, r6
 3442 0118 0430A0E1 		mov	r3, r4
 3443 011c FEFFFFEB 		bl	_dramClockSwitchStart
 3444              	.LVL226:
1859:F:/ARM_Project/W55FA92/N9H20/BSP/Driver/Source/SYS\wb_config.c **** 						g_i32REG_MPLL, 	/* From MLL */
1860:F:/ARM_Project/W55FA92/N9H20/BSP/Driver/Source/SYS\wb_config.c **** 						u32DdrClock/2, 	/* SDIC clock to judge high or low frequency */
1861:F:/ARM_Project/W55FA92/N9H20/BSP/Driver/Source/SYS\wb_config.c **** 						u32DramClockReg); 	/* DRAM clock divider */
1862:F:/ARM_Project/W55FA92/N9H20/BSP/Driver/Source/SYS\wb_config.c **** 	//sysprintf("MPLL REG = 0x%x\n", inp32(REG_MPLLCON));
1863:F:/ARM_Project/W55FA92/N9H20/BSP/Driver/Source/SYS\wb_config.c **** 	//sysprintf("DRAM DIV REG = 0x%x\n", inp32(REG_CLKDIV7));
1864:F:/ARM_Project/W55FA92/N9H20/BSP/Driver/Source/SYS\wb_config.c **** 	return  Successful;				
 3445              		.loc 1 1864 0
 3446 0120 0000A0E3 		mov	r0, #0
1865:F:/ARM_Project/W55FA92/N9H20/BSP/Driver/Source/SYS\wb_config.c **** }
 3447              		.loc 1 1865 0
 3448 0124 F087BDE8 		pop	{r4, r5, r6, r7, r8, r9, r10, pc}
 3449              	.L258:
 3450              		.align	2
 3451              	.L257:
 3452 0128 10000000 		.word	.LANCHOR0+16
 3453 012c 0A0AFFFF 		.word	-62966
 3454 0130 AB000000 		.word	.LANCHOR0+171
 3455 0134 00000000 		.word	.LANCHOR2
 3456 0138 001BB700 		.word	12000000
 3457 013c E02E0000 		.word	12000
 3458 0140 00000000 		.word	.LANCHOR5
 3459              		.cfi_endproc
 3460              	.LFE24:
 3462              		.section	.text.sysGetDramClock,"ax",%progbits
 3463              		.align	2
 3464              		.global	sysGetDramClock
 3465              		.syntax unified
 3466              		.arm
 3467              		.fpu softvfp
 3469              	sysGetDramClock:
 3470              	.LFB25:
1866:F:/ARM_Project/W55FA92/N9H20/BSP/Driver/Source/SYS\wb_config.c **** /*
1867:F:/ARM_Project/W55FA92/N9H20/BSP/Driver/Source/SYS\wb_config.c **** 	Here return is DDR clock. 
1868:F:/ARM_Project/W55FA92/N9H20/BSP/Driver/Source/SYS\wb_config.c **** 	MCLK should be DDR/2
1869:F:/ARM_Project/W55FA92/N9H20/BSP/Driver/Source/SYS\wb_config.c **** */
1870:F:/ARM_Project/W55FA92/N9H20/BSP/Driver/Source/SYS\wb_config.c **** UINT32 sysGetDramClock(void)
1871:F:/ARM_Project/W55FA92/N9H20/BSP/Driver/Source/SYS\wb_config.c **** {
 3471              		.loc 1 1871 0
 3472              		.cfi_startproc
 3473              		@ args = 0, pretend = 0, frame = 0
 3474              		@ frame_needed = 0, uses_anonymous_args = 0
1872:F:/ARM_Project/W55FA92/N9H20/BSP/Driver/Source/SYS\wb_config.c **** 	UINT32 u32DramClock, u32RegData;
1873:F:/ARM_Project/W55FA92/N9H20/BSP/Driver/Source/SYS\wb_config.c **** 	UINT32 u32SrcClock, u32Div, u32ExtFreq;
1874:F:/ARM_Project/W55FA92/N9H20/BSP/Driver/Source/SYS\wb_config.c **** 	
1875:F:/ARM_Project/W55FA92/N9H20/BSP/Driver/Source/SYS\wb_config.c **** 	u32RegData = inp32(REG_CLKDIV7);
 3475              		.loc 1 1875 0
 3476 0000 0B32A0E3 		mov	r3, #-1342177280
 3477 0004 403293E5 		ldr	r3, [r3, #576]
 3478              	.LVL227:
 3479              	.LBB30:
 3480              	.LBB31:
 688:F:/ARM_Project/W55FA92/N9H20/BSP/Driver/Source/SYS\wb_config.c **** #endif		
 3481              		.loc 1 688 0
 3482 0008 3C109FE5 		ldr	r1, .L263
 3483 000c 3C209FE5 		ldr	r2, .L263+4
 3484              	.LBE31:
 3485              	.LBE30:
1871:F:/ARM_Project/W55FA92/N9H20/BSP/Driver/Source/SYS\wb_config.c **** 	UINT32 u32DramClock, u32RegData;
 3486              		.loc 1 1871 0
 3487 0010 70402DE9 		push	{r4, r5, r6, lr}
 3488              		.cfi_def_cfa_offset 16
 3489              		.cfi_offset 4, -16
 3490              		.cfi_offset 5, -12
 3491              		.cfi_offset 6, -8
 3492              		.cfi_offset 14, -4
1876:F:/ARM_Project/W55FA92/N9H20/BSP/Driver/Source/SYS\wb_config.c **** 	u32SrcClock = (u32RegData&DRAM_S)>>3;
 3493              		.loc 1 1876 0
 3494 0014 A301A0E1 		lsr	r0, r3, #3
 3495              	.LVL228:
1877:F:/ARM_Project/W55FA92/N9H20/BSP/Driver/Source/SYS\wb_config.c **** 	u32ExtFreq = sysGetExternalClock();
1878:F:/ARM_Project/W55FA92/N9H20/BSP/Driver/Source/SYS\wb_config.c **** 	
1879:F:/ARM_Project/W55FA92/N9H20/BSP/Driver/Source/SYS\wb_config.c **** 	u32Div = ((u32RegData & DRAM_N0)+1) * (((u32RegData & DRAM_N1)>>5)+1);
 3496              		.loc 1 1879 0
 3497 0018 A342A0E1 		lsr	r4, r3, #5
 3498 001c 073003E2 		and	r3, r3, #7
 3499              	.LVL229:
 3500 0020 074004E2 		and	r4, r4, #7
 3501 0024 013083E2 		add	r3, r3, #1
1880:F:/ARM_Project/W55FA92/N9H20/BSP/Driver/Source/SYS\wb_config.c **** 	if(u32SrcClock==0)
 3502              		.loc 1 1880 0
 3503 0028 030010E2 		ands	r0, r0, #3
 3504              	.LVL230:
 3505              	.LBB33:
 3506              	.LBB32:
 688:F:/ARM_Project/W55FA92/N9H20/BSP/Driver/Source/SYS\wb_config.c **** #endif		
 3507              		.loc 1 688 0
 3508 002c 001082E5 		str	r1, [r2]
 3509              	.LBE32:
 3510              	.LBE33:
1879:F:/ARM_Project/W55FA92/N9H20/BSP/Driver/Source/SYS\wb_config.c **** 	if(u32SrcClock==0)
 3511              		.loc 1 1879 0
 3512 0030 933425E0 		mla	r5, r3, r4, r3
 3513              	.LVL231:
1881:F:/ARM_Project/W55FA92/N9H20/BSP/Driver/Source/SYS\wb_config.c **** 		u32SrcClock = sysGetExternalClock();
 3514              		.loc 1 1881 0
 3515 0034 0100A001 		moveq	r0, r1
 3516              	.LVL232:
1880:F:/ARM_Project/W55FA92/N9H20/BSP/Driver/Source/SYS\wb_config.c **** 		u32SrcClock = sysGetExternalClock();
 3517              		.loc 1 1880 0
 3518 0038 0000000A 		beq	.L260
1882:F:/ARM_Project/W55FA92/N9H20/BSP/Driver/Source/SYS\wb_config.c **** 	else	
1883:F:/ARM_Project/W55FA92/N9H20/BSP/Driver/Source/SYS\wb_config.c **** 		u32SrcClock = sysGetPLLOutputHz((E_SYS_SRC_CLK)u32SrcClock, u32ExtFreq);
 3519              		.loc 1 1883 0
 3520 003c FEFFFFEB 		bl	sysGetPLLOutputHz
 3521              	.LVL233:
 3522              	.L260:
1884:F:/ARM_Project/W55FA92/N9H20/BSP/Driver/Source/SYS\wb_config.c **** 	u32DramClock = (u32SrcClock/u32Div);
 3523              		.loc 1 1884 0
 3524 0040 0510A0E1 		mov	r1, r5
 3525 0044 FEFFFFEB 		bl	__aeabi_uidiv
 3526              	.LVL234:
1885:F:/ARM_Project/W55FA92/N9H20/BSP/Driver/Source/SYS\wb_config.c **** 	return u32DramClock;
1886:F:/ARM_Project/W55FA92/N9H20/BSP/Driver/Source/SYS\wb_config.c **** 
1887:F:/ARM_Project/W55FA92/N9H20/BSP/Driver/Source/SYS\wb_config.c **** }
 3527              		.loc 1 1887 0
 3528 0048 7080BDE8 		pop	{r4, r5, r6, pc}
 3529              	.L264:
 3530              		.align	2
 3531              	.L263:
 3532 004c 001BB700 		.word	12000000
 3533 0050 00000000 		.word	.LANCHOR2
 3534              		.cfi_endproc
 3535              	.LFE25:
 3537              		.section	.rodata
 3538              		.align	2
 3539              		.set	.LANCHOR0,. + 0
 3540              	.LC0:
 3541 0000 01000000 		.word	1
 3542 0004 02000000 		.word	2
 3543 0008 04000000 		.word	4
 3544 000c 08000000 		.word	8
 3545              	.LC1:
 3546 0010 45727220 		.ascii	"Err to set memory clock\012\000"
 3546      746F2073 
 3546      6574206D 
 3546      656D6F72 
 3546      7920636C 
 3547              	.LC2:
 3548 0029 45727220 		.ascii	"Err to set memory clock- Over system divider\012\000"
 3548      746F2073 
 3548      6574206D 
 3548      656D6F72 
 3548      7920636C 
 3549              	.LC3:
 3550 0057 45727220 		.ascii	"Err to set memory clock- Mclk>HCLK1\012\000"
 3550      746F2073 
 3550      6574206D 
 3550      656D6F72 
 3550      7920636C 
 3551              	.LC4:
 3552 007c 45727220 		.ascii	"Err to set memory clock- Mclk>HCLK3 and HCLK4\012\000"
 3552      746F2073 
 3552      6574206D 
 3552      656D6F72 
 3552      7920636C 
 3553              	.LC5:
 3554 00ab 43616E20 		.ascii	"Can not set the clock due to divider is %d\012\000"
 3554      6E6F7420 
 3554      73657420 
 3554      74686520 
 3554      636C6F63 
 3555              	.LC6:
 3556 00d7 41504220 		.ascii	"APB divider must be less  8\012\000"
 3556      64697669 
 3556      64657220 
 3556      6D757374 
 3556      20626520 
 3557              	.LC7:
 3558 00f4 41504220 		.ascii	"APB divider must be 1 at least\012\000"
 3558      64697669 
 3558      64657220 
 3558      6D757374 
 3558      20626520 
 3559              		.section	.bss.bIsAPLLInitialize,"aw",%nobits
 3562              	bIsAPLLInitialize:
 3563 0000 00       		.space	1
 3564              		.section	.bss.g_i32REG_APLL,"aw",%nobits
 3565              		.align	2
 3566              		.set	.LANCHOR3,. + 0
 3569              	g_i32REG_APLL:
 3570 0000 00000000 		.space	4
 3571              		.section	.bss.g_i32REG_MPLL,"aw",%nobits
 3572              		.align	2
 3573              		.set	.LANCHOR5,. + 0
 3576              	g_i32REG_MPLL:
 3577 0000 00000000 		.space	4
 3578              		.section	.bss.g_i32REG_UPLL,"aw",%nobits
 3579              		.align	2
 3580              		.set	.LANCHOR4,. + 0
 3583              	g_i32REG_UPLL:
 3584 0000 00000000 		.space	4
 3585              		.section	.bss.g_u32ApllHz,"aw",%nobits
 3586              		.align	2
 3589              	g_u32ApllHz:
 3590 0000 00000000 		.space	4
 3591              		.section	.bss.g_u32MpllHz,"aw",%nobits
 3592              		.align	2
 3595              	g_u32MpllHz:
 3596 0000 00000000 		.space	4
 3597              		.section	.bss.g_u32UpllHz,"aw",%nobits
 3598              		.align	2
 3601              	g_u32UpllHz:
 3602 0000 00000000 		.space	4
 3603              		.section	.bss.u32ClkSkewInit,"aw",%nobits
 3604              		.align	2
 3607              	u32ClkSkewInit:
 3608 0000 00000000 		.space	4
 3609              		.section	.data.bIsCheckConstraint,"aw",%progbits
 3610              		.set	.LANCHOR1,. + 0
 3613              	bIsCheckConstraint:
 3614 0000 01       		.byte	1
 3615              		.section	.data.bIsFirstReadClkSkew,"aw",%progbits
 3618              	bIsFirstReadClkSkew:
 3619 0000 01       		.byte	1
 3620              		.section	.data.g_u32ExtClk,"aw",%progbits
 3621              		.align	2
 3622              		.set	.LANCHOR2,. + 0
 3625              	g_u32ExtClk:
 3626 0000 001BB700 		.word	12000000
 3627              		.text
 3628              	.Letext0:
 3629              		.file 2 "c:\\program files (x86)\\gnu tools arm embedded\\7 2018-q2-update\\arm-none-eabi\\include
 3630              		.file 3 "c:\\program files (x86)\\gnu tools arm embedded\\7 2018-q2-update\\arm-none-eabi\\include
 3631              		.file 4 "c:\\program files (x86)\\gnu tools arm embedded\\7 2018-q2-update\\lib\\gcc\\arm-none-eab
 3632              		.file 5 "c:\\program files (x86)\\gnu tools arm embedded\\7 2018-q2-update\\arm-none-eabi\\include
 3633              		.file 6 "f:\\arm_project\\w55fa92\\n9h20\\bsp\\driver\\include\\wbtypes.h"
 3634              		.file 7 "f:\\arm_project\\w55fa92\\n9h20\\bsp\\driver\\include\\wblib.h"
 3635              		.file 8 "<built-in>"
DEFINED SYMBOLS
                            *ABS*:00000000 wb_config.c
C:\Users\~1\AppData\Local\Temp\ccccyc5j.s:3618   .data.bIsFirstReadClkSkew:00000000 bIsFirstReadClkSkew
C:\Users\~1\AppData\Local\Temp\ccccyc5j.s:3607   .bss.u32ClkSkewInit:00000000 u32ClkSkewInit
C:\Users\~1\AppData\Local\Temp\ccccyc5j.s:19     .text.sysGetPLLOutputHz:00000000 $a
C:\Users\~1\AppData\Local\Temp\ccccyc5j.s:25     .text.sysGetPLLOutputHz:00000000 sysGetPLLOutputHz
C:\Users\~1\AppData\Local\Temp\ccccyc5j.s:115    .text.sysGetPLLOutputHz:00000098 $d
C:\Users\~1\AppData\Local\Temp\ccccyc5j.s:3613   .data.bIsCheckConstraint:00000000 bIsCheckConstraint
C:\Users\~1\AppData\Local\Temp\ccccyc5j.s:121    .text.sysCheckPllConstraint:00000000 $a
C:\Users\~1\AppData\Local\Temp\ccccyc5j.s:127    .text.sysCheckPllConstraint:00000000 sysCheckPllConstraint
C:\Users\~1\AppData\Local\Temp\ccccyc5j.s:143    .text.sysCheckPllConstraint:0000000c $d
C:\Users\~1\AppData\Local\Temp\ccccyc5j.s:148    .text._sysGetPLLControlRegister:00000000 $a
C:\Users\~1\AppData\Local\Temp\ccccyc5j.s:154    .text._sysGetPLLControlRegister:00000000 _sysGetPLLControlRegister
C:\Users\~1\AppData\Local\Temp\ccccyc5j.s:296    .text._sysGetPLLControlRegister:00000100 $d
C:\Users\~1\AppData\Local\Temp\ccccyc5j.s:304    .text.sysSetPLLControlRegister:00000000 $a
C:\Users\~1\AppData\Local\Temp\ccccyc5j.s:310    .text.sysSetPLLControlRegister:00000000 sysSetPLLControlRegister
C:\Users\~1\AppData\Local\Temp\ccccyc5j.s:329    .text._sysClockSwitch:00000000 $a
C:\Users\~1\AppData\Local\Temp\ccccyc5j.s:335    .text._sysClockSwitch:00000000 _sysClockSwitch
C:\Users\~1\AppData\Local\Temp\ccccyc5j.s:381    .text._sysClockSwitch:00000050 loop1
C:\Users\~1\AppData\Local\Temp\ccccyc5j.s:425    .text._sysClockSwitch:000000c0 loop1a
C:\Users\~1\AppData\Local\Temp\ccccyc5j.s:448    .text._sysClockSwitch:000000f4 loop2
C:\Users\~1\AppData\Local\Temp\ccccyc5j.s:473    .text._sysClockSwitch:0000012c loop3a
C:\Users\~1\AppData\Local\Temp\ccccyc5j.s:501    .text._sysClockSwitch:00000154 $d
C:\Users\~1\AppData\Local\Temp\ccccyc5j.s:511    .text._sysClockSwitchStart:00000000 $a
C:\Users\~1\AppData\Local\Temp\ccccyc5j.s:517    .text._sysClockSwitchStart:00000000 _sysClockSwitchStart
C:\Users\~1\AppData\Local\Temp\ccccyc5j.s:621    .text._sysClockSwitchStart:000000a0 $d
C:\Users\~1\AppData\Local\Temp\ccccyc5j.s:627    .text.sysSetSystemClock:00000000 $a
C:\Users\~1\AppData\Local\Temp\ccccyc5j.s:633    .text.sysSetSystemClock:00000000 sysSetSystemClock
C:\Users\~1\AppData\Local\Temp\ccccyc5j.s:1230   .text.sysGetCPUClock:00000000 sysGetCPUClock
C:\Users\~1\AppData\Local\Temp\ccccyc5j.s:3469   .text.sysGetDramClock:00000000 sysGetDramClock
C:\Users\~1\AppData\Local\Temp\ccccyc5j.s:907    .text.sysSetSystemClock:00000208 $d
C:\Users\~1\AppData\Local\Temp\ccccyc5j.s:914    .text.sysSetSystemClock:00000218 $d
C:\Users\~1\AppData\Local\Temp\ccccyc5j.s:930    .text.sysSetCPUClock:00000000 $a
C:\Users\~1\AppData\Local\Temp\ccccyc5j.s:936    .text.sysSetCPUClock:00000000 sysSetCPUClock
C:\Users\~1\AppData\Local\Temp\ccccyc5j.s:1141   .text.sysGetSystemClock:00000000 sysGetSystemClock
C:\Users\~1\AppData\Local\Temp\ccccyc5j.s:1006   .text.sysSetCPUClock:0000006c $d
C:\Users\~1\AppData\Local\Temp\ccccyc5j.s:1011   .text.sysSetAPBClock:00000000 $a
C:\Users\~1\AppData\Local\Temp\ccccyc5j.s:1017   .text.sysSetAPBClock:00000000 sysSetAPBClock
C:\Users\~1\AppData\Local\Temp\ccccyc5j.s:1264   .text.sysGetHCLK1Clock:00000000 sysGetHCLK1Clock
C:\Users\~1\AppData\Local\Temp\ccccyc5j.s:1099   .text.sysSetAPBClock:00000088 $d
C:\Users\~1\AppData\Local\Temp\ccccyc5j.s:3562   .bss.bIsAPLLInitialize:00000000 bIsAPLLInitialize
C:\Users\~1\AppData\Local\Temp\ccccyc5j.s:1107   .text.sysGetExternalClock:00000000 $a
C:\Users\~1\AppData\Local\Temp\ccccyc5j.s:1113   .text.sysGetExternalClock:00000000 sysGetExternalClock
C:\Users\~1\AppData\Local\Temp\ccccyc5j.s:1129   .text.sysGetExternalClock:00000010 $d
C:\Users\~1\AppData\Local\Temp\ccccyc5j.s:1135   .text.sysGetSystemClock:00000000 $a
C:\Users\~1\AppData\Local\Temp\ccccyc5j.s:1218   .text.sysGetSystemClock:0000006c $d
C:\Users\~1\AppData\Local\Temp\ccccyc5j.s:1224   .text.sysGetCPUClock:00000000 $a
C:\Users\~1\AppData\Local\Temp\ccccyc5j.s:1258   .text.sysGetHCLK1Clock:00000000 $a
C:\Users\~1\AppData\Local\Temp\ccccyc5j.s:1292   .text.sysGetHCLK234Clock:00000000 $a
C:\Users\~1\AppData\Local\Temp\ccccyc5j.s:1298   .text.sysGetHCLK234Clock:00000000 sysGetHCLK234Clock
C:\Users\~1\AppData\Local\Temp\ccccyc5j.s:1330   .text.sysGetAPBClock:00000000 $a
C:\Users\~1\AppData\Local\Temp\ccccyc5j.s:1336   .text.sysGetAPBClock:00000000 sysGetAPBClock
C:\Users\~1\AppData\Local\Temp\ccccyc5j.s:1369   .text.sysSetPllClock:00000000 $a
C:\Users\~1\AppData\Local\Temp\ccccyc5j.s:1375   .text.sysSetPllClock:00000000 sysSetPllClock
C:\Users\~1\AppData\Local\Temp\ccccyc5j.s:1505   .text.sysSetPllClock:000000ac $d
C:\Users\~1\AppData\Local\Temp\ccccyc5j.s:1512   .text._dramClockSwitch:00000000 $a
C:\Users\~1\AppData\Local\Temp\ccccyc5j.s:1518   .text._dramClockSwitch:00000000 _dramClockSwitch
C:\Users\~1\AppData\Local\Temp\ccccyc5j.s:1644   .text._dramClockSwitch:00000158 DRAM_A
C:\Users\~1\AppData\Local\Temp\ccccyc5j.s:1725   .text._dramClockSwitch:00000250 DRAM_S0
C:\Users\~1\AppData\Local\Temp\ccccyc5j.s:1917   .text._dramClockSwitch:00000484 DRAM_S1
C:\Users\~1\AppData\Local\Temp\ccccyc5j.s:1942   .text._dramClockSwitch:000004b8 DRAM1a
C:\Users\~1\AppData\Local\Temp\ccccyc5j.s:2117   .text._dramClockSwitch:000006d0 DRAMHA
C:\Users\~1\AppData\Local\Temp\ccccyc5j.s:2166   .text._dramClockSwitch:00000750 DRAMHB
C:\Users\~1\AppData\Local\Temp\ccccyc5j.s:2393   .text._dramClockSwitch:00000a08 DRAMHC
C:\Users\~1\AppData\Local\Temp\ccccyc5j.s:2526   .text._dramClockSwitch:00000b94 DRAMHD
C:\Users\~1\AppData\Local\Temp\ccccyc5j.s:2835   .text._dramClockSwitch:00000f48 $d
C:\Users\~1\AppData\Local\Temp\ccccyc5j.s:2886   .text._dramClockSwitch:0000100c $a
C:\Users\~1\AppData\Local\Temp\ccccyc5j.s:2927   .text._dramClockSwitch:0000108c DRAM_L
C:\Users\~1\AppData\Local\Temp\ccccyc5j.s:2990   .text._dramClockSwitch:00001138 DRAM1B
C:\Users\~1\AppData\Local\Temp\ccccyc5j.s:3128   .text._dramClockSwitchStart:00000000 $a
C:\Users\~1\AppData\Local\Temp\ccccyc5j.s:3134   .text._dramClockSwitchStart:00000000 _dramClockSwitchStart
C:\Users\~1\AppData\Local\Temp\ccccyc5j.s:3259   .text._dramClockSwitchStart:000000d4 $d
C:\Users\~1\AppData\Local\Temp\ccccyc5j.s:3266   .text.sysSetDramClock:00000000 $a
C:\Users\~1\AppData\Local\Temp\ccccyc5j.s:3272   .text.sysSetDramClock:00000000 sysSetDramClock
C:\Users\~1\AppData\Local\Temp\ccccyc5j.s:3452   .text.sysSetDramClock:00000128 $d
C:\Users\~1\AppData\Local\Temp\ccccyc5j.s:3463   .text.sysGetDramClock:00000000 $a
C:\Users\~1\AppData\Local\Temp\ccccyc5j.s:3532   .text.sysGetDramClock:0000004c $d
C:\Users\~1\AppData\Local\Temp\ccccyc5j.s:3538   .rodata:00000000 $d
C:\Users\~1\AppData\Local\Temp\ccccyc5j.s:3563   .bss.bIsAPLLInitialize:00000000 $d
C:\Users\~1\AppData\Local\Temp\ccccyc5j.s:3565   .bss.g_i32REG_APLL:00000000 $d
C:\Users\~1\AppData\Local\Temp\ccccyc5j.s:3569   .bss.g_i32REG_APLL:00000000 g_i32REG_APLL
C:\Users\~1\AppData\Local\Temp\ccccyc5j.s:3572   .bss.g_i32REG_MPLL:00000000 $d
C:\Users\~1\AppData\Local\Temp\ccccyc5j.s:3576   .bss.g_i32REG_MPLL:00000000 g_i32REG_MPLL
C:\Users\~1\AppData\Local\Temp\ccccyc5j.s:3579   .bss.g_i32REG_UPLL:00000000 $d
C:\Users\~1\AppData\Local\Temp\ccccyc5j.s:3583   .bss.g_i32REG_UPLL:00000000 g_i32REG_UPLL
C:\Users\~1\AppData\Local\Temp\ccccyc5j.s:3586   .bss.g_u32ApllHz:00000000 $d
C:\Users\~1\AppData\Local\Temp\ccccyc5j.s:3589   .bss.g_u32ApllHz:00000000 g_u32ApllHz
C:\Users\~1\AppData\Local\Temp\ccccyc5j.s:3592   .bss.g_u32MpllHz:00000000 $d
C:\Users\~1\AppData\Local\Temp\ccccyc5j.s:3595   .bss.g_u32MpllHz:00000000 g_u32MpllHz
C:\Users\~1\AppData\Local\Temp\ccccyc5j.s:3598   .bss.g_u32UpllHz:00000000 $d
C:\Users\~1\AppData\Local\Temp\ccccyc5j.s:3601   .bss.g_u32UpllHz:00000000 g_u32UpllHz
C:\Users\~1\AppData\Local\Temp\ccccyc5j.s:3604   .bss.u32ClkSkewInit:00000000 $d
C:\Users\~1\AppData\Local\Temp\ccccyc5j.s:3621   .data.g_u32ExtClk:00000000 $d
C:\Users\~1\AppData\Local\Temp\ccccyc5j.s:3625   .data.g_u32ExtClk:00000000 g_u32ExtClk

UNDEFINED SYMBOLS
__aeabi_uidiv
memcpy
sysGetCacheState
sysGetCacheMode
sysDisableCache
sysFlushCache
sysEnableCache
__aeabi_uidivmod
sysprintf
u32UartPort
_tmp_buf
