   1              		.cpu arm926ej-s
   2              		.eabi_attribute 20, 1
   3              		.eabi_attribute 21, 1
   4              		.eabi_attribute 23, 3
   5              		.eabi_attribute 24, 1
   6              		.eabi_attribute 25, 1
   7              		.eabi_attribute 26, 1
   8              		.eabi_attribute 30, 4
   9              		.eabi_attribute 34, 0
  10              		.eabi_attribute 18, 4
  11              		.file	"wb_timer.c"
  12              		.text
  13              	.Ltext0:
  14              		.cfi_sections	.debug_frame
  15              		.section	.text.sysTimerISR,"ax",%progbits
  16              		.align	2
  17              		.global	sysTimerISR
  18              		.syntax unified
  19              		.arm
  20              		.fpu softvfp
  22              	sysTimerISR:
  23              	.LFB9:
  24              		.file 1 "F:/ARM_Project/W55FA92/N9H20/BSP/Driver/Source/SYS/wb_timer.c"
   1:F:/ARM_Project/W55FA92/N9H20/BSP/Driver/Source/SYS\wb_timer.c **** /***************************************************************************
   2:F:/ARM_Project/W55FA92/N9H20/BSP/Driver/Source/SYS\wb_timer.c ****  *                                                                         *
   3:F:/ARM_Project/W55FA92/N9H20/BSP/Driver/Source/SYS\wb_timer.c ****  * Copyright (c) 2008 Nuvoton Technolog. All rights reserved.              *
   4:F:/ARM_Project/W55FA92/N9H20/BSP/Driver/Source/SYS\wb_timer.c ****  *                                                                         *
   5:F:/ARM_Project/W55FA92/N9H20/BSP/Driver/Source/SYS\wb_timer.c ****  ***************************************************************************/
   6:F:/ARM_Project/W55FA92/N9H20/BSP/Driver/Source/SYS\wb_timer.c ****  
   7:F:/ARM_Project/W55FA92/N9H20/BSP/Driver/Source/SYS\wb_timer.c **** /****************************************************************************
   8:F:/ARM_Project/W55FA92/N9H20/BSP/Driver/Source/SYS\wb_timer.c **** * FILENAME
   9:F:/ARM_Project/W55FA92/N9H20/BSP/Driver/Source/SYS\wb_timer.c **** *   wb_timer.c
  10:F:/ARM_Project/W55FA92/N9H20/BSP/Driver/Source/SYS\wb_timer.c **** *
  11:F:/ARM_Project/W55FA92/N9H20/BSP/Driver/Source/SYS\wb_timer.c **** * VERSION
  12:F:/ARM_Project/W55FA92/N9H20/BSP/Driver/Source/SYS\wb_timer.c **** *   1.0
  13:F:/ARM_Project/W55FA92/N9H20/BSP/Driver/Source/SYS\wb_timer.c **** *
  14:F:/ARM_Project/W55FA92/N9H20/BSP/Driver/Source/SYS\wb_timer.c **** * DESCRIPTION
  15:F:/ARM_Project/W55FA92/N9H20/BSP/Driver/Source/SYS\wb_timer.c **** *   The timer related function of Nuvoton ARM9 MCU
  16:F:/ARM_Project/W55FA92/N9H20/BSP/Driver/Source/SYS\wb_timer.c **** *
  17:F:/ARM_Project/W55FA92/N9H20/BSP/Driver/Source/SYS\wb_timer.c **** * HISTORY
  18:F:/ARM_Project/W55FA92/N9H20/BSP/Driver/Source/SYS\wb_timer.c **** *   2008-06-25  Ver 1.0 draft by Min-Nan Cheng
  19:F:/ARM_Project/W55FA92/N9H20/BSP/Driver/Source/SYS\wb_timer.c **** *
  20:F:/ARM_Project/W55FA92/N9H20/BSP/Driver/Source/SYS\wb_timer.c **** * REMARK
  21:F:/ARM_Project/W55FA92/N9H20/BSP/Driver/Source/SYS\wb_timer.c **** *   None
  22:F:/ARM_Project/W55FA92/N9H20/BSP/Driver/Source/SYS\wb_timer.c ****  **************************************************************************/
  23:F:/ARM_Project/W55FA92/N9H20/BSP/Driver/Source/SYS\wb_timer.c **** #include <stdio.h>
  24:F:/ARM_Project/W55FA92/N9H20/BSP/Driver/Source/SYS\wb_timer.c **** #include "wblib.h"
  25:F:/ARM_Project/W55FA92/N9H20/BSP/Driver/Source/SYS\wb_timer.c **** 
  26:F:/ARM_Project/W55FA92/N9H20/BSP/Driver/Source/SYS\wb_timer.c **** /* Global variables */
  27:F:/ARM_Project/W55FA92/N9H20/BSP/Driver/Source/SYS\wb_timer.c **** PVOID  _sys_pvOldTimer0Vect;
  28:F:/ARM_Project/W55FA92/N9H20/BSP/Driver/Source/SYS\wb_timer.c **** UINT32 _sys_uTimer0ClockRate = EXTERNAL_CRYSTAL_CLOCK;
  29:F:/ARM_Project/W55FA92/N9H20/BSP/Driver/Source/SYS\wb_timer.c **** UINT32 volatile _sys_uTimer0Count = 0;
  30:F:/ARM_Project/W55FA92/N9H20/BSP/Driver/Source/SYS\wb_timer.c **** UINT32 volatile _sys_uTime0EventCount = 0;
  31:F:/ARM_Project/W55FA92/N9H20/BSP/Driver/Source/SYS\wb_timer.c **** UINT32 volatile _sys_uTimer0TickPerSecond;
  32:F:/ARM_Project/W55FA92/N9H20/BSP/Driver/Source/SYS\wb_timer.c **** BOOL   _sys_bIsSetTime0Event = FALSE;
  33:F:/ARM_Project/W55FA92/N9H20/BSP/Driver/Source/SYS\wb_timer.c **** BOOL volatile _sys_bIsTimer0Initial = FALSE;
  34:F:/ARM_Project/W55FA92/N9H20/BSP/Driver/Source/SYS\wb_timer.c **** 
  35:F:/ARM_Project/W55FA92/N9H20/BSP/Driver/Source/SYS\wb_timer.c **** PVOID  _sys_pvOldTimer1Vect;
  36:F:/ARM_Project/W55FA92/N9H20/BSP/Driver/Source/SYS\wb_timer.c **** UINT32 _sys_uTimer1ClockRate = EXTERNAL_CRYSTAL_CLOCK;
  37:F:/ARM_Project/W55FA92/N9H20/BSP/Driver/Source/SYS\wb_timer.c **** UINT32 volatile _sys_uTimer1Count = 0;
  38:F:/ARM_Project/W55FA92/N9H20/BSP/Driver/Source/SYS\wb_timer.c **** UINT32 volatile _sys_uTime1EventCount = 0;
  39:F:/ARM_Project/W55FA92/N9H20/BSP/Driver/Source/SYS\wb_timer.c **** UINT32 volatile _sys_uTimer1TickPerSecond;
  40:F:/ARM_Project/W55FA92/N9H20/BSP/Driver/Source/SYS\wb_timer.c **** BOOL _sys_bIsSetTime1Event = FALSE;
  41:F:/ARM_Project/W55FA92/N9H20/BSP/Driver/Source/SYS\wb_timer.c **** BOOL volatile _sys_bIsTimer1Initial = FALSE;
  42:F:/ARM_Project/W55FA92/N9H20/BSP/Driver/Source/SYS\wb_timer.c **** 
  43:F:/ARM_Project/W55FA92/N9H20/BSP/Driver/Source/SYS\wb_timer.c **** PVOID  _sys_pvOldTimer2Vect;
  44:F:/ARM_Project/W55FA92/N9H20/BSP/Driver/Source/SYS\wb_timer.c **** UINT32 _sys_uTimer2ClockRate = EXTERNAL_CRYSTAL_CLOCK;
  45:F:/ARM_Project/W55FA92/N9H20/BSP/Driver/Source/SYS\wb_timer.c **** UINT32 volatile _sys_uTimer2Count = 0;
  46:F:/ARM_Project/W55FA92/N9H20/BSP/Driver/Source/SYS\wb_timer.c **** UINT32 volatile _sys_uTime2EventCount = 0;
  47:F:/ARM_Project/W55FA92/N9H20/BSP/Driver/Source/SYS\wb_timer.c **** UINT32 volatile _sys_uTimer2TickPerSecond;
  48:F:/ARM_Project/W55FA92/N9H20/BSP/Driver/Source/SYS\wb_timer.c **** BOOL _sys_bIsSetTime2Event = FALSE;
  49:F:/ARM_Project/W55FA92/N9H20/BSP/Driver/Source/SYS\wb_timer.c **** BOOL volatile _sys_bIsTimer2Initial = FALSE;
  50:F:/ARM_Project/W55FA92/N9H20/BSP/Driver/Source/SYS\wb_timer.c **** 
  51:F:/ARM_Project/W55FA92/N9H20/BSP/Driver/Source/SYS\wb_timer.c **** PVOID  _sys_pvOldTimer3Vect;
  52:F:/ARM_Project/W55FA92/N9H20/BSP/Driver/Source/SYS\wb_timer.c **** UINT32 _sys_uTimer3ClockRate = EXTERNAL_CRYSTAL_CLOCK;
  53:F:/ARM_Project/W55FA92/N9H20/BSP/Driver/Source/SYS\wb_timer.c **** UINT32 volatile _sys_uTimer3Count = 0;
  54:F:/ARM_Project/W55FA92/N9H20/BSP/Driver/Source/SYS\wb_timer.c **** UINT32 volatile _sys_uTime3EventCount = 0;
  55:F:/ARM_Project/W55FA92/N9H20/BSP/Driver/Source/SYS\wb_timer.c **** UINT32 volatile _sys_uTimer3TickPerSecond;
  56:F:/ARM_Project/W55FA92/N9H20/BSP/Driver/Source/SYS\wb_timer.c **** BOOL _sys_bIsSetTime3Event = FALSE;
  57:F:/ARM_Project/W55FA92/N9H20/BSP/Driver/Source/SYS\wb_timer.c **** BOOL volatile _sys_bIsTimer3Initial = FALSE;
  58:F:/ARM_Project/W55FA92/N9H20/BSP/Driver/Source/SYS\wb_timer.c **** 
  59:F:/ARM_Project/W55FA92/N9H20/BSP/Driver/Source/SYS\wb_timer.c **** #define SECONDS_PER_HOUR		3600
  60:F:/ARM_Project/W55FA92/N9H20/BSP/Driver/Source/SYS\wb_timer.c **** #define SECONDS_PER_DAY		86400
  61:F:/ARM_Project/W55FA92/N9H20/BSP/Driver/Source/SYS\wb_timer.c **** #define SECONDS_365_DAY		31536000
  62:F:/ARM_Project/W55FA92/N9H20/BSP/Driver/Source/SYS\wb_timer.c **** #define SECONDS_366_DAY		31622400
  63:F:/ARM_Project/W55FA92/N9H20/BSP/Driver/Source/SYS\wb_timer.c **** 
  64:F:/ARM_Project/W55FA92/N9H20/BSP/Driver/Source/SYS\wb_timer.c **** #define TimerEventCount		10
  65:F:/ARM_Project/W55FA92/N9H20/BSP/Driver/Source/SYS\wb_timer.c **** 
  66:F:/ARM_Project/W55FA92/N9H20/BSP/Driver/Source/SYS\wb_timer.c **** typedef void (*sys_pvTimeFunPtr)();   /* function pointer */
  67:F:/ARM_Project/W55FA92/N9H20/BSP/Driver/Source/SYS\wb_timer.c **** typedef struct timeEvent_t
  68:F:/ARM_Project/W55FA92/N9H20/BSP/Driver/Source/SYS\wb_timer.c **** {
  69:F:/ARM_Project/W55FA92/N9H20/BSP/Driver/Source/SYS\wb_timer.c **** 	UINT32				active;
  70:F:/ARM_Project/W55FA92/N9H20/BSP/Driver/Source/SYS\wb_timer.c **** 	UINT32				initTick;
  71:F:/ARM_Project/W55FA92/N9H20/BSP/Driver/Source/SYS\wb_timer.c **** 	UINT32				curTick;
  72:F:/ARM_Project/W55FA92/N9H20/BSP/Driver/Source/SYS\wb_timer.c **** 	sys_pvTimeFunPtr	funPtr;
  73:F:/ARM_Project/W55FA92/N9H20/BSP/Driver/Source/SYS\wb_timer.c **** } TimeEvent_T;
  74:F:/ARM_Project/W55FA92/N9H20/BSP/Driver/Source/SYS\wb_timer.c **** TimeEvent_T tTime0Event[TimerEventCount];
  75:F:/ARM_Project/W55FA92/N9H20/BSP/Driver/Source/SYS\wb_timer.c **** TimeEvent_T tTime1Event[TimerEventCount];
  76:F:/ARM_Project/W55FA92/N9H20/BSP/Driver/Source/SYS\wb_timer.c **** TimeEvent_T tTime2Event[TimerEventCount];
  77:F:/ARM_Project/W55FA92/N9H20/BSP/Driver/Source/SYS\wb_timer.c **** TimeEvent_T tTime3Event[TimerEventCount];
  78:F:/ARM_Project/W55FA92/N9H20/BSP/Driver/Source/SYS\wb_timer.c **** 
  79:F:/ARM_Project/W55FA92/N9H20/BSP/Driver/Source/SYS\wb_timer.c **** UINT32	volatile _sys_ReferenceTime_Clock = 0;
  80:F:/ARM_Project/W55FA92/N9H20/BSP/Driver/Source/SYS\wb_timer.c **** UINT32	volatile _sys_ReferenceTime_UTC;
  81:F:/ARM_Project/W55FA92/N9H20/BSP/Driver/Source/SYS\wb_timer.c **** 
  82:F:/ARM_Project/W55FA92/N9H20/BSP/Driver/Source/SYS\wb_timer.c **** static UINT32 month_seconds[] = 
  83:F:/ARM_Project/W55FA92/N9H20/BSP/Driver/Source/SYS\wb_timer.c **** {
  84:F:/ARM_Project/W55FA92/N9H20/BSP/Driver/Source/SYS\wb_timer.c **** 	31 * SECONDS_PER_DAY, 
  85:F:/ARM_Project/W55FA92/N9H20/BSP/Driver/Source/SYS\wb_timer.c **** 	28 * SECONDS_PER_DAY, 
  86:F:/ARM_Project/W55FA92/N9H20/BSP/Driver/Source/SYS\wb_timer.c **** 	31 * SECONDS_PER_DAY, 
  87:F:/ARM_Project/W55FA92/N9H20/BSP/Driver/Source/SYS\wb_timer.c **** 	30 * SECONDS_PER_DAY, 
  88:F:/ARM_Project/W55FA92/N9H20/BSP/Driver/Source/SYS\wb_timer.c **** 	31 * SECONDS_PER_DAY, 
  89:F:/ARM_Project/W55FA92/N9H20/BSP/Driver/Source/SYS\wb_timer.c **** 	30 * SECONDS_PER_DAY, 
  90:F:/ARM_Project/W55FA92/N9H20/BSP/Driver/Source/SYS\wb_timer.c **** 	31 * SECONDS_PER_DAY, 
  91:F:/ARM_Project/W55FA92/N9H20/BSP/Driver/Source/SYS\wb_timer.c **** 	31 * SECONDS_PER_DAY, 
  92:F:/ARM_Project/W55FA92/N9H20/BSP/Driver/Source/SYS\wb_timer.c **** 	30 * SECONDS_PER_DAY, 
  93:F:/ARM_Project/W55FA92/N9H20/BSP/Driver/Source/SYS\wb_timer.c **** 	31 * SECONDS_PER_DAY, 
  94:F:/ARM_Project/W55FA92/N9H20/BSP/Driver/Source/SYS\wb_timer.c **** 	30 * SECONDS_PER_DAY, 
  95:F:/ARM_Project/W55FA92/N9H20/BSP/Driver/Source/SYS\wb_timer.c **** 	31 * SECONDS_PER_DAY
  96:F:/ARM_Project/W55FA92/N9H20/BSP/Driver/Source/SYS\wb_timer.c **** };
  97:F:/ARM_Project/W55FA92/N9H20/BSP/Driver/Source/SYS\wb_timer.c **** 
  98:F:/ARM_Project/W55FA92/N9H20/BSP/Driver/Source/SYS\wb_timer.c **** 
  99:F:/ARM_Project/W55FA92/N9H20/BSP/Driver/Source/SYS\wb_timer.c **** /* Interrupt service routine */
 100:F:/ARM_Project/W55FA92/N9H20/BSP/Driver/Source/SYS\wb_timer.c **** VOID sysTimerISR()
 101:F:/ARM_Project/W55FA92/N9H20/BSP/Driver/Source/SYS\wb_timer.c **** {
  25              		.loc 1 101 0
  26              		.cfi_startproc
  27              		@ args = 0, pretend = 0, frame = 8
  28              		@ frame_needed = 0, uses_anonymous_args = 0
  29 0000 13402DE9 		push	{r0, r1, r4, lr}
  30              		.cfi_def_cfa_offset 16
  31              		.cfi_offset 4, -8
  32              		.cfi_offset 14, -4
 102:F:/ARM_Project/W55FA92/N9H20/BSP/Driver/Source/SYS\wb_timer.c **** 	int volatile i;
 103:F:/ARM_Project/W55FA92/N9H20/BSP/Driver/Source/SYS\wb_timer.c **** 
 104:F:/ARM_Project/W55FA92/N9H20/BSP/Driver/Source/SYS\wb_timer.c **** 	/*----- check Timer 0 -----*/
 105:F:/ARM_Project/W55FA92/N9H20/BSP/Driver/Source/SYS\wb_timer.c **** 	if (inpw(REG_TISR) & 0x00000001)
  33              		.loc 1 105 0
  34 0004 40139FE5 		ldr	r1, .L47
  35 0008 183091E5 		ldr	r3, [r1, #24]
  36 000c 010013E3 		tst	r3, #1
  37 0010 0D00001A 		bne	.L2
  38              	.L6:
 106:F:/ARM_Project/W55FA92/N9H20/BSP/Driver/Source/SYS\wb_timer.c **** 	{
 107:F:/ARM_Project/W55FA92/N9H20/BSP/Driver/Source/SYS\wb_timer.c **** 		_sys_uTimer0Count++;
 108:F:/ARM_Project/W55FA92/N9H20/BSP/Driver/Source/SYS\wb_timer.c **** 		outpw(REG_TISR, 0x01); /* clear TIF0 */
 109:F:/ARM_Project/W55FA92/N9H20/BSP/Driver/Source/SYS\wb_timer.c **** 		if (_sys_uTimer0Count >= 0xfffffff)
 110:F:/ARM_Project/W55FA92/N9H20/BSP/Driver/Source/SYS\wb_timer.c **** 		  	_sys_uTimer0Count = 0;
 111:F:/ARM_Project/W55FA92/N9H20/BSP/Driver/Source/SYS\wb_timer.c **** 
 112:F:/ARM_Project/W55FA92/N9H20/BSP/Driver/Source/SYS\wb_timer.c **** 		if (_sys_bIsSetTime0Event)
 113:F:/ARM_Project/W55FA92/N9H20/BSP/Driver/Source/SYS\wb_timer.c **** 		{
 114:F:/ARM_Project/W55FA92/N9H20/BSP/Driver/Source/SYS\wb_timer.c **** 			for (i=0; i<TimerEventCount; i++)
 115:F:/ARM_Project/W55FA92/N9H20/BSP/Driver/Source/SYS\wb_timer.c **** 			{
 116:F:/ARM_Project/W55FA92/N9H20/BSP/Driver/Source/SYS\wb_timer.c **** 				if (tTime0Event[i].active)
 117:F:/ARM_Project/W55FA92/N9H20/BSP/Driver/Source/SYS\wb_timer.c **** 				{
 118:F:/ARM_Project/W55FA92/N9H20/BSP/Driver/Source/SYS\wb_timer.c **** 					tTime0Event[i].curTick--;
 119:F:/ARM_Project/W55FA92/N9H20/BSP/Driver/Source/SYS\wb_timer.c **** 					if (tTime0Event[i].curTick == 0)
 120:F:/ARM_Project/W55FA92/N9H20/BSP/Driver/Source/SYS\wb_timer.c **** 					{
 121:F:/ARM_Project/W55FA92/N9H20/BSP/Driver/Source/SYS\wb_timer.c **** 						(*tTime0Event[i].funPtr)();
 122:F:/ARM_Project/W55FA92/N9H20/BSP/Driver/Source/SYS\wb_timer.c **** 						tTime0Event[i].curTick = tTime0Event[i].initTick;
 123:F:/ARM_Project/W55FA92/N9H20/BSP/Driver/Source/SYS\wb_timer.c **** 					}
 124:F:/ARM_Project/W55FA92/N9H20/BSP/Driver/Source/SYS\wb_timer.c **** 				}
 125:F:/ARM_Project/W55FA92/N9H20/BSP/Driver/Source/SYS\wb_timer.c **** 			}
 126:F:/ARM_Project/W55FA92/N9H20/BSP/Driver/Source/SYS\wb_timer.c **** 		}
 127:F:/ARM_Project/W55FA92/N9H20/BSP/Driver/Source/SYS\wb_timer.c **** 	}
 128:F:/ARM_Project/W55FA92/N9H20/BSP/Driver/Source/SYS\wb_timer.c **** 	/*----- check Timer 1 -----*/
 129:F:/ARM_Project/W55FA92/N9H20/BSP/Driver/Source/SYS\wb_timer.c **** 	if (inpw(REG_TISR) & 0x00000002)
  39              		.loc 1 129 0
  40 0014 30139FE5 		ldr	r1, .L47
  41 0018 183091E5 		ldr	r3, [r1, #24]
  42 001c 020013E3 		tst	r3, #2
  43 0020 3900001A 		bne	.L3
  44              	.L4:
 130:F:/ARM_Project/W55FA92/N9H20/BSP/Driver/Source/SYS\wb_timer.c **** 	{
 131:F:/ARM_Project/W55FA92/N9H20/BSP/Driver/Source/SYS\wb_timer.c **** 		_sys_uTimer1Count++;
 132:F:/ARM_Project/W55FA92/N9H20/BSP/Driver/Source/SYS\wb_timer.c **** 		outpw(REG_TISR, 0x02); /* clear TIF0 */
 133:F:/ARM_Project/W55FA92/N9H20/BSP/Driver/Source/SYS\wb_timer.c **** 		if (_sys_uTimer1Count >= 0xfffffff)
 134:F:/ARM_Project/W55FA92/N9H20/BSP/Driver/Source/SYS\wb_timer.c **** 		  	_sys_uTimer1Count = 0;
 135:F:/ARM_Project/W55FA92/N9H20/BSP/Driver/Source/SYS\wb_timer.c **** 
 136:F:/ARM_Project/W55FA92/N9H20/BSP/Driver/Source/SYS\wb_timer.c **** 		if (_sys_bIsSetTime1Event)
 137:F:/ARM_Project/W55FA92/N9H20/BSP/Driver/Source/SYS\wb_timer.c **** 		{
 138:F:/ARM_Project/W55FA92/N9H20/BSP/Driver/Source/SYS\wb_timer.c **** 			for (i=0; i<TimerEventCount; i++)
 139:F:/ARM_Project/W55FA92/N9H20/BSP/Driver/Source/SYS\wb_timer.c **** 			{
 140:F:/ARM_Project/W55FA92/N9H20/BSP/Driver/Source/SYS\wb_timer.c **** 				if (tTime1Event[i].active)
 141:F:/ARM_Project/W55FA92/N9H20/BSP/Driver/Source/SYS\wb_timer.c **** 				{
 142:F:/ARM_Project/W55FA92/N9H20/BSP/Driver/Source/SYS\wb_timer.c **** 					tTime1Event[i].curTick--;
 143:F:/ARM_Project/W55FA92/N9H20/BSP/Driver/Source/SYS\wb_timer.c **** 					if (tTime1Event[i].curTick == 0)
 144:F:/ARM_Project/W55FA92/N9H20/BSP/Driver/Source/SYS\wb_timer.c **** 					{
 145:F:/ARM_Project/W55FA92/N9H20/BSP/Driver/Source/SYS\wb_timer.c **** 						(*tTime1Event[i].funPtr)();
 146:F:/ARM_Project/W55FA92/N9H20/BSP/Driver/Source/SYS\wb_timer.c **** 						tTime1Event[i].curTick = tTime1Event[i].initTick;
 147:F:/ARM_Project/W55FA92/N9H20/BSP/Driver/Source/SYS\wb_timer.c **** 					}
 148:F:/ARM_Project/W55FA92/N9H20/BSP/Driver/Source/SYS\wb_timer.c **** 				}
 149:F:/ARM_Project/W55FA92/N9H20/BSP/Driver/Source/SYS\wb_timer.c **** 			}
 150:F:/ARM_Project/W55FA92/N9H20/BSP/Driver/Source/SYS\wb_timer.c **** 		}
 151:F:/ARM_Project/W55FA92/N9H20/BSP/Driver/Source/SYS\wb_timer.c **** 	}
 152:F:/ARM_Project/W55FA92/N9H20/BSP/Driver/Source/SYS\wb_timer.c **** 	/*----- check Timer 2 -----*/
 153:F:/ARM_Project/W55FA92/N9H20/BSP/Driver/Source/SYS\wb_timer.c **** 	if (inpw(REG_TISR2) & 0x00000001)
  45              		.loc 1 153 0
  46 0024 24139FE5 		ldr	r1, .L47+4
  47 0028 183091E5 		ldr	r3, [r1, #24]
  48 002c 010013E3 		tst	r3, #1
  49 0030 6500001A 		bne	.L12
  50              	.L13:
 154:F:/ARM_Project/W55FA92/N9H20/BSP/Driver/Source/SYS\wb_timer.c **** 	{
 155:F:/ARM_Project/W55FA92/N9H20/BSP/Driver/Source/SYS\wb_timer.c **** 		_sys_uTimer2Count++;
 156:F:/ARM_Project/W55FA92/N9H20/BSP/Driver/Source/SYS\wb_timer.c **** 		outpw(REG_TISR2, 0x01); /* clear TIF0 */
 157:F:/ARM_Project/W55FA92/N9H20/BSP/Driver/Source/SYS\wb_timer.c **** 		if (_sys_uTimer2Count >= 0xfffffff)
 158:F:/ARM_Project/W55FA92/N9H20/BSP/Driver/Source/SYS\wb_timer.c **** 		  	_sys_uTimer2Count = 0;
 159:F:/ARM_Project/W55FA92/N9H20/BSP/Driver/Source/SYS\wb_timer.c **** 
 160:F:/ARM_Project/W55FA92/N9H20/BSP/Driver/Source/SYS\wb_timer.c **** 		if (_sys_bIsSetTime2Event)
 161:F:/ARM_Project/W55FA92/N9H20/BSP/Driver/Source/SYS\wb_timer.c **** 		{
 162:F:/ARM_Project/W55FA92/N9H20/BSP/Driver/Source/SYS\wb_timer.c **** 			for (i=0; i<TimerEventCount; i++)
 163:F:/ARM_Project/W55FA92/N9H20/BSP/Driver/Source/SYS\wb_timer.c **** 			{
 164:F:/ARM_Project/W55FA92/N9H20/BSP/Driver/Source/SYS\wb_timer.c **** 				if (tTime2Event[i].active)
 165:F:/ARM_Project/W55FA92/N9H20/BSP/Driver/Source/SYS\wb_timer.c **** 				{
 166:F:/ARM_Project/W55FA92/N9H20/BSP/Driver/Source/SYS\wb_timer.c **** 					tTime2Event[i].curTick--;
 167:F:/ARM_Project/W55FA92/N9H20/BSP/Driver/Source/SYS\wb_timer.c **** 					if (tTime2Event[i].curTick == 0)
 168:F:/ARM_Project/W55FA92/N9H20/BSP/Driver/Source/SYS\wb_timer.c **** 					{
 169:F:/ARM_Project/W55FA92/N9H20/BSP/Driver/Source/SYS\wb_timer.c **** 						(*tTime2Event[i].funPtr)();
 170:F:/ARM_Project/W55FA92/N9H20/BSP/Driver/Source/SYS\wb_timer.c **** 						tTime2Event[i].curTick = tTime2Event[i].initTick;
 171:F:/ARM_Project/W55FA92/N9H20/BSP/Driver/Source/SYS\wb_timer.c **** 					}
 172:F:/ARM_Project/W55FA92/N9H20/BSP/Driver/Source/SYS\wb_timer.c **** 				}
 173:F:/ARM_Project/W55FA92/N9H20/BSP/Driver/Source/SYS\wb_timer.c **** 			}
 174:F:/ARM_Project/W55FA92/N9H20/BSP/Driver/Source/SYS\wb_timer.c **** 		}
 175:F:/ARM_Project/W55FA92/N9H20/BSP/Driver/Source/SYS\wb_timer.c **** 	}
 176:F:/ARM_Project/W55FA92/N9H20/BSP/Driver/Source/SYS\wb_timer.c **** 	/*----- check Timer 3 -----*/
 177:F:/ARM_Project/W55FA92/N9H20/BSP/Driver/Source/SYS\wb_timer.c **** 	if (inpw(REG_TISR2) & 0x00000002)
  51              		.loc 1 177 0
  52 0034 14139FE5 		ldr	r1, .L47+4
  53 0038 183091E5 		ldr	r3, [r1, #24]
  54 003c 020013E3 		tst	r3, #2
  55 0040 9100001A 		bne	.L20
  56              	.L1:
 178:F:/ARM_Project/W55FA92/N9H20/BSP/Driver/Source/SYS\wb_timer.c **** 	{
 179:F:/ARM_Project/W55FA92/N9H20/BSP/Driver/Source/SYS\wb_timer.c **** 		_sys_uTimer3Count++;
 180:F:/ARM_Project/W55FA92/N9H20/BSP/Driver/Source/SYS\wb_timer.c **** 		outpw(REG_TISR2, 0x02); /* clear TIF0 */
 181:F:/ARM_Project/W55FA92/N9H20/BSP/Driver/Source/SYS\wb_timer.c **** 		if (_sys_uTimer3Count >= 0xfffffff)
 182:F:/ARM_Project/W55FA92/N9H20/BSP/Driver/Source/SYS\wb_timer.c **** 		  	_sys_uTimer3Count = 0;
 183:F:/ARM_Project/W55FA92/N9H20/BSP/Driver/Source/SYS\wb_timer.c **** 
 184:F:/ARM_Project/W55FA92/N9H20/BSP/Driver/Source/SYS\wb_timer.c **** 		if (_sys_bIsSetTime3Event)
 185:F:/ARM_Project/W55FA92/N9H20/BSP/Driver/Source/SYS\wb_timer.c **** 		{
 186:F:/ARM_Project/W55FA92/N9H20/BSP/Driver/Source/SYS\wb_timer.c **** 			for (i=0; i<TimerEventCount; i++)
 187:F:/ARM_Project/W55FA92/N9H20/BSP/Driver/Source/SYS\wb_timer.c **** 			{
 188:F:/ARM_Project/W55FA92/N9H20/BSP/Driver/Source/SYS\wb_timer.c **** 				if (tTime3Event[i].active)
 189:F:/ARM_Project/W55FA92/N9H20/BSP/Driver/Source/SYS\wb_timer.c **** 				{
 190:F:/ARM_Project/W55FA92/N9H20/BSP/Driver/Source/SYS\wb_timer.c **** 					tTime3Event[i].curTick--;
 191:F:/ARM_Project/W55FA92/N9H20/BSP/Driver/Source/SYS\wb_timer.c **** 					if (tTime3Event[i].curTick == 0)
 192:F:/ARM_Project/W55FA92/N9H20/BSP/Driver/Source/SYS\wb_timer.c **** 					{
 193:F:/ARM_Project/W55FA92/N9H20/BSP/Driver/Source/SYS\wb_timer.c **** 						(*tTime3Event[i].funPtr)();
 194:F:/ARM_Project/W55FA92/N9H20/BSP/Driver/Source/SYS\wb_timer.c **** 						tTime3Event[i].curTick = tTime3Event[i].initTick;
 195:F:/ARM_Project/W55FA92/N9H20/BSP/Driver/Source/SYS\wb_timer.c **** 					}
 196:F:/ARM_Project/W55FA92/N9H20/BSP/Driver/Source/SYS\wb_timer.c **** 				}
 197:F:/ARM_Project/W55FA92/N9H20/BSP/Driver/Source/SYS\wb_timer.c **** 			}
 198:F:/ARM_Project/W55FA92/N9H20/BSP/Driver/Source/SYS\wb_timer.c **** 		}
 199:F:/ARM_Project/W55FA92/N9H20/BSP/Driver/Source/SYS\wb_timer.c **** 	}
 200:F:/ARM_Project/W55FA92/N9H20/BSP/Driver/Source/SYS\wb_timer.c **** }
  57              		.loc 1 200 0
  58 0044 08D08DE2 		add	sp, sp, #8
  59              		.cfi_remember_state
  60              		.cfi_def_cfa_offset 8
  61              		@ sp needed
  62 0048 1080BDE8 		pop	{r4, pc}
  63              	.L2:
  64              		.cfi_restore_state
 107:F:/ARM_Project/W55FA92/N9H20/BSP/Driver/Source/SYS\wb_timer.c **** 		outpw(REG_TISR, 0x01); /* clear TIF0 */
  65              		.loc 1 107 0
  66 004c 00339FE5 		ldr	r3, .L47+8
  67 0050 002093E5 		ldr	r2, [r3]
  68 0054 012082E2 		add	r2, r2, #1
  69 0058 002083E5 		str	r2, [r3]
 108:F:/ARM_Project/W55FA92/N9H20/BSP/Driver/Source/SYS\wb_timer.c **** 		if (_sys_uTimer0Count >= 0xfffffff)
  70              		.loc 1 108 0
  71 005c 0120A0E3 		mov	r2, #1
  72 0060 182081E5 		str	r2, [r1, #24]
 109:F:/ARM_Project/W55FA92/N9H20/BSP/Driver/Source/SYS\wb_timer.c **** 		  	_sys_uTimer0Count = 0;
  73              		.loc 1 109 0
  74 0064 002093E5 		ldr	r2, [r3]
  75 0068 2F0272E3 		cmn	r2, #-268435454
 110:F:/ARM_Project/W55FA92/N9H20/BSP/Driver/Source/SYS\wb_timer.c **** 
  76              		.loc 1 110 0
  77 006c 0020A083 		movhi	r2, #0
  78 0070 00208385 		strhi	r2, [r3]
 112:F:/ARM_Project/W55FA92/N9H20/BSP/Driver/Source/SYS\wb_timer.c **** 		{
  79              		.loc 1 112 0
  80 0074 DC329FE5 		ldr	r3, .L47+12
  81 0078 D030D3E1 		ldrsb	r3, [r3]
  82 007c 000053E3 		cmp	r3, #0
  83 0080 E3FFFF0A 		beq	.L6
 116:F:/ARM_Project/W55FA92/N9H20/BSP/Driver/Source/SYS\wb_timer.c **** 				{
  84              		.loc 1 116 0
  85 0084 D0429FE5 		ldr	r4, .L47+16
 114:F:/ARM_Project/W55FA92/N9H20/BSP/Driver/Source/SYS\wb_timer.c **** 			{
  86              		.loc 1 114 0
  87 0088 0030A0E3 		mov	r3, #0
  88 008c 04308DE5 		str	r3, [sp, #4]
  89              	.L7:
 114:F:/ARM_Project/W55FA92/N9H20/BSP/Driver/Source/SYS\wb_timer.c **** 			{
  90              		.loc 1 114 0 is_stmt 0 discriminator 1
  91 0090 04309DE5 		ldr	r3, [sp, #4]
  92 0094 090053E3 		cmp	r3, #9
  93 0098 DDFFFFCA 		bgt	.L6
 116:F:/ARM_Project/W55FA92/N9H20/BSP/Driver/Source/SYS\wb_timer.c **** 				{
  94              		.loc 1 116 0 is_stmt 1
  95 009c 04309DE5 		ldr	r3, [sp, #4]
  96 00a0 033294E7 		ldr	r3, [r4, r3, lsl #4]
  97 00a4 000053E3 		cmp	r3, #0
  98 00a8 1300000A 		beq	.L9
 118:F:/ARM_Project/W55FA92/N9H20/BSP/Driver/Source/SYS\wb_timer.c **** 					if (tTime0Event[i].curTick == 0)
  99              		.loc 1 118 0
 100 00ac 04309DE5 		ldr	r3, [sp, #4]
 101 00b0 033284E0 		add	r3, r4, r3, lsl #4
 102 00b4 082093E5 		ldr	r2, [r3, #8]
 103 00b8 012042E2 		sub	r2, r2, #1
 104 00bc 082083E5 		str	r2, [r3, #8]
 119:F:/ARM_Project/W55FA92/N9H20/BSP/Driver/Source/SYS\wb_timer.c **** 					{
 105              		.loc 1 119 0
 106 00c0 04309DE5 		ldr	r3, [sp, #4]
 107 00c4 033284E0 		add	r3, r4, r3, lsl #4
 108 00c8 083093E5 		ldr	r3, [r3, #8]
 109 00cc 000053E3 		cmp	r3, #0
 110 00d0 0900001A 		bne	.L9
 121:F:/ARM_Project/W55FA92/N9H20/BSP/Driver/Source/SYS\wb_timer.c **** 						tTime0Event[i].curTick = tTime0Event[i].initTick;
 111              		.loc 1 121 0
 112 00d4 04309DE5 		ldr	r3, [sp, #4]
 113 00d8 033284E0 		add	r3, r4, r3, lsl #4
 114 00dc 0C3093E5 		ldr	r3, [r3, #12]
 115 00e0 33FF2FE1 		blx	r3
 116              	.LVL0:
 122:F:/ARM_Project/W55FA92/N9H20/BSP/Driver/Source/SYS\wb_timer.c **** 					}
 117              		.loc 1 122 0
 118 00e4 04209DE5 		ldr	r2, [sp, #4]
 119 00e8 04309DE5 		ldr	r3, [sp, #4]
 120 00ec 022284E0 		add	r2, r4, r2, lsl #4
 121 00f0 042092E5 		ldr	r2, [r2, #4]
 122 00f4 033284E0 		add	r3, r4, r3, lsl #4
 123 00f8 082083E5 		str	r2, [r3, #8]
 124              	.L9:
 114:F:/ARM_Project/W55FA92/N9H20/BSP/Driver/Source/SYS\wb_timer.c **** 			{
 125              		.loc 1 114 0 discriminator 2
 126 00fc 04309DE5 		ldr	r3, [sp, #4]
 127 0100 013083E2 		add	r3, r3, #1
 128 0104 04308DE5 		str	r3, [sp, #4]
 129 0108 E0FFFFEA 		b	.L7
 130              	.L3:
 131:F:/ARM_Project/W55FA92/N9H20/BSP/Driver/Source/SYS\wb_timer.c **** 		outpw(REG_TISR, 0x02); /* clear TIF0 */
 131              		.loc 1 131 0
 132 010c 4C329FE5 		ldr	r3, .L47+20
 133 0110 002093E5 		ldr	r2, [r3]
 134 0114 012082E2 		add	r2, r2, #1
 135 0118 002083E5 		str	r2, [r3]
 132:F:/ARM_Project/W55FA92/N9H20/BSP/Driver/Source/SYS\wb_timer.c **** 		if (_sys_uTimer1Count >= 0xfffffff)
 136              		.loc 1 132 0
 137 011c 0220A0E3 		mov	r2, #2
 138 0120 182081E5 		str	r2, [r1, #24]
 133:F:/ARM_Project/W55FA92/N9H20/BSP/Driver/Source/SYS\wb_timer.c **** 		  	_sys_uTimer1Count = 0;
 139              		.loc 1 133 0
 140 0124 002093E5 		ldr	r2, [r3]
 141 0128 2F0272E3 		cmn	r2, #-268435454
 134:F:/ARM_Project/W55FA92/N9H20/BSP/Driver/Source/SYS\wb_timer.c **** 
 142              		.loc 1 134 0
 143 012c 0020A083 		movhi	r2, #0
 144 0130 00208385 		strhi	r2, [r3]
 136:F:/ARM_Project/W55FA92/N9H20/BSP/Driver/Source/SYS\wb_timer.c **** 		{
 145              		.loc 1 136 0
 146 0134 28329FE5 		ldr	r3, .L47+24
 147 0138 D030D3E1 		ldrsb	r3, [r3]
 148 013c 000053E3 		cmp	r3, #0
 149 0140 B7FFFF0A 		beq	.L4
 140:F:/ARM_Project/W55FA92/N9H20/BSP/Driver/Source/SYS\wb_timer.c **** 				{
 150              		.loc 1 140 0
 151 0144 1C429FE5 		ldr	r4, .L47+28
 138:F:/ARM_Project/W55FA92/N9H20/BSP/Driver/Source/SYS\wb_timer.c **** 			{
 152              		.loc 1 138 0
 153 0148 0030A0E3 		mov	r3, #0
 154 014c 04308DE5 		str	r3, [sp, #4]
 155              	.L15:
 138:F:/ARM_Project/W55FA92/N9H20/BSP/Driver/Source/SYS\wb_timer.c **** 			{
 156              		.loc 1 138 0 is_stmt 0 discriminator 1
 157 0150 04309DE5 		ldr	r3, [sp, #4]
 158 0154 090053E3 		cmp	r3, #9
 159 0158 B1FFFFCA 		bgt	.L4
 140:F:/ARM_Project/W55FA92/N9H20/BSP/Driver/Source/SYS\wb_timer.c **** 				{
 160              		.loc 1 140 0 is_stmt 1
 161 015c 04309DE5 		ldr	r3, [sp, #4]
 162 0160 033294E7 		ldr	r3, [r4, r3, lsl #4]
 163 0164 000053E3 		cmp	r3, #0
 164 0168 1300000A 		beq	.L17
 142:F:/ARM_Project/W55FA92/N9H20/BSP/Driver/Source/SYS\wb_timer.c **** 					if (tTime1Event[i].curTick == 0)
 165              		.loc 1 142 0
 166 016c 04309DE5 		ldr	r3, [sp, #4]
 167 0170 033284E0 		add	r3, r4, r3, lsl #4
 168 0174 082093E5 		ldr	r2, [r3, #8]
 169 0178 012042E2 		sub	r2, r2, #1
 170 017c 082083E5 		str	r2, [r3, #8]
 143:F:/ARM_Project/W55FA92/N9H20/BSP/Driver/Source/SYS\wb_timer.c **** 					{
 171              		.loc 1 143 0
 172 0180 04309DE5 		ldr	r3, [sp, #4]
 173 0184 033284E0 		add	r3, r4, r3, lsl #4
 174 0188 083093E5 		ldr	r3, [r3, #8]
 175 018c 000053E3 		cmp	r3, #0
 176 0190 0900001A 		bne	.L17
 145:F:/ARM_Project/W55FA92/N9H20/BSP/Driver/Source/SYS\wb_timer.c **** 						tTime1Event[i].curTick = tTime1Event[i].initTick;
 177              		.loc 1 145 0
 178 0194 04309DE5 		ldr	r3, [sp, #4]
 179 0198 033284E0 		add	r3, r4, r3, lsl #4
 180 019c 0C3093E5 		ldr	r3, [r3, #12]
 181 01a0 33FF2FE1 		blx	r3
 182              	.LVL1:
 146:F:/ARM_Project/W55FA92/N9H20/BSP/Driver/Source/SYS\wb_timer.c **** 					}
 183              		.loc 1 146 0
 184 01a4 04209DE5 		ldr	r2, [sp, #4]
 185 01a8 04309DE5 		ldr	r3, [sp, #4]
 186 01ac 022284E0 		add	r2, r4, r2, lsl #4
 187 01b0 042092E5 		ldr	r2, [r2, #4]
 188 01b4 033284E0 		add	r3, r4, r3, lsl #4
 189 01b8 082083E5 		str	r2, [r3, #8]
 190              	.L17:
 138:F:/ARM_Project/W55FA92/N9H20/BSP/Driver/Source/SYS\wb_timer.c **** 			{
 191              		.loc 1 138 0 discriminator 2
 192 01bc 04309DE5 		ldr	r3, [sp, #4]
 193 01c0 013083E2 		add	r3, r3, #1
 194 01c4 04308DE5 		str	r3, [sp, #4]
 195 01c8 E0FFFFEA 		b	.L15
 196              	.L12:
 155:F:/ARM_Project/W55FA92/N9H20/BSP/Driver/Source/SYS\wb_timer.c **** 		outpw(REG_TISR2, 0x01); /* clear TIF0 */
 197              		.loc 1 155 0
 198 01cc 98319FE5 		ldr	r3, .L47+32
 199 01d0 002093E5 		ldr	r2, [r3]
 200 01d4 012082E2 		add	r2, r2, #1
 201 01d8 002083E5 		str	r2, [r3]
 156:F:/ARM_Project/W55FA92/N9H20/BSP/Driver/Source/SYS\wb_timer.c **** 		if (_sys_uTimer2Count >= 0xfffffff)
 202              		.loc 1 156 0
 203 01dc 0120A0E3 		mov	r2, #1
 204 01e0 182081E5 		str	r2, [r1, #24]
 157:F:/ARM_Project/W55FA92/N9H20/BSP/Driver/Source/SYS\wb_timer.c **** 		  	_sys_uTimer2Count = 0;
 205              		.loc 1 157 0
 206 01e4 002093E5 		ldr	r2, [r3]
 207 01e8 2F0272E3 		cmn	r2, #-268435454
 158:F:/ARM_Project/W55FA92/N9H20/BSP/Driver/Source/SYS\wb_timer.c **** 
 208              		.loc 1 158 0
 209 01ec 0020A083 		movhi	r2, #0
 210 01f0 00208385 		strhi	r2, [r3]
 160:F:/ARM_Project/W55FA92/N9H20/BSP/Driver/Source/SYS\wb_timer.c **** 		{
 211              		.loc 1 160 0
 212 01f4 74319FE5 		ldr	r3, .L47+36
 213 01f8 D030D3E1 		ldrsb	r3, [r3]
 214 01fc 000053E3 		cmp	r3, #0
 215 0200 8BFFFF0A 		beq	.L13
 164:F:/ARM_Project/W55FA92/N9H20/BSP/Driver/Source/SYS\wb_timer.c **** 				{
 216              		.loc 1 164 0
 217 0204 68419FE5 		ldr	r4, .L47+40
 162:F:/ARM_Project/W55FA92/N9H20/BSP/Driver/Source/SYS\wb_timer.c **** 			{
 218              		.loc 1 162 0
 219 0208 0030A0E3 		mov	r3, #0
 220 020c 04308DE5 		str	r3, [sp, #4]
 221              	.L23:
 162:F:/ARM_Project/W55FA92/N9H20/BSP/Driver/Source/SYS\wb_timer.c **** 			{
 222              		.loc 1 162 0 is_stmt 0 discriminator 1
 223 0210 04309DE5 		ldr	r3, [sp, #4]
 224 0214 090053E3 		cmp	r3, #9
 225 0218 85FFFFCA 		bgt	.L13
 164:F:/ARM_Project/W55FA92/N9H20/BSP/Driver/Source/SYS\wb_timer.c **** 				{
 226              		.loc 1 164 0 is_stmt 1
 227 021c 04309DE5 		ldr	r3, [sp, #4]
 228 0220 033294E7 		ldr	r3, [r4, r3, lsl #4]
 229 0224 000053E3 		cmp	r3, #0
 230 0228 1300000A 		beq	.L25
 166:F:/ARM_Project/W55FA92/N9H20/BSP/Driver/Source/SYS\wb_timer.c **** 					if (tTime2Event[i].curTick == 0)
 231              		.loc 1 166 0
 232 022c 04309DE5 		ldr	r3, [sp, #4]
 233 0230 033284E0 		add	r3, r4, r3, lsl #4
 234 0234 082093E5 		ldr	r2, [r3, #8]
 235 0238 012042E2 		sub	r2, r2, #1
 236 023c 082083E5 		str	r2, [r3, #8]
 167:F:/ARM_Project/W55FA92/N9H20/BSP/Driver/Source/SYS\wb_timer.c **** 					{
 237              		.loc 1 167 0
 238 0240 04309DE5 		ldr	r3, [sp, #4]
 239 0244 033284E0 		add	r3, r4, r3, lsl #4
 240 0248 083093E5 		ldr	r3, [r3, #8]
 241 024c 000053E3 		cmp	r3, #0
 242 0250 0900001A 		bne	.L25
 169:F:/ARM_Project/W55FA92/N9H20/BSP/Driver/Source/SYS\wb_timer.c **** 						tTime2Event[i].curTick = tTime2Event[i].initTick;
 243              		.loc 1 169 0
 244 0254 04309DE5 		ldr	r3, [sp, #4]
 245 0258 033284E0 		add	r3, r4, r3, lsl #4
 246 025c 0C3093E5 		ldr	r3, [r3, #12]
 247 0260 33FF2FE1 		blx	r3
 248              	.LVL2:
 170:F:/ARM_Project/W55FA92/N9H20/BSP/Driver/Source/SYS\wb_timer.c **** 					}
 249              		.loc 1 170 0
 250 0264 04209DE5 		ldr	r2, [sp, #4]
 251 0268 04309DE5 		ldr	r3, [sp, #4]
 252 026c 022284E0 		add	r2, r4, r2, lsl #4
 253 0270 042092E5 		ldr	r2, [r2, #4]
 254 0274 033284E0 		add	r3, r4, r3, lsl #4
 255 0278 082083E5 		str	r2, [r3, #8]
 256              	.L25:
 162:F:/ARM_Project/W55FA92/N9H20/BSP/Driver/Source/SYS\wb_timer.c **** 			{
 257              		.loc 1 162 0 discriminator 2
 258 027c 04309DE5 		ldr	r3, [sp, #4]
 259 0280 013083E2 		add	r3, r3, #1
 260 0284 04308DE5 		str	r3, [sp, #4]
 261 0288 E0FFFFEA 		b	.L23
 262              	.L20:
 179:F:/ARM_Project/W55FA92/N9H20/BSP/Driver/Source/SYS\wb_timer.c **** 		outpw(REG_TISR2, 0x02); /* clear TIF0 */
 263              		.loc 1 179 0
 264 028c E4309FE5 		ldr	r3, .L47+44
 265 0290 002093E5 		ldr	r2, [r3]
 266 0294 012082E2 		add	r2, r2, #1
 267 0298 002083E5 		str	r2, [r3]
 180:F:/ARM_Project/W55FA92/N9H20/BSP/Driver/Source/SYS\wb_timer.c **** 		if (_sys_uTimer3Count >= 0xfffffff)
 268              		.loc 1 180 0
 269 029c 0220A0E3 		mov	r2, #2
 270 02a0 182081E5 		str	r2, [r1, #24]
 181:F:/ARM_Project/W55FA92/N9H20/BSP/Driver/Source/SYS\wb_timer.c **** 		  	_sys_uTimer3Count = 0;
 271              		.loc 1 181 0
 272 02a4 002093E5 		ldr	r2, [r3]
 273 02a8 2F0272E3 		cmn	r2, #-268435454
 182:F:/ARM_Project/W55FA92/N9H20/BSP/Driver/Source/SYS\wb_timer.c **** 
 274              		.loc 1 182 0
 275 02ac 0020A083 		movhi	r2, #0
 276 02b0 00208385 		strhi	r2, [r3]
 184:F:/ARM_Project/W55FA92/N9H20/BSP/Driver/Source/SYS\wb_timer.c **** 		{
 277              		.loc 1 184 0
 278 02b4 C0309FE5 		ldr	r3, .L47+48
 279 02b8 D030D3E1 		ldrsb	r3, [r3]
 280 02bc 000053E3 		cmp	r3, #0
 281 02c0 5FFFFF0A 		beq	.L1
 188:F:/ARM_Project/W55FA92/N9H20/BSP/Driver/Source/SYS\wb_timer.c **** 				{
 282              		.loc 1 188 0
 283 02c4 B4409FE5 		ldr	r4, .L47+52
 186:F:/ARM_Project/W55FA92/N9H20/BSP/Driver/Source/SYS\wb_timer.c **** 			{
 284              		.loc 1 186 0
 285 02c8 0030A0E3 		mov	r3, #0
 286 02cc 04308DE5 		str	r3, [sp, #4]
 287              	.L29:
 186:F:/ARM_Project/W55FA92/N9H20/BSP/Driver/Source/SYS\wb_timer.c **** 			{
 288              		.loc 1 186 0 is_stmt 0 discriminator 1
 289 02d0 04309DE5 		ldr	r3, [sp, #4]
 290 02d4 090053E3 		cmp	r3, #9
 291 02d8 59FFFFCA 		bgt	.L1
 188:F:/ARM_Project/W55FA92/N9H20/BSP/Driver/Source/SYS\wb_timer.c **** 				{
 292              		.loc 1 188 0 is_stmt 1
 293 02dc 04309DE5 		ldr	r3, [sp, #4]
 294 02e0 033294E7 		ldr	r3, [r4, r3, lsl #4]
 295 02e4 000053E3 		cmp	r3, #0
 296 02e8 1300000A 		beq	.L31
 190:F:/ARM_Project/W55FA92/N9H20/BSP/Driver/Source/SYS\wb_timer.c **** 					if (tTime3Event[i].curTick == 0)
 297              		.loc 1 190 0
 298 02ec 04309DE5 		ldr	r3, [sp, #4]
 299 02f0 033284E0 		add	r3, r4, r3, lsl #4
 300 02f4 082093E5 		ldr	r2, [r3, #8]
 301 02f8 012042E2 		sub	r2, r2, #1
 302 02fc 082083E5 		str	r2, [r3, #8]
 191:F:/ARM_Project/W55FA92/N9H20/BSP/Driver/Source/SYS\wb_timer.c **** 					{
 303              		.loc 1 191 0
 304 0300 04309DE5 		ldr	r3, [sp, #4]
 305 0304 033284E0 		add	r3, r4, r3, lsl #4
 306 0308 083093E5 		ldr	r3, [r3, #8]
 307 030c 000053E3 		cmp	r3, #0
 308 0310 0900001A 		bne	.L31
 193:F:/ARM_Project/W55FA92/N9H20/BSP/Driver/Source/SYS\wb_timer.c **** 						tTime3Event[i].curTick = tTime3Event[i].initTick;
 309              		.loc 1 193 0
 310 0314 04309DE5 		ldr	r3, [sp, #4]
 311 0318 033284E0 		add	r3, r4, r3, lsl #4
 312 031c 0C3093E5 		ldr	r3, [r3, #12]
 313 0320 33FF2FE1 		blx	r3
 314              	.LVL3:
 194:F:/ARM_Project/W55FA92/N9H20/BSP/Driver/Source/SYS\wb_timer.c **** 					}
 315              		.loc 1 194 0
 316 0324 04209DE5 		ldr	r2, [sp, #4]
 317 0328 04309DE5 		ldr	r3, [sp, #4]
 318 032c 022284E0 		add	r2, r4, r2, lsl #4
 319 0330 042092E5 		ldr	r2, [r2, #4]
 320 0334 033284E0 		add	r3, r4, r3, lsl #4
 321 0338 082083E5 		str	r2, [r3, #8]
 322              	.L31:
 186:F:/ARM_Project/W55FA92/N9H20/BSP/Driver/Source/SYS\wb_timer.c **** 			{
 323              		.loc 1 186 0 discriminator 2
 324 033c 04309DE5 		ldr	r3, [sp, #4]
 325 0340 013083E2 		add	r3, r3, #1
 326 0344 04308DE5 		str	r3, [sp, #4]
 327 0348 E0FFFFEA 		b	.L29
 328              	.L48:
 329              		.align	2
 330              	.L47:
 331 034c 002000B8 		.word	-1207951360
 332 0350 006000B8 		.word	-1207934976
 333 0354 00000000 		.word	.LANCHOR0
 334 0358 00000000 		.word	.LANCHOR1
 335 035c 00000000 		.word	tTime0Event
 336 0360 00000000 		.word	.LANCHOR2
 337 0364 00000000 		.word	.LANCHOR3
 338 0368 00000000 		.word	tTime1Event
 339 036c 00000000 		.word	.LANCHOR4
 340 0370 00000000 		.word	.LANCHOR5
 341 0374 00000000 		.word	tTime2Event
 342 0378 00000000 		.word	.LANCHOR6
 343 037c 00000000 		.word	.LANCHOR7
 344 0380 00000000 		.word	tTime3Event
 345              		.cfi_endproc
 346              	.LFE9:
 348              		.section	.text.sysGetTicks,"ax",%progbits
 349              		.align	2
 350              		.global	sysGetTicks
 351              		.syntax unified
 352              		.arm
 353              		.fpu softvfp
 355              	sysGetTicks:
 356              	.LFB10:
 201:F:/ARM_Project/W55FA92/N9H20/BSP/Driver/Source/SYS\wb_timer.c **** 
 202:F:/ARM_Project/W55FA92/N9H20/BSP/Driver/Source/SYS\wb_timer.c **** 
 203:F:/ARM_Project/W55FA92/N9H20/BSP/Driver/Source/SYS\wb_timer.c **** 
 204:F:/ARM_Project/W55FA92/N9H20/BSP/Driver/Source/SYS\wb_timer.c **** /* Timer library functions */
 205:F:/ARM_Project/W55FA92/N9H20/BSP/Driver/Source/SYS\wb_timer.c **** UINT32 sysGetTicks(INT32 nTimeNo)
 206:F:/ARM_Project/W55FA92/N9H20/BSP/Driver/Source/SYS\wb_timer.c **** {
 357              		.loc 1 206 0
 358              		.cfi_startproc
 359              		@ args = 0, pretend = 0, frame = 0
 360              		@ frame_needed = 0, uses_anonymous_args = 0
 361              		@ link register save eliminated.
 362              	.LVL4:
 207:F:/ARM_Project/W55FA92/N9H20/BSP/Driver/Source/SYS\wb_timer.c **** 	switch (nTimeNo)
 363              		.loc 1 207 0
 364 0000 030050E3 		cmp	r0, #3
 365 0004 00F19F97 		ldrls	pc, [pc, r0, asl #2]
 366 0008 0C0000EA 		b	.L56
 367              	.L52:
 368 000c 1C000000 		.word	.L51
 369 0010 28000000 		.word	.L53
 370 0014 30000000 		.word	.L54
 371 0018 38000000 		.word	.L55
 372              	.L51:
 208:F:/ARM_Project/W55FA92/N9H20/BSP/Driver/Source/SYS\wb_timer.c **** 	{
 209:F:/ARM_Project/W55FA92/N9H20/BSP/Driver/Source/SYS\wb_timer.c **** 		case TIMER0:
 210:F:/ARM_Project/W55FA92/N9H20/BSP/Driver/Source/SYS\wb_timer.c **** 			return _sys_uTimer0Count;
 373              		.loc 1 210 0
 374 001c 24309FE5 		ldr	r3, .L58
 375              	.L57:
 211:F:/ARM_Project/W55FA92/N9H20/BSP/Driver/Source/SYS\wb_timer.c **** 		case TIMER1:
 212:F:/ARM_Project/W55FA92/N9H20/BSP/Driver/Source/SYS\wb_timer.c **** 			return _sys_uTimer1Count;
 376              		.loc 1 212 0
 377 0020 000093E5 		ldr	r0, [r3]
 378              	.LVL5:
 379 0024 1EFF2FE1 		bx	lr
 380              	.LVL6:
 381              	.L53:
 382 0028 1C309FE5 		ldr	r3, .L58+4
 383 002c FBFFFFEA 		b	.L57
 384              	.L54:
 213:F:/ARM_Project/W55FA92/N9H20/BSP/Driver/Source/SYS\wb_timer.c **** 		case TIMER2:
 214:F:/ARM_Project/W55FA92/N9H20/BSP/Driver/Source/SYS\wb_timer.c **** 			return _sys_uTimer2Count;
 385              		.loc 1 214 0
 386 0030 18309FE5 		ldr	r3, .L58+8
 387 0034 F9FFFFEA 		b	.L57
 388              	.L55:
 215:F:/ARM_Project/W55FA92/N9H20/BSP/Driver/Source/SYS\wb_timer.c **** 		case TIMER3:
 216:F:/ARM_Project/W55FA92/N9H20/BSP/Driver/Source/SYS\wb_timer.c **** 			return _sys_uTimer3Count;	
 389              		.loc 1 216 0
 390 0038 14309FE5 		ldr	r3, .L58+12
 391 003c F7FFFFEA 		b	.L57
 392              	.L56:
 217:F:/ARM_Project/W55FA92/N9H20/BSP/Driver/Source/SYS\wb_timer.c **** 		default:
 218:F:/ARM_Project/W55FA92/N9H20/BSP/Driver/Source/SYS\wb_timer.c **** 		   	;
 219:F:/ARM_Project/W55FA92/N9H20/BSP/Driver/Source/SYS\wb_timer.c **** 	}
 220:F:/ARM_Project/W55FA92/N9H20/BSP/Driver/Source/SYS\wb_timer.c ****   	return Successful;
 393              		.loc 1 220 0
 394 0040 0000A0E3 		mov	r0, #0
 395              	.LVL7:
 221:F:/ARM_Project/W55FA92/N9H20/BSP/Driver/Source/SYS\wb_timer.c **** }
 396              		.loc 1 221 0
 397 0044 1EFF2FE1 		bx	lr
 398              	.L59:
 399              		.align	2
 400              	.L58:
 401 0048 00000000 		.word	.LANCHOR0
 402 004c 00000000 		.word	.LANCHOR2
 403 0050 00000000 		.word	.LANCHOR4
 404 0054 00000000 		.word	.LANCHOR6
 405              		.cfi_endproc
 406              	.LFE10:
 408              		.section	.text.sysResetTicks,"ax",%progbits
 409              		.align	2
 410              		.global	sysResetTicks
 411              		.syntax unified
 412              		.arm
 413              		.fpu softvfp
 415              	sysResetTicks:
 416              	.LFB11:
 222:F:/ARM_Project/W55FA92/N9H20/BSP/Driver/Source/SYS\wb_timer.c **** 
 223:F:/ARM_Project/W55FA92/N9H20/BSP/Driver/Source/SYS\wb_timer.c **** INT32 sysResetTicks(INT32 nTimeNo)
 224:F:/ARM_Project/W55FA92/N9H20/BSP/Driver/Source/SYS\wb_timer.c **** {
 417              		.loc 1 224 0
 418              		.cfi_startproc
 419              		@ args = 0, pretend = 0, frame = 0
 420              		@ frame_needed = 0, uses_anonymous_args = 0
 421              		@ link register save eliminated.
 422              	.LVL8:
 225:F:/ARM_Project/W55FA92/N9H20/BSP/Driver/Source/SYS\wb_timer.c **** 	switch (nTimeNo)
 423              		.loc 1 225 0
 424 0000 030050E3 		cmp	r0, #3
 425 0004 00F19F97 		ldrls	pc, [pc, r0, asl #2]
 426 0008 060000EA 		b	.L61
 427              	.L63:
 428 000c 1C000000 		.word	.L62
 429 0010 30000000 		.word	.L64
 430 0014 38000000 		.word	.L65
 431 0018 40000000 		.word	.L66
 432              	.L62:
 226:F:/ARM_Project/W55FA92/N9H20/BSP/Driver/Source/SYS\wb_timer.c **** 	{
 227:F:/ARM_Project/W55FA92/N9H20/BSP/Driver/Source/SYS\wb_timer.c **** 		case TIMER0:
 228:F:/ARM_Project/W55FA92/N9H20/BSP/Driver/Source/SYS\wb_timer.c **** 			_sys_uTimer0Count = 0;
 433              		.loc 1 228 0
 434 001c 24309FE5 		ldr	r3, .L68
 435              	.L67:
 229:F:/ARM_Project/W55FA92/N9H20/BSP/Driver/Source/SYS\wb_timer.c **** 			break;
 230:F:/ARM_Project/W55FA92/N9H20/BSP/Driver/Source/SYS\wb_timer.c **** 		case TIMER1:
 231:F:/ARM_Project/W55FA92/N9H20/BSP/Driver/Source/SYS\wb_timer.c **** 			_sys_uTimer1Count = 0;
 232:F:/ARM_Project/W55FA92/N9H20/BSP/Driver/Source/SYS\wb_timer.c **** 			break;
 233:F:/ARM_Project/W55FA92/N9H20/BSP/Driver/Source/SYS\wb_timer.c **** 		case TIMER2:
 234:F:/ARM_Project/W55FA92/N9H20/BSP/Driver/Source/SYS\wb_timer.c **** 			_sys_uTimer2Count = 0;
 235:F:/ARM_Project/W55FA92/N9H20/BSP/Driver/Source/SYS\wb_timer.c **** 			break;
 236:F:/ARM_Project/W55FA92/N9H20/BSP/Driver/Source/SYS\wb_timer.c **** 		case TIMER3:
 237:F:/ARM_Project/W55FA92/N9H20/BSP/Driver/Source/SYS\wb_timer.c **** 			_sys_uTimer3Count = 0;
 436              		.loc 1 237 0
 437 0020 0020A0E3 		mov	r2, #0
 438 0024 002083E5 		str	r2, [r3]
 439              	.L61:
 238:F:/ARM_Project/W55FA92/N9H20/BSP/Driver/Source/SYS\wb_timer.c **** 			break;	
 239:F:/ARM_Project/W55FA92/N9H20/BSP/Driver/Source/SYS\wb_timer.c **** 
 240:F:/ARM_Project/W55FA92/N9H20/BSP/Driver/Source/SYS\wb_timer.c **** 		default:
 241:F:/ARM_Project/W55FA92/N9H20/BSP/Driver/Source/SYS\wb_timer.c **** 		   	;
 242:F:/ARM_Project/W55FA92/N9H20/BSP/Driver/Source/SYS\wb_timer.c **** 	}
 243:F:/ARM_Project/W55FA92/N9H20/BSP/Driver/Source/SYS\wb_timer.c **** 	return Successful;
 244:F:/ARM_Project/W55FA92/N9H20/BSP/Driver/Source/SYS\wb_timer.c **** }
 440              		.loc 1 244 0
 441 0028 0000A0E3 		mov	r0, #0
 442              	.LVL9:
 443 002c 1EFF2FE1 		bx	lr
 444              	.LVL10:
 445              	.L64:
 231:F:/ARM_Project/W55FA92/N9H20/BSP/Driver/Source/SYS\wb_timer.c **** 			break;
 446              		.loc 1 231 0
 447 0030 14309FE5 		ldr	r3, .L68+4
 448 0034 F9FFFFEA 		b	.L67
 449              	.L65:
 234:F:/ARM_Project/W55FA92/N9H20/BSP/Driver/Source/SYS\wb_timer.c **** 			break;
 450              		.loc 1 234 0
 451 0038 10309FE5 		ldr	r3, .L68+8
 452 003c F7FFFFEA 		b	.L67
 453              	.L66:
 237:F:/ARM_Project/W55FA92/N9H20/BSP/Driver/Source/SYS\wb_timer.c **** 			break;	
 454              		.loc 1 237 0
 455 0040 0C309FE5 		ldr	r3, .L68+12
 456 0044 F5FFFFEA 		b	.L67
 457              	.L69:
 458              		.align	2
 459              	.L68:
 460 0048 00000000 		.word	.LANCHOR0
 461 004c 00000000 		.word	.LANCHOR2
 462 0050 00000000 		.word	.LANCHOR4
 463 0054 00000000 		.word	.LANCHOR6
 464              		.cfi_endproc
 465              	.LFE11:
 467              		.section	.text.sysUpdateTickCount,"ax",%progbits
 468              		.align	2
 469              		.global	sysUpdateTickCount
 470              		.syntax unified
 471              		.arm
 472              		.fpu softvfp
 474              	sysUpdateTickCount:
 475              	.LFB12:
 245:F:/ARM_Project/W55FA92/N9H20/BSP/Driver/Source/SYS\wb_timer.c **** 
 246:F:/ARM_Project/W55FA92/N9H20/BSP/Driver/Source/SYS\wb_timer.c **** INT32 sysUpdateTickCount(INT32 nTimeNo, UINT32 uCount)
 247:F:/ARM_Project/W55FA92/N9H20/BSP/Driver/Source/SYS\wb_timer.c **** {
 476              		.loc 1 247 0
 477              		.cfi_startproc
 478              		@ args = 0, pretend = 0, frame = 0
 479              		@ frame_needed = 0, uses_anonymous_args = 0
 480              		@ link register save eliminated.
 481              	.LVL11:
 248:F:/ARM_Project/W55FA92/N9H20/BSP/Driver/Source/SYS\wb_timer.c **** 	switch (nTimeNo)
 482              		.loc 1 248 0
 483 0000 030050E3 		cmp	r0, #3
 484 0004 00F19F97 		ldrls	pc, [pc, r0, asl #2]
 485 0008 050000EA 		b	.L71
 486              	.L73:
 487 000c 1C000000 		.word	.L72
 488 0010 2C000000 		.word	.L74
 489 0014 34000000 		.word	.L75
 490 0018 3C000000 		.word	.L76
 491              	.L72:
 249:F:/ARM_Project/W55FA92/N9H20/BSP/Driver/Source/SYS\wb_timer.c **** 	{
 250:F:/ARM_Project/W55FA92/N9H20/BSP/Driver/Source/SYS\wb_timer.c **** 		case TIMER0:
 251:F:/ARM_Project/W55FA92/N9H20/BSP/Driver/Source/SYS\wb_timer.c **** 			_sys_uTimer0Count = uCount;
 492              		.loc 1 251 0
 493 001c 20309FE5 		ldr	r3, .L78
 494              	.L77:
 252:F:/ARM_Project/W55FA92/N9H20/BSP/Driver/Source/SYS\wb_timer.c **** 			break;
 253:F:/ARM_Project/W55FA92/N9H20/BSP/Driver/Source/SYS\wb_timer.c **** 		case TIMER1:
 254:F:/ARM_Project/W55FA92/N9H20/BSP/Driver/Source/SYS\wb_timer.c **** 			_sys_uTimer1Count = uCount;
 255:F:/ARM_Project/W55FA92/N9H20/BSP/Driver/Source/SYS\wb_timer.c **** 			break;
 256:F:/ARM_Project/W55FA92/N9H20/BSP/Driver/Source/SYS\wb_timer.c **** 		case TIMER2:
 257:F:/ARM_Project/W55FA92/N9H20/BSP/Driver/Source/SYS\wb_timer.c **** 			_sys_uTimer2Count = uCount;
 258:F:/ARM_Project/W55FA92/N9H20/BSP/Driver/Source/SYS\wb_timer.c **** 			break;
 259:F:/ARM_Project/W55FA92/N9H20/BSP/Driver/Source/SYS\wb_timer.c **** 		case TIMER3:
 260:F:/ARM_Project/W55FA92/N9H20/BSP/Driver/Source/SYS\wb_timer.c **** 			_sys_uTimer3Count = uCount;
 495              		.loc 1 260 0
 496 0020 001083E5 		str	r1, [r3]
 497              	.L71:
 261:F:/ARM_Project/W55FA92/N9H20/BSP/Driver/Source/SYS\wb_timer.c **** 			break;	
 262:F:/ARM_Project/W55FA92/N9H20/BSP/Driver/Source/SYS\wb_timer.c **** 		default:
 263:F:/ARM_Project/W55FA92/N9H20/BSP/Driver/Source/SYS\wb_timer.c **** 		   	;
 264:F:/ARM_Project/W55FA92/N9H20/BSP/Driver/Source/SYS\wb_timer.c **** 	}
 265:F:/ARM_Project/W55FA92/N9H20/BSP/Driver/Source/SYS\wb_timer.c **** 	return Successful;
 266:F:/ARM_Project/W55FA92/N9H20/BSP/Driver/Source/SYS\wb_timer.c **** }
 498              		.loc 1 266 0
 499 0024 0000A0E3 		mov	r0, #0
 500              	.LVL12:
 501 0028 1EFF2FE1 		bx	lr
 502              	.LVL13:
 503              	.L74:
 254:F:/ARM_Project/W55FA92/N9H20/BSP/Driver/Source/SYS\wb_timer.c **** 			break;
 504              		.loc 1 254 0
 505 002c 14309FE5 		ldr	r3, .L78+4
 506 0030 FAFFFFEA 		b	.L77
 507              	.L75:
 257:F:/ARM_Project/W55FA92/N9H20/BSP/Driver/Source/SYS\wb_timer.c **** 			break;
 508              		.loc 1 257 0
 509 0034 10309FE5 		ldr	r3, .L78+8
 510 0038 F8FFFFEA 		b	.L77
 511              	.L76:
 260:F:/ARM_Project/W55FA92/N9H20/BSP/Driver/Source/SYS\wb_timer.c **** 			break;	
 512              		.loc 1 260 0
 513 003c 0C309FE5 		ldr	r3, .L78+12
 514 0040 F6FFFFEA 		b	.L77
 515              	.L79:
 516              		.align	2
 517              	.L78:
 518 0044 00000000 		.word	.LANCHOR0
 519 0048 00000000 		.word	.LANCHOR2
 520 004c 00000000 		.word	.LANCHOR4
 521 0050 00000000 		.word	.LANCHOR6
 522              		.cfi_endproc
 523              	.LFE12:
 525              		.section	.text.sysSetTimerReferenceClock,"ax",%progbits
 526              		.align	2
 527              		.global	sysSetTimerReferenceClock
 528              		.syntax unified
 529              		.arm
 530              		.fpu softvfp
 532              	sysSetTimerReferenceClock:
 533              	.LFB13:
 267:F:/ARM_Project/W55FA92/N9H20/BSP/Driver/Source/SYS\wb_timer.c **** 
 268:F:/ARM_Project/W55FA92/N9H20/BSP/Driver/Source/SYS\wb_timer.c **** INT32 sysSetTimerReferenceClock(INT32 nTimeNo, UINT32 uClockRate)
 269:F:/ARM_Project/W55FA92/N9H20/BSP/Driver/Source/SYS\wb_timer.c **** {
 534              		.loc 1 269 0
 535              		.cfi_startproc
 536              		@ args = 0, pretend = 0, frame = 0
 537              		@ frame_needed = 0, uses_anonymous_args = 0
 538              		@ link register save eliminated.
 539              	.LVL14:
 270:F:/ARM_Project/W55FA92/N9H20/BSP/Driver/Source/SYS\wb_timer.c **** 	switch (nTimeNo)
 540              		.loc 1 270 0
 541 0000 030050E3 		cmp	r0, #3
 542 0004 00F19F97 		ldrls	pc, [pc, r0, asl #2]
 543 0008 050000EA 		b	.L81
 544              	.L83:
 545 000c 1C000000 		.word	.L82
 546 0010 2C000000 		.word	.L84
 547 0014 34000000 		.word	.L85
 548 0018 3C000000 		.word	.L86
 549              	.L82:
 271:F:/ARM_Project/W55FA92/N9H20/BSP/Driver/Source/SYS\wb_timer.c **** 	{
 272:F:/ARM_Project/W55FA92/N9H20/BSP/Driver/Source/SYS\wb_timer.c **** 		case TIMER0:
 273:F:/ARM_Project/W55FA92/N9H20/BSP/Driver/Source/SYS\wb_timer.c **** 			_sys_uTimer0ClockRate = uClockRate;
 550              		.loc 1 273 0
 551 001c 20309FE5 		ldr	r3, .L88
 552              	.L87:
 274:F:/ARM_Project/W55FA92/N9H20/BSP/Driver/Source/SYS\wb_timer.c **** 			break;
 275:F:/ARM_Project/W55FA92/N9H20/BSP/Driver/Source/SYS\wb_timer.c **** 		case TIMER1:
 276:F:/ARM_Project/W55FA92/N9H20/BSP/Driver/Source/SYS\wb_timer.c **** 			_sys_uTimer1ClockRate = uClockRate;
 277:F:/ARM_Project/W55FA92/N9H20/BSP/Driver/Source/SYS\wb_timer.c **** 			break;
 278:F:/ARM_Project/W55FA92/N9H20/BSP/Driver/Source/SYS\wb_timer.c **** 		case TIMER2:
 279:F:/ARM_Project/W55FA92/N9H20/BSP/Driver/Source/SYS\wb_timer.c **** 			_sys_uTimer2ClockRate = uClockRate;
 280:F:/ARM_Project/W55FA92/N9H20/BSP/Driver/Source/SYS\wb_timer.c **** 			break;
 281:F:/ARM_Project/W55FA92/N9H20/BSP/Driver/Source/SYS\wb_timer.c **** 		case TIMER3:
 282:F:/ARM_Project/W55FA92/N9H20/BSP/Driver/Source/SYS\wb_timer.c **** 			_sys_uTimer3ClockRate = uClockRate;
 553              		.loc 1 282 0
 554 0020 001083E5 		str	r1, [r3]
 555              	.L81:
 283:F:/ARM_Project/W55FA92/N9H20/BSP/Driver/Source/SYS\wb_timer.c **** 			break;	
 284:F:/ARM_Project/W55FA92/N9H20/BSP/Driver/Source/SYS\wb_timer.c **** 		default:		
 285:F:/ARM_Project/W55FA92/N9H20/BSP/Driver/Source/SYS\wb_timer.c **** 		   	;
 286:F:/ARM_Project/W55FA92/N9H20/BSP/Driver/Source/SYS\wb_timer.c **** 	}
 287:F:/ARM_Project/W55FA92/N9H20/BSP/Driver/Source/SYS\wb_timer.c **** 	return Successful;
 288:F:/ARM_Project/W55FA92/N9H20/BSP/Driver/Source/SYS\wb_timer.c **** }
 556              		.loc 1 288 0
 557 0024 0000A0E3 		mov	r0, #0
 558              	.LVL15:
 559 0028 1EFF2FE1 		bx	lr
 560              	.LVL16:
 561              	.L84:
 276:F:/ARM_Project/W55FA92/N9H20/BSP/Driver/Source/SYS\wb_timer.c **** 			break;
 562              		.loc 1 276 0
 563 002c 14309FE5 		ldr	r3, .L88+4
 564 0030 FAFFFFEA 		b	.L87
 565              	.L85:
 279:F:/ARM_Project/W55FA92/N9H20/BSP/Driver/Source/SYS\wb_timer.c **** 			break;
 566              		.loc 1 279 0
 567 0034 10309FE5 		ldr	r3, .L88+8
 568 0038 F8FFFFEA 		b	.L87
 569              	.L86:
 282:F:/ARM_Project/W55FA92/N9H20/BSP/Driver/Source/SYS\wb_timer.c **** 			break;	
 570              		.loc 1 282 0
 571 003c 0C309FE5 		ldr	r3, .L88+12
 572 0040 F6FFFFEA 		b	.L87
 573              	.L89:
 574              		.align	2
 575              	.L88:
 576 0044 00000000 		.word	.LANCHOR8
 577 0048 00000000 		.word	.LANCHOR9
 578 004c 00000000 		.word	.LANCHOR10
 579 0050 00000000 		.word	.LANCHOR11
 580              		.cfi_endproc
 581              	.LFE13:
 583              		.global	__aeabi_uidiv
 584              		.section	.text.sysStartTimer,"ax",%progbits
 585              		.align	2
 586              		.global	sysStartTimer
 587              		.syntax unified
 588              		.arm
 589              		.fpu softvfp
 591              	sysStartTimer:
 592              	.LFB14:
 289:F:/ARM_Project/W55FA92/N9H20/BSP/Driver/Source/SYS\wb_timer.c **** 
 290:F:/ARM_Project/W55FA92/N9H20/BSP/Driver/Source/SYS\wb_timer.c **** INT32 sysStartTimer(INT32 nTimeNo, UINT32 uTicksPerSecond, INT32 nOpMode)
 291:F:/ARM_Project/W55FA92/N9H20/BSP/Driver/Source/SYS\wb_timer.c **** {
 593              		.loc 1 291 0
 594              		.cfi_startproc
 595              		@ args = 0, pretend = 0, frame = 8
 596              		@ frame_needed = 0, uses_anonymous_args = 0
 597              	.LVL17:
 598 0000 37402DE9 		push	{r0, r1, r2, r4, r5, lr}
 599              		.cfi_def_cfa_offset 24
 600              		.cfi_offset 4, -12
 601              		.cfi_offset 5, -8
 602              		.cfi_offset 14, -4
 603              		.loc 1 291 0
 604 0004 0150A0E1 		mov	r5, r1
 605 0008 0240A0E1 		mov	r4, r2
 292:F:/ARM_Project/W55FA92/N9H20/BSP/Driver/Source/SYS\wb_timer.c **** 	int volatile i;
 293:F:/ARM_Project/W55FA92/N9H20/BSP/Driver/Source/SYS\wb_timer.c **** 	//UINT32 _mTicr, _mTcr;
 294:F:/ARM_Project/W55FA92/N9H20/BSP/Driver/Source/SYS\wb_timer.c ****     UINT32 _mTicr;
 295:F:/ARM_Project/W55FA92/N9H20/BSP/Driver/Source/SYS\wb_timer.c **** 	
 296:F:/ARM_Project/W55FA92/N9H20/BSP/Driver/Source/SYS\wb_timer.c **** 	//_mTcr = 0x60000000 | (nOpMode << 27);
 297:F:/ARM_Project/W55FA92/N9H20/BSP/Driver/Source/SYS\wb_timer.c **** 	switch (nTimeNo)
 606              		.loc 1 297 0
 607 000c 040050E3 		cmp	r0, #4
 608 0010 00F19F97 		ldrls	pc, [pc, r0, asl #2]
 609 0014 330000EA 		b	.L91
 610              	.L93:
 611 0018 2C000000 		.word	.L92
 612 001c 14010000 		.word	.L94
 613 0020 EC010000 		.word	.L95
 614 0024 A8020000 		.word	.L96
 615 0028 64030000 		.word	.L97
 616              	.L92:
 298:F:/ARM_Project/W55FA92/N9H20/BSP/Driver/Source/SYS\wb_timer.c **** 	{
 299:F:/ARM_Project/W55FA92/N9H20/BSP/Driver/Source/SYS\wb_timer.c **** 		case TIMER0:
 300:F:/ARM_Project/W55FA92/N9H20/BSP/Driver/Source/SYS\wb_timer.c **** 			_sys_bIsTimer0Initial = TRUE;
 617              		.loc 1 300 0
 618 002c 5C339FE5 		ldr	r3, .L111
 619 0030 0120A0E3 		mov	r2, #1
 620              	.LVL18:
 621 0034 0020C3E5 		strb	r2, [r3]
 301:F:/ARM_Project/W55FA92/N9H20/BSP/Driver/Source/SYS\wb_timer.c **** 			_sys_uTimer0TickPerSecond = uTicksPerSecond;
 622              		.loc 1 301 0
 623 0038 54339FE5 		ldr	r3, .L111+4
 624 003c 001083E5 		str	r1, [r3]
 302:F:/ARM_Project/W55FA92/N9H20/BSP/Driver/Source/SYS\wb_timer.c **** 			outp32(REG_APBCLK, inp32(REG_APBCLK) | TMR0_CKE);
 625              		.loc 1 302 0
 626 0040 0B32A0E3 		mov	r3, #-1342177280
 627 0044 082293E5 		ldr	r2, [r3, #520]
 303:F:/ARM_Project/W55FA92/N9H20/BSP/Driver/Source/SYS\wb_timer.c **** 			outp32(REG_APBIPRST, inp32(REG_APBIPRST) | TMR0RST);
 304:F:/ARM_Project/W55FA92/N9H20/BSP/Driver/Source/SYS\wb_timer.c **** 			outp32(REG_APBIPRST, inp32(REG_APBIPRST) & ~TMR0RST);
 305:F:/ARM_Project/W55FA92/N9H20/BSP/Driver/Source/SYS\wb_timer.c **** 
 306:F:/ARM_Project/W55FA92/N9H20/BSP/Driver/Source/SYS\wb_timer.c **** 			for (i=0; i<TimerEventCount; i++)
 307:F:/ARM_Project/W55FA92/N9H20/BSP/Driver/Source/SYS\wb_timer.c **** 				tTime0Event[i].active = FALSE;
 628              		.loc 1 307 0
 629 0048 48139FE5 		ldr	r1, .L111+8
 630              	.LVL19:
 302:F:/ARM_Project/W55FA92/N9H20/BSP/Driver/Source/SYS\wb_timer.c **** 			outp32(REG_APBCLK, inp32(REG_APBCLK) | TMR0_CKE);
 631              		.loc 1 302 0
 632 004c 012C82E3 		orr	r2, r2, #256
 633 0050 082283E5 		str	r2, [r3, #520]
 303:F:/ARM_Project/W55FA92/N9H20/BSP/Driver/Source/SYS\wb_timer.c **** 			outp32(REG_APBIPRST, inp32(REG_APBIPRST) | TMR0RST);
 634              		.loc 1 303 0
 635 0054 182093E5 		ldr	r2, [r3, #24]
 636 0058 102082E3 		orr	r2, r2, #16
 637 005c 182083E5 		str	r2, [r3, #24]
 304:F:/ARM_Project/W55FA92/N9H20/BSP/Driver/Source/SYS\wb_timer.c **** 
 638              		.loc 1 304 0
 639 0060 182093E5 		ldr	r2, [r3, #24]
 640 0064 1020C2E3 		bic	r2, r2, #16
 641 0068 182083E5 		str	r2, [r3, #24]
 306:F:/ARM_Project/W55FA92/N9H20/BSP/Driver/Source/SYS\wb_timer.c **** 				tTime0Event[i].active = FALSE;
 642              		.loc 1 306 0
 643 006c 0030A0E3 		mov	r3, #0
 644 0070 04308DE5 		str	r3, [sp, #4]
 645              	.L98:
 306:F:/ARM_Project/W55FA92/N9H20/BSP/Driver/Source/SYS\wb_timer.c **** 				tTime0Event[i].active = FALSE;
 646              		.loc 1 306 0 is_stmt 0 discriminator 1
 647 0074 04209DE5 		ldr	r2, [sp, #4]
 648 0078 090052E3 		cmp	r2, #9
 649 007c 1E0000DA 		ble	.L99
 308:F:/ARM_Project/W55FA92/N9H20/BSP/Driver/Source/SYS\wb_timer.c **** 
 309:F:/ARM_Project/W55FA92/N9H20/BSP/Driver/Source/SYS\wb_timer.c **** 			_sys_pvOldTimer0Vect = sysInstallISR(IRQ_LEVEL_1, 
 650              		.loc 1 309 0 is_stmt 1
 651 0080 14239FE5 		ldr	r2, .L111+12
 652 0084 0F10A0E3 		mov	r1, #15
 653 0088 0100A0E3 		mov	r0, #1
 654              	.LVL20:
 655 008c FEFFFFEB 		bl	sysInstallISR
 656              	.LVL21:
 657 0090 08339FE5 		ldr	r3, .L111+16
 658 0094 000083E5 		str	r0, [r3]
 310:F:/ARM_Project/W55FA92/N9H20/BSP/Driver/Source/SYS\wb_timer.c **** 											IRQ_TMR0, 
 311:F:/ARM_Project/W55FA92/N9H20/BSP/Driver/Source/SYS\wb_timer.c **** 											(PVOID)sysTimerISR);
 312:F:/ARM_Project/W55FA92/N9H20/BSP/Driver/Source/SYS\wb_timer.c **** 			sysEnableInterrupt(IRQ_TMR0);
 659              		.loc 1 312 0
 660 0098 0F00A0E3 		mov	r0, #15
 661 009c FEFFFFEB 		bl	sysEnableInterrupt
 662              	.LVL22:
 313:F:/ARM_Project/W55FA92/N9H20/BSP/Driver/Source/SYS\wb_timer.c **** 			sysSetInterruptType(IRQ_TMR0, 1);	//eDRVAIC_HIGH_LEVEL
 663              		.loc 1 313 0
 664 00a0 0110A0E3 		mov	r1, #1
 665 00a4 0F00A0E3 		mov	r0, #15
 666 00a8 FEFFFFEB 		bl	sysSetInterruptType
 667              	.LVL23:
 314:F:/ARM_Project/W55FA92/N9H20/BSP/Driver/Source/SYS\wb_timer.c **** 			
 315:F:/ARM_Project/W55FA92/N9H20/BSP/Driver/Source/SYS\wb_timer.c **** 			_sys_uTimer0Count = 0;
 668              		.loc 1 315 0
 669 00ac F0329FE5 		ldr	r3, .L111+20
 670 00b0 0020A0E3 		mov	r2, #0
 671 00b4 002083E5 		str	r2, [r3]
 316:F:/ARM_Project/W55FA92/N9H20/BSP/Driver/Source/SYS\wb_timer.c **** 			_mTicr = _sys_uTimer0ClockRate / uTicksPerSecond;
 672              		.loc 1 316 0
 673 00b8 E8329FE5 		ldr	r3, .L111+24
 674 00bc 0510A0E1 		mov	r1, r5
 675 00c0 000093E5 		ldr	r0, [r3]
 676 00c4 FEFFFFEB 		bl	__aeabi_uidiv
 677              	.LVL24:
 317:F:/ARM_Project/W55FA92/N9H20/BSP/Driver/Source/SYS\wb_timer.c **** 			outpw(REG_TICR0, _mTicr);
 678              		.loc 1 317 0
 679 00c8 DC329FE5 		ldr	r3, .L111+28
 680              	.L108:
 318:F:/ARM_Project/W55FA92/N9H20/BSP/Driver/Source/SYS\wb_timer.c **** 			outpw(REG_TCSR0, (inpw(REG_TCSR0) & 0x87FFFF00) | ((nOpMode | 0xC)<<27));  //0xC means CEN and I
 319:F:/ARM_Project/W55FA92/N9H20/BSP/Driver/Source/SYS\wb_timer.c **** 			break;
 320:F:/ARM_Project/W55FA92/N9H20/BSP/Driver/Source/SYS\wb_timer.c **** 		case TIMER1:
 321:F:/ARM_Project/W55FA92/N9H20/BSP/Driver/Source/SYS\wb_timer.c **** 			_sys_bIsTimer1Initial = TRUE;
 322:F:/ARM_Project/W55FA92/N9H20/BSP/Driver/Source/SYS\wb_timer.c **** 			_sys_uTimer1TickPerSecond = uTicksPerSecond;
 323:F:/ARM_Project/W55FA92/N9H20/BSP/Driver/Source/SYS\wb_timer.c **** 			outp32(REG_APBCLK, inp32(REG_APBCLK) | TMR1_CKE);
 324:F:/ARM_Project/W55FA92/N9H20/BSP/Driver/Source/SYS\wb_timer.c **** 			outp32(REG_APBIPRST, inp32(REG_APBIPRST) | TMR1RST);
 325:F:/ARM_Project/W55FA92/N9H20/BSP/Driver/Source/SYS\wb_timer.c **** 			outp32(REG_APBIPRST, inp32(REG_APBIPRST) & ~TMR1RST);
 326:F:/ARM_Project/W55FA92/N9H20/BSP/Driver/Source/SYS\wb_timer.c **** 
 327:F:/ARM_Project/W55FA92/N9H20/BSP/Driver/Source/SYS\wb_timer.c **** 			for (i=0; i<TimerEventCount; i++)
 328:F:/ARM_Project/W55FA92/N9H20/BSP/Driver/Source/SYS\wb_timer.c **** 				tTime1Event[i].active = FALSE;
 329:F:/ARM_Project/W55FA92/N9H20/BSP/Driver/Source/SYS\wb_timer.c **** 
 330:F:/ARM_Project/W55FA92/N9H20/BSP/Driver/Source/SYS\wb_timer.c **** 			_sys_pvOldTimer1Vect = sysInstallISR(IRQ_LEVEL_1, 
 331:F:/ARM_Project/W55FA92/N9H20/BSP/Driver/Source/SYS\wb_timer.c **** 											IRQ_TMR1, 
 332:F:/ARM_Project/W55FA92/N9H20/BSP/Driver/Source/SYS\wb_timer.c **** 											(PVOID)sysTimerISR);
 333:F:/ARM_Project/W55FA92/N9H20/BSP/Driver/Source/SYS\wb_timer.c **** 			sysEnableInterrupt(IRQ_TMR1);
 334:F:/ARM_Project/W55FA92/N9H20/BSP/Driver/Source/SYS\wb_timer.c **** 			sysSetInterruptType(IRQ_TMR1, 1);	//eDRVAIC_HIGH_LEVEL
 335:F:/ARM_Project/W55FA92/N9H20/BSP/Driver/Source/SYS\wb_timer.c **** 			
 336:F:/ARM_Project/W55FA92/N9H20/BSP/Driver/Source/SYS\wb_timer.c **** 			_sys_uTimer1Count = 0;
 337:F:/ARM_Project/W55FA92/N9H20/BSP/Driver/Source/SYS\wb_timer.c **** 			_mTicr = _sys_uTimer1ClockRate / uTicksPerSecond;
 338:F:/ARM_Project/W55FA92/N9H20/BSP/Driver/Source/SYS\wb_timer.c **** 			outpw(REG_TICR1, _mTicr);
 339:F:/ARM_Project/W55FA92/N9H20/BSP/Driver/Source/SYS\wb_timer.c **** 			outpw(REG_TCSR1, (inpw(REG_TCSR1) & 0x87FFFF00) | ((nOpMode | 0xC)<<27));  //0xC means CEN and I
 340:F:/ARM_Project/W55FA92/N9H20/BSP/Driver/Source/SYS\wb_timer.c **** 			break;
 341:F:/ARM_Project/W55FA92/N9H20/BSP/Driver/Source/SYS\wb_timer.c **** 		case TIMER2:
 342:F:/ARM_Project/W55FA92/N9H20/BSP/Driver/Source/SYS\wb_timer.c **** 			_sys_bIsTimer2Initial = TRUE;
 343:F:/ARM_Project/W55FA92/N9H20/BSP/Driver/Source/SYS\wb_timer.c **** 			_sys_uTimer2TickPerSecond = uTicksPerSecond;
 344:F:/ARM_Project/W55FA92/N9H20/BSP/Driver/Source/SYS\wb_timer.c **** 			outp32(REG_APBCLK, inp32(REG_APBCLK) | TMR2_CKE);
 345:F:/ARM_Project/W55FA92/N9H20/BSP/Driver/Source/SYS\wb_timer.c **** 			outp32(REG_APBIPRST, inp32(REG_APBIPRST) | TMR2RST);
 346:F:/ARM_Project/W55FA92/N9H20/BSP/Driver/Source/SYS\wb_timer.c **** 			outp32(REG_APBIPRST, inp32(REG_APBIPRST) & ~TMR2RST);
 347:F:/ARM_Project/W55FA92/N9H20/BSP/Driver/Source/SYS\wb_timer.c **** 
 348:F:/ARM_Project/W55FA92/N9H20/BSP/Driver/Source/SYS\wb_timer.c **** 			for (i=0; i<TimerEventCount; i++)
 349:F:/ARM_Project/W55FA92/N9H20/BSP/Driver/Source/SYS\wb_timer.c **** 				tTime2Event[i].active = FALSE;
 350:F:/ARM_Project/W55FA92/N9H20/BSP/Driver/Source/SYS\wb_timer.c **** 
 351:F:/ARM_Project/W55FA92/N9H20/BSP/Driver/Source/SYS\wb_timer.c **** 			_sys_pvOldTimer1Vect = sysInstallISR(IRQ_LEVEL_1, 
 352:F:/ARM_Project/W55FA92/N9H20/BSP/Driver/Source/SYS\wb_timer.c **** 											IRQ_TMR2, 
 353:F:/ARM_Project/W55FA92/N9H20/BSP/Driver/Source/SYS\wb_timer.c **** 											(PVOID)sysTimerISR);
 354:F:/ARM_Project/W55FA92/N9H20/BSP/Driver/Source/SYS\wb_timer.c **** 			sysEnableInterrupt(IRQ_TMR2);
 355:F:/ARM_Project/W55FA92/N9H20/BSP/Driver/Source/SYS\wb_timer.c **** 			sysSetInterruptType(IRQ_TMR2, 1);	//eDRVAIC_HIGH_LEVEL
 356:F:/ARM_Project/W55FA92/N9H20/BSP/Driver/Source/SYS\wb_timer.c **** 			
 357:F:/ARM_Project/W55FA92/N9H20/BSP/Driver/Source/SYS\wb_timer.c **** 			_sys_uTimer2Count = 0;
 358:F:/ARM_Project/W55FA92/N9H20/BSP/Driver/Source/SYS\wb_timer.c **** 			_mTicr = _sys_uTimer2ClockRate / uTicksPerSecond;
 359:F:/ARM_Project/W55FA92/N9H20/BSP/Driver/Source/SYS\wb_timer.c **** 			outpw(REG_TICR2, _mTicr);
 681              		.loc 1 359 0
 682 00cc 080083E5 		str	r0, [r3, #8]
 360:F:/ARM_Project/W55FA92/N9H20/BSP/Driver/Source/SYS\wb_timer.c **** 			outpw(REG_TCSR2, (inpw(REG_TCSR2) & 0x87FFFF00) | ((nOpMode | 0xC)<<27)); //0xC means CEN and IE
 683              		.loc 1 360 0
 684 00d0 002093E5 		ldr	r2, [r3]
 685 00d4 1E23C2E3 		bic	r2, r2, #2013265920
 686 00d8 FF20C2E3 		bic	r2, r2, #255
 687 00dc 062282E3 		orr	r2, r2, #1610612736
 688 00e0 842D82E1 		orr	r2, r2, r4, lsl #27
 689 00e4 002083E5 		str	r2, [r3]
 690              	.LVL25:
 691              	.L91:
 361:F:/ARM_Project/W55FA92/N9H20/BSP/Driver/Source/SYS\wb_timer.c **** 			break;	
 362:F:/ARM_Project/W55FA92/N9H20/BSP/Driver/Source/SYS\wb_timer.c **** 		case TIMER3:
 363:F:/ARM_Project/W55FA92/N9H20/BSP/Driver/Source/SYS\wb_timer.c **** 			_sys_bIsTimer3Initial = TRUE;
 364:F:/ARM_Project/W55FA92/N9H20/BSP/Driver/Source/SYS\wb_timer.c **** 			_sys_uTimer3TickPerSecond = uTicksPerSecond;
 365:F:/ARM_Project/W55FA92/N9H20/BSP/Driver/Source/SYS\wb_timer.c **** 			outp32(REG_APBCLK, inp32(REG_APBCLK) | TMR3_CKE);
 366:F:/ARM_Project/W55FA92/N9H20/BSP/Driver/Source/SYS\wb_timer.c **** 			outp32(REG_APBIPRST, inp32(REG_APBIPRST) | TMR3RST);
 367:F:/ARM_Project/W55FA92/N9H20/BSP/Driver/Source/SYS\wb_timer.c **** 			outp32(REG_APBIPRST, inp32(REG_APBIPRST) & ~TMR3RST);
 368:F:/ARM_Project/W55FA92/N9H20/BSP/Driver/Source/SYS\wb_timer.c **** 
 369:F:/ARM_Project/W55FA92/N9H20/BSP/Driver/Source/SYS\wb_timer.c **** 			for (i=0; i<TimerEventCount; i++)
 370:F:/ARM_Project/W55FA92/N9H20/BSP/Driver/Source/SYS\wb_timer.c **** 				tTime3Event[i].active = FALSE;
 371:F:/ARM_Project/W55FA92/N9H20/BSP/Driver/Source/SYS\wb_timer.c **** 
 372:F:/ARM_Project/W55FA92/N9H20/BSP/Driver/Source/SYS\wb_timer.c **** 			_sys_pvOldTimer3Vect = sysInstallISR(IRQ_LEVEL_1, 
 373:F:/ARM_Project/W55FA92/N9H20/BSP/Driver/Source/SYS\wb_timer.c **** 											IRQ_TMR3, 
 374:F:/ARM_Project/W55FA92/N9H20/BSP/Driver/Source/SYS\wb_timer.c **** 											(PVOID)sysTimerISR);
 375:F:/ARM_Project/W55FA92/N9H20/BSP/Driver/Source/SYS\wb_timer.c **** 			sysEnableInterrupt(IRQ_TMR3);
 376:F:/ARM_Project/W55FA92/N9H20/BSP/Driver/Source/SYS\wb_timer.c **** 			sysSetInterruptType(IRQ_TMR3, 1);	//eDRVAIC_HIGH_LEVEL
 377:F:/ARM_Project/W55FA92/N9H20/BSP/Driver/Source/SYS\wb_timer.c **** 			
 378:F:/ARM_Project/W55FA92/N9H20/BSP/Driver/Source/SYS\wb_timer.c **** 			_sys_uTimer1Count = 0;
 379:F:/ARM_Project/W55FA92/N9H20/BSP/Driver/Source/SYS\wb_timer.c **** 			_mTicr = _sys_uTimer3ClockRate / uTicksPerSecond;
 380:F:/ARM_Project/W55FA92/N9H20/BSP/Driver/Source/SYS\wb_timer.c **** 			outpw(REG_TICR3, _mTicr);
 381:F:/ARM_Project/W55FA92/N9H20/BSP/Driver/Source/SYS\wb_timer.c **** 			outpw(REG_TCSR3, (inpw(REG_TCSR3) & 0x87FFFF00) | ((nOpMode | 0xC)<<27));  //0xC means CEN and I
 382:F:/ARM_Project/W55FA92/N9H20/BSP/Driver/Source/SYS\wb_timer.c **** 			break;
 383:F:/ARM_Project/W55FA92/N9H20/BSP/Driver/Source/SYS\wb_timer.c **** 		case WDTIMER:
 384:F:/ARM_Project/W55FA92/N9H20/BSP/Driver/Source/SYS\wb_timer.c **** 			outp32(REG_APBCLK, inp32(REG_APBCLK) | WDCLK_CKE);	
 385:F:/ARM_Project/W55FA92/N9H20/BSP/Driver/Source/SYS\wb_timer.c **** 			if( (inpw(REG_WTCR) & WTRF) == WTRF)
 386:F:/ARM_Project/W55FA92/N9H20/BSP/Driver/Source/SYS\wb_timer.c **** 				sysprintf("It is warm reset\n");
 387:F:/ARM_Project/W55FA92/N9H20/BSP/Driver/Source/SYS\wb_timer.c **** 			else
 388:F:/ARM_Project/W55FA92/N9H20/BSP/Driver/Source/SYS\wb_timer.c **** 				sysprintf("It is cold reset\n");	
 389:F:/ARM_Project/W55FA92/N9H20/BSP/Driver/Source/SYS\wb_timer.c **** 			break;		
 390:F:/ARM_Project/W55FA92/N9H20/BSP/Driver/Source/SYS\wb_timer.c **** 		default:
 391:F:/ARM_Project/W55FA92/N9H20/BSP/Driver/Source/SYS\wb_timer.c **** 		    ;
 392:F:/ARM_Project/W55FA92/N9H20/BSP/Driver/Source/SYS\wb_timer.c **** 	}
 393:F:/ARM_Project/W55FA92/N9H20/BSP/Driver/Source/SYS\wb_timer.c **** 	sysSetLocalInterrupt(ENABLE_IRQ);
 692              		.loc 1 393 0
 693 00e8 7F00A0E3 		mov	r0, #127
 694 00ec FEFFFFEB 		bl	sysSetLocalInterrupt
 695              	.LVL26:
 394:F:/ARM_Project/W55FA92/N9H20/BSP/Driver/Source/SYS\wb_timer.c **** 	return Successful;
 395:F:/ARM_Project/W55FA92/N9H20/BSP/Driver/Source/SYS\wb_timer.c **** }
 696              		.loc 1 395 0
 697 00f0 0000A0E3 		mov	r0, #0
 698 00f4 0CD08DE2 		add	sp, sp, #12
 699              		.cfi_remember_state
 700              		.cfi_def_cfa_offset 12
 701              		@ sp needed
 702 00f8 3080BDE8 		pop	{r4, r5, pc}
 703              	.LVL27:
 704              	.L99:
 705              		.cfi_restore_state
 307:F:/ARM_Project/W55FA92/N9H20/BSP/Driver/Source/SYS\wb_timer.c **** 
 706              		.loc 1 307 0 discriminator 3
 707 00fc 04209DE5 		ldr	r2, [sp, #4]
 708 0100 023281E7 		str	r3, [r1, r2, lsl #4]
 306:F:/ARM_Project/W55FA92/N9H20/BSP/Driver/Source/SYS\wb_timer.c **** 				tTime0Event[i].active = FALSE;
 709              		.loc 1 306 0 discriminator 3
 710 0104 04209DE5 		ldr	r2, [sp, #4]
 711 0108 012082E2 		add	r2, r2, #1
 712 010c 04208DE5 		str	r2, [sp, #4]
 713 0110 D7FFFFEA 		b	.L98
 714              	.LVL28:
 715              	.L94:
 321:F:/ARM_Project/W55FA92/N9H20/BSP/Driver/Source/SYS\wb_timer.c **** 			_sys_uTimer1TickPerSecond = uTicksPerSecond;
 716              		.loc 1 321 0
 717 0114 94329FE5 		ldr	r3, .L111+32
 718 0118 0120A0E3 		mov	r2, #1
 719              	.LVL29:
 720 011c 0020C3E5 		strb	r2, [r3]
 322:F:/ARM_Project/W55FA92/N9H20/BSP/Driver/Source/SYS\wb_timer.c **** 			outp32(REG_APBCLK, inp32(REG_APBCLK) | TMR1_CKE);
 721              		.loc 1 322 0
 722 0120 8C329FE5 		ldr	r3, .L111+36
 723 0124 001083E5 		str	r1, [r3]
 323:F:/ARM_Project/W55FA92/N9H20/BSP/Driver/Source/SYS\wb_timer.c **** 			outp32(REG_APBIPRST, inp32(REG_APBIPRST) | TMR1RST);
 724              		.loc 1 323 0
 725 0128 0B32A0E3 		mov	r3, #-1342177280
 726 012c 082293E5 		ldr	r2, [r3, #520]
 328:F:/ARM_Project/W55FA92/N9H20/BSP/Driver/Source/SYS\wb_timer.c **** 
 727              		.loc 1 328 0
 728 0130 80129FE5 		ldr	r1, .L111+40
 729              	.LVL30:
 323:F:/ARM_Project/W55FA92/N9H20/BSP/Driver/Source/SYS\wb_timer.c **** 			outp32(REG_APBIPRST, inp32(REG_APBIPRST) | TMR1RST);
 730              		.loc 1 323 0
 731 0134 022C82E3 		orr	r2, r2, #512
 732 0138 082283E5 		str	r2, [r3, #520]
 324:F:/ARM_Project/W55FA92/N9H20/BSP/Driver/Source/SYS\wb_timer.c **** 			outp32(REG_APBIPRST, inp32(REG_APBIPRST) & ~TMR1RST);
 733              		.loc 1 324 0
 734 013c 182093E5 		ldr	r2, [r3, #24]
 735 0140 202082E3 		orr	r2, r2, #32
 736 0144 182083E5 		str	r2, [r3, #24]
 325:F:/ARM_Project/W55FA92/N9H20/BSP/Driver/Source/SYS\wb_timer.c **** 
 737              		.loc 1 325 0
 738 0148 182093E5 		ldr	r2, [r3, #24]
 739 014c 2020C2E3 		bic	r2, r2, #32
 740 0150 182083E5 		str	r2, [r3, #24]
 327:F:/ARM_Project/W55FA92/N9H20/BSP/Driver/Source/SYS\wb_timer.c **** 				tTime1Event[i].active = FALSE;
 741              		.loc 1 327 0
 742 0154 0030A0E3 		mov	r3, #0
 743 0158 04308DE5 		str	r3, [sp, #4]
 744              	.L100:
 327:F:/ARM_Project/W55FA92/N9H20/BSP/Driver/Source/SYS\wb_timer.c **** 				tTime1Event[i].active = FALSE;
 745              		.loc 1 327 0 is_stmt 0 discriminator 1
 746 015c 04209DE5 		ldr	r2, [sp, #4]
 747 0160 090052E3 		cmp	r2, #9
 748 0164 1A0000DA 		ble	.L101
 330:F:/ARM_Project/W55FA92/N9H20/BSP/Driver/Source/SYS\wb_timer.c **** 											IRQ_TMR1, 
 749              		.loc 1 330 0 is_stmt 1
 750 0168 2C229FE5 		ldr	r2, .L111+12
 751 016c 1010A0E3 		mov	r1, #16
 752 0170 0100A0E3 		mov	r0, #1
 753              	.LVL31:
 754 0174 FEFFFFEB 		bl	sysInstallISR
 755              	.LVL32:
 756 0178 3C329FE5 		ldr	r3, .L111+44
 757 017c 000083E5 		str	r0, [r3]
 333:F:/ARM_Project/W55FA92/N9H20/BSP/Driver/Source/SYS\wb_timer.c **** 			sysSetInterruptType(IRQ_TMR1, 1);	//eDRVAIC_HIGH_LEVEL
 758              		.loc 1 333 0
 759 0180 1000A0E3 		mov	r0, #16
 760 0184 FEFFFFEB 		bl	sysEnableInterrupt
 761              	.LVL33:
 334:F:/ARM_Project/W55FA92/N9H20/BSP/Driver/Source/SYS\wb_timer.c **** 			
 762              		.loc 1 334 0
 763 0188 0110A0E3 		mov	r1, #1
 764 018c 1000A0E3 		mov	r0, #16
 765 0190 FEFFFFEB 		bl	sysSetInterruptType
 766              	.LVL34:
 336:F:/ARM_Project/W55FA92/N9H20/BSP/Driver/Source/SYS\wb_timer.c **** 			_mTicr = _sys_uTimer1ClockRate / uTicksPerSecond;
 767              		.loc 1 336 0
 768 0194 24329FE5 		ldr	r3, .L111+48
 769 0198 0020A0E3 		mov	r2, #0
 770 019c 002083E5 		str	r2, [r3]
 337:F:/ARM_Project/W55FA92/N9H20/BSP/Driver/Source/SYS\wb_timer.c **** 			outpw(REG_TICR1, _mTicr);
 771              		.loc 1 337 0
 772 01a0 1C329FE5 		ldr	r3, .L111+52
 773 01a4 0510A0E1 		mov	r1, r5
 774 01a8 000093E5 		ldr	r0, [r3]
 775 01ac FEFFFFEB 		bl	__aeabi_uidiv
 776              	.LVL35:
 338:F:/ARM_Project/W55FA92/N9H20/BSP/Driver/Source/SYS\wb_timer.c **** 			outpw(REG_TCSR1, (inpw(REG_TCSR1) & 0x87FFFF00) | ((nOpMode | 0xC)<<27));  //0xC means CEN and I
 777              		.loc 1 338 0
 778 01b0 F4319FE5 		ldr	r3, .L111+28
 779              	.L110:
 380:F:/ARM_Project/W55FA92/N9H20/BSP/Driver/Source/SYS\wb_timer.c **** 			outpw(REG_TCSR3, (inpw(REG_TCSR3) & 0x87FFFF00) | ((nOpMode | 0xC)<<27));  //0xC means CEN and I
 780              		.loc 1 380 0
 781 01b4 0C0083E5 		str	r0, [r3, #12]
 381:F:/ARM_Project/W55FA92/N9H20/BSP/Driver/Source/SYS\wb_timer.c **** 			break;
 782              		.loc 1 381 0
 783 01b8 042093E5 		ldr	r2, [r3, #4]
 784 01bc 1E23C2E3 		bic	r2, r2, #2013265920
 785 01c0 FF20C2E3 		bic	r2, r2, #255
 786 01c4 062282E3 		orr	r2, r2, #1610612736
 787 01c8 842D82E1 		orr	r2, r2, r4, lsl #27
 788 01cc 042083E5 		str	r2, [r3, #4]
 382:F:/ARM_Project/W55FA92/N9H20/BSP/Driver/Source/SYS\wb_timer.c **** 		case WDTIMER:
 789              		.loc 1 382 0
 790 01d0 C4FFFFEA 		b	.L91
 791              	.LVL36:
 792              	.L101:
 328:F:/ARM_Project/W55FA92/N9H20/BSP/Driver/Source/SYS\wb_timer.c **** 
 793              		.loc 1 328 0 discriminator 3
 794 01d4 04209DE5 		ldr	r2, [sp, #4]
 795 01d8 023281E7 		str	r3, [r1, r2, lsl #4]
 327:F:/ARM_Project/W55FA92/N9H20/BSP/Driver/Source/SYS\wb_timer.c **** 				tTime1Event[i].active = FALSE;
 796              		.loc 1 327 0 discriminator 3
 797 01dc 04209DE5 		ldr	r2, [sp, #4]
 798 01e0 012082E2 		add	r2, r2, #1
 799 01e4 04208DE5 		str	r2, [sp, #4]
 800 01e8 DBFFFFEA 		b	.L100
 801              	.LVL37:
 802              	.L95:
 342:F:/ARM_Project/W55FA92/N9H20/BSP/Driver/Source/SYS\wb_timer.c **** 			_sys_uTimer2TickPerSecond = uTicksPerSecond;
 803              		.loc 1 342 0
 804 01ec D4319FE5 		ldr	r3, .L111+56
 805 01f0 0120A0E3 		mov	r2, #1
 806              	.LVL38:
 807 01f4 0020C3E5 		strb	r2, [r3]
 343:F:/ARM_Project/W55FA92/N9H20/BSP/Driver/Source/SYS\wb_timer.c **** 			outp32(REG_APBCLK, inp32(REG_APBCLK) | TMR2_CKE);
 808              		.loc 1 343 0
 809 01f8 CC319FE5 		ldr	r3, .L111+60
 810 01fc 001083E5 		str	r1, [r3]
 344:F:/ARM_Project/W55FA92/N9H20/BSP/Driver/Source/SYS\wb_timer.c **** 			outp32(REG_APBIPRST, inp32(REG_APBIPRST) | TMR2RST);
 811              		.loc 1 344 0
 812 0200 0B32A0E3 		mov	r3, #-1342177280
 813 0204 082293E5 		ldr	r2, [r3, #520]
 349:F:/ARM_Project/W55FA92/N9H20/BSP/Driver/Source/SYS\wb_timer.c **** 
 814              		.loc 1 349 0
 815 0208 C0119FE5 		ldr	r1, .L111+64
 816              	.LVL39:
 344:F:/ARM_Project/W55FA92/N9H20/BSP/Driver/Source/SYS\wb_timer.c **** 			outp32(REG_APBIPRST, inp32(REG_APBIPRST) | TMR2RST);
 817              		.loc 1 344 0
 818 020c 012882E3 		orr	r2, r2, #65536
 819 0210 082283E5 		str	r2, [r3, #520]
 345:F:/ARM_Project/W55FA92/N9H20/BSP/Driver/Source/SYS\wb_timer.c **** 			outp32(REG_APBIPRST, inp32(REG_APBIPRST) & ~TMR2RST);
 820              		.loc 1 345 0
 821 0214 182093E5 		ldr	r2, [r3, #24]
 822 0218 012882E3 		orr	r2, r2, #65536
 823 021c 182083E5 		str	r2, [r3, #24]
 346:F:/ARM_Project/W55FA92/N9H20/BSP/Driver/Source/SYS\wb_timer.c **** 
 824              		.loc 1 346 0
 825 0220 182093E5 		ldr	r2, [r3, #24]
 826 0224 0128C2E3 		bic	r2, r2, #65536
 827 0228 182083E5 		str	r2, [r3, #24]
 348:F:/ARM_Project/W55FA92/N9H20/BSP/Driver/Source/SYS\wb_timer.c **** 				tTime2Event[i].active = FALSE;
 828              		.loc 1 348 0
 829 022c 0030A0E3 		mov	r3, #0
 830 0230 04308DE5 		str	r3, [sp, #4]
 831              	.L102:
 348:F:/ARM_Project/W55FA92/N9H20/BSP/Driver/Source/SYS\wb_timer.c **** 				tTime2Event[i].active = FALSE;
 832              		.loc 1 348 0 is_stmt 0 discriminator 1
 833 0234 04209DE5 		ldr	r2, [sp, #4]
 834 0238 090052E3 		cmp	r2, #9
 835 023c 130000DA 		ble	.L103
 351:F:/ARM_Project/W55FA92/N9H20/BSP/Driver/Source/SYS\wb_timer.c **** 											IRQ_TMR2, 
 836              		.loc 1 351 0 is_stmt 1
 837 0240 54219FE5 		ldr	r2, .L111+12
 838 0244 2E10A0E3 		mov	r1, #46
 839 0248 0100A0E3 		mov	r0, #1
 840              	.LVL40:
 841 024c FEFFFFEB 		bl	sysInstallISR
 842              	.LVL41:
 843 0250 64319FE5 		ldr	r3, .L111+44
 844 0254 000083E5 		str	r0, [r3]
 354:F:/ARM_Project/W55FA92/N9H20/BSP/Driver/Source/SYS\wb_timer.c **** 			sysSetInterruptType(IRQ_TMR2, 1);	//eDRVAIC_HIGH_LEVEL
 845              		.loc 1 354 0
 846 0258 2E00A0E3 		mov	r0, #46
 847 025c FEFFFFEB 		bl	sysEnableInterrupt
 848              	.LVL42:
 355:F:/ARM_Project/W55FA92/N9H20/BSP/Driver/Source/SYS\wb_timer.c **** 			
 849              		.loc 1 355 0
 850 0260 0110A0E3 		mov	r1, #1
 851 0264 2E00A0E3 		mov	r0, #46
 852 0268 FEFFFFEB 		bl	sysSetInterruptType
 853              	.LVL43:
 357:F:/ARM_Project/W55FA92/N9H20/BSP/Driver/Source/SYS\wb_timer.c **** 			_mTicr = _sys_uTimer2ClockRate / uTicksPerSecond;
 854              		.loc 1 357 0
 855 026c 60319FE5 		ldr	r3, .L111+68
 856 0270 0020A0E3 		mov	r2, #0
 857 0274 002083E5 		str	r2, [r3]
 358:F:/ARM_Project/W55FA92/N9H20/BSP/Driver/Source/SYS\wb_timer.c **** 			outpw(REG_TICR2, _mTicr);
 858              		.loc 1 358 0
 859 0278 58319FE5 		ldr	r3, .L111+72
 860 027c 0510A0E1 		mov	r1, r5
 861 0280 000093E5 		ldr	r0, [r3]
 862 0284 FEFFFFEB 		bl	__aeabi_uidiv
 863              	.LVL44:
 359:F:/ARM_Project/W55FA92/N9H20/BSP/Driver/Source/SYS\wb_timer.c **** 			outpw(REG_TCSR2, (inpw(REG_TCSR2) & 0x87FFFF00) | ((nOpMode | 0xC)<<27)); //0xC means CEN and IE
 864              		.loc 1 359 0
 865 0288 4C319FE5 		ldr	r3, .L111+76
 866 028c 8EFFFFEA 		b	.L108
 867              	.LVL45:
 868              	.L103:
 349:F:/ARM_Project/W55FA92/N9H20/BSP/Driver/Source/SYS\wb_timer.c **** 
 869              		.loc 1 349 0 discriminator 3
 870 0290 04209DE5 		ldr	r2, [sp, #4]
 871 0294 023281E7 		str	r3, [r1, r2, lsl #4]
 348:F:/ARM_Project/W55FA92/N9H20/BSP/Driver/Source/SYS\wb_timer.c **** 				tTime2Event[i].active = FALSE;
 872              		.loc 1 348 0 discriminator 3
 873 0298 04209DE5 		ldr	r2, [sp, #4]
 874 029c 012082E2 		add	r2, r2, #1
 875 02a0 04208DE5 		str	r2, [sp, #4]
 876 02a4 E2FFFFEA 		b	.L102
 877              	.LVL46:
 878              	.L96:
 363:F:/ARM_Project/W55FA92/N9H20/BSP/Driver/Source/SYS\wb_timer.c **** 			_sys_uTimer3TickPerSecond = uTicksPerSecond;
 879              		.loc 1 363 0
 880 02a8 30319FE5 		ldr	r3, .L111+80
 881 02ac 0120A0E3 		mov	r2, #1
 882              	.LVL47:
 883 02b0 0020C3E5 		strb	r2, [r3]
 364:F:/ARM_Project/W55FA92/N9H20/BSP/Driver/Source/SYS\wb_timer.c **** 			outp32(REG_APBCLK, inp32(REG_APBCLK) | TMR3_CKE);
 884              		.loc 1 364 0
 885 02b4 28319FE5 		ldr	r3, .L111+84
 886 02b8 001083E5 		str	r1, [r3]
 365:F:/ARM_Project/W55FA92/N9H20/BSP/Driver/Source/SYS\wb_timer.c **** 			outp32(REG_APBIPRST, inp32(REG_APBIPRST) | TMR3RST);
 887              		.loc 1 365 0
 888 02bc 0B32A0E3 		mov	r3, #-1342177280
 889 02c0 082293E5 		ldr	r2, [r3, #520]
 370:F:/ARM_Project/W55FA92/N9H20/BSP/Driver/Source/SYS\wb_timer.c **** 
 890              		.loc 1 370 0
 891 02c4 1C119FE5 		ldr	r1, .L111+88
 892              	.LVL48:
 365:F:/ARM_Project/W55FA92/N9H20/BSP/Driver/Source/SYS\wb_timer.c **** 			outp32(REG_APBIPRST, inp32(REG_APBIPRST) | TMR3RST);
 893              		.loc 1 365 0
 894 02c8 022882E3 		orr	r2, r2, #131072
 895 02cc 082283E5 		str	r2, [r3, #520]
 366:F:/ARM_Project/W55FA92/N9H20/BSP/Driver/Source/SYS\wb_timer.c **** 			outp32(REG_APBIPRST, inp32(REG_APBIPRST) & ~TMR3RST);
 896              		.loc 1 366 0
 897 02d0 182093E5 		ldr	r2, [r3, #24]
 898 02d4 022882E3 		orr	r2, r2, #131072
 899 02d8 182083E5 		str	r2, [r3, #24]
 367:F:/ARM_Project/W55FA92/N9H20/BSP/Driver/Source/SYS\wb_timer.c **** 
 900              		.loc 1 367 0
 901 02dc 182093E5 		ldr	r2, [r3, #24]
 902 02e0 0228C2E3 		bic	r2, r2, #131072
 903 02e4 182083E5 		str	r2, [r3, #24]
 369:F:/ARM_Project/W55FA92/N9H20/BSP/Driver/Source/SYS\wb_timer.c **** 				tTime3Event[i].active = FALSE;
 904              		.loc 1 369 0
 905 02e8 0030A0E3 		mov	r3, #0
 906 02ec 04308DE5 		str	r3, [sp, #4]
 907              	.L104:
 369:F:/ARM_Project/W55FA92/N9H20/BSP/Driver/Source/SYS\wb_timer.c **** 				tTime3Event[i].active = FALSE;
 908              		.loc 1 369 0 is_stmt 0 discriminator 1
 909 02f0 04209DE5 		ldr	r2, [sp, #4]
 910 02f4 090052E3 		cmp	r2, #9
 911 02f8 130000DA 		ble	.L105
 372:F:/ARM_Project/W55FA92/N9H20/BSP/Driver/Source/SYS\wb_timer.c **** 											IRQ_TMR3, 
 912              		.loc 1 372 0 is_stmt 1
 913 02fc 98209FE5 		ldr	r2, .L111+12
 914 0300 2F10A0E3 		mov	r1, #47
 915 0304 0100A0E3 		mov	r0, #1
 916              	.LVL49:
 917 0308 FEFFFFEB 		bl	sysInstallISR
 918              	.LVL50:
 919 030c D8309FE5 		ldr	r3, .L111+92
 920 0310 000083E5 		str	r0, [r3]
 375:F:/ARM_Project/W55FA92/N9H20/BSP/Driver/Source/SYS\wb_timer.c **** 			sysSetInterruptType(IRQ_TMR3, 1);	//eDRVAIC_HIGH_LEVEL
 921              		.loc 1 375 0
 922 0314 2F00A0E3 		mov	r0, #47
 923 0318 FEFFFFEB 		bl	sysEnableInterrupt
 924              	.LVL51:
 376:F:/ARM_Project/W55FA92/N9H20/BSP/Driver/Source/SYS\wb_timer.c **** 			
 925              		.loc 1 376 0
 926 031c 0110A0E3 		mov	r1, #1
 927 0320 2F00A0E3 		mov	r0, #47
 928 0324 FEFFFFEB 		bl	sysSetInterruptType
 929              	.LVL52:
 378:F:/ARM_Project/W55FA92/N9H20/BSP/Driver/Source/SYS\wb_timer.c **** 			_mTicr = _sys_uTimer3ClockRate / uTicksPerSecond;
 930              		.loc 1 378 0
 931 0328 90309FE5 		ldr	r3, .L111+48
 932 032c 0020A0E3 		mov	r2, #0
 933 0330 002083E5 		str	r2, [r3]
 379:F:/ARM_Project/W55FA92/N9H20/BSP/Driver/Source/SYS\wb_timer.c **** 			outpw(REG_TICR3, _mTicr);
 934              		.loc 1 379 0
 935 0334 B4309FE5 		ldr	r3, .L111+96
 936 0338 0510A0E1 		mov	r1, r5
 937 033c 000093E5 		ldr	r0, [r3]
 938 0340 FEFFFFEB 		bl	__aeabi_uidiv
 939              	.LVL53:
 380:F:/ARM_Project/W55FA92/N9H20/BSP/Driver/Source/SYS\wb_timer.c **** 			outpw(REG_TCSR3, (inpw(REG_TCSR3) & 0x87FFFF00) | ((nOpMode | 0xC)<<27));  //0xC means CEN and I
 940              		.loc 1 380 0
 941 0344 90309FE5 		ldr	r3, .L111+76
 942 0348 99FFFFEA 		b	.L110
 943              	.LVL54:
 944              	.L105:
 370:F:/ARM_Project/W55FA92/N9H20/BSP/Driver/Source/SYS\wb_timer.c **** 
 945              		.loc 1 370 0 discriminator 3
 946 034c 04209DE5 		ldr	r2, [sp, #4]
 947 0350 023281E7 		str	r3, [r1, r2, lsl #4]
 369:F:/ARM_Project/W55FA92/N9H20/BSP/Driver/Source/SYS\wb_timer.c **** 				tTime3Event[i].active = FALSE;
 948              		.loc 1 369 0 discriminator 3
 949 0354 04209DE5 		ldr	r2, [sp, #4]
 950 0358 012082E2 		add	r2, r2, #1
 951 035c 04208DE5 		str	r2, [sp, #4]
 952 0360 E2FFFFEA 		b	.L104
 953              	.LVL55:
 954              	.L97:
 384:F:/ARM_Project/W55FA92/N9H20/BSP/Driver/Source/SYS\wb_timer.c **** 			if( (inpw(REG_WTCR) & WTRF) == WTRF)
 955              		.loc 1 384 0
 956 0364 0B22A0E3 		mov	r2, #-1342177280
 957              	.LVL56:
 958 0368 083292E5 		ldr	r3, [r2, #520]
 959 036c 023983E3 		orr	r3, r3, #32768
 960 0370 083282E5 		str	r3, [r2, #520]
 385:F:/ARM_Project/W55FA92/N9H20/BSP/Driver/Source/SYS\wb_timer.c **** 				sysprintf("It is warm reset\n");
 961              		.loc 1 385 0
 962 0374 30309FE5 		ldr	r3, .L111+28
 963 0378 1C3093E5 		ldr	r3, [r3, #28]
 964 037c 040013E3 		tst	r3, #4
 386:F:/ARM_Project/W55FA92/N9H20/BSP/Driver/Source/SYS\wb_timer.c **** 			else
 965              		.loc 1 386 0
 966 0380 6C009F15 		ldrne	r0, .L111+100
 967              	.LVL57:
 388:F:/ARM_Project/W55FA92/N9H20/BSP/Driver/Source/SYS\wb_timer.c **** 			break;		
 968              		.loc 1 388 0
 969 0384 6C009F05 		ldreq	r0, .L111+104
 970 0388 FEFFFFEB 		bl	sysprintf
 971              	.LVL58:
 972 038c 55FFFFEA 		b	.L91
 973              	.L112:
 974              		.align	2
 975              	.L111:
 976 0390 00000000 		.word	.LANCHOR12
 977 0394 00000000 		.word	_sys_uTimer0TickPerSecond
 978 0398 00000000 		.word	tTime0Event
 979 039c 00000000 		.word	sysTimerISR
 980 03a0 00000000 		.word	_sys_pvOldTimer0Vect
 981 03a4 00000000 		.word	.LANCHOR0
 982 03a8 00000000 		.word	.LANCHOR8
 983 03ac 002000B8 		.word	-1207951360
 984 03b0 00000000 		.word	.LANCHOR13
 985 03b4 00000000 		.word	_sys_uTimer1TickPerSecond
 986 03b8 00000000 		.word	tTime1Event
 987 03bc 00000000 		.word	_sys_pvOldTimer1Vect
 988 03c0 00000000 		.word	.LANCHOR2
 989 03c4 00000000 		.word	.LANCHOR9
 990 03c8 00000000 		.word	.LANCHOR14
 991 03cc 00000000 		.word	_sys_uTimer2TickPerSecond
 992 03d0 00000000 		.word	tTime2Event
 993 03d4 00000000 		.word	.LANCHOR4
 994 03d8 00000000 		.word	.LANCHOR10
 995 03dc 006000B8 		.word	-1207934976
 996 03e0 00000000 		.word	.LANCHOR15
 997 03e4 00000000 		.word	_sys_uTimer3TickPerSecond
 998 03e8 00000000 		.word	tTime3Event
 999 03ec 00000000 		.word	_sys_pvOldTimer3Vect
 1000 03f0 00000000 		.word	.LANCHOR11
 1001 03f4 00000000 		.word	.LC0
 1002 03f8 12000000 		.word	.LC1
 1003              		.cfi_endproc
 1004              	.LFE14:
 1006              		.section	.text.sysStopTimer,"ax",%progbits
 1007              		.align	2
 1008              		.global	sysStopTimer
 1009              		.syntax unified
 1010              		.arm
 1011              		.fpu softvfp
 1013              	sysStopTimer:
 1014              	.LFB15:
 396:F:/ARM_Project/W55FA92/N9H20/BSP/Driver/Source/SYS\wb_timer.c **** 
 397:F:/ARM_Project/W55FA92/N9H20/BSP/Driver/Source/SYS\wb_timer.c **** INT32 sysStopTimer(INT32 nTimeNo)
 398:F:/ARM_Project/W55FA92/N9H20/BSP/Driver/Source/SYS\wb_timer.c **** {
 1015              		.loc 1 398 0
 1016              		.cfi_startproc
 1017              		@ args = 0, pretend = 0, frame = 0
 1018              		@ frame_needed = 0, uses_anonymous_args = 0
 1019              	.LVL59:
 1020 0000 10402DE9 		push	{r4, lr}
 1021              		.cfi_def_cfa_offset 8
 1022              		.cfi_offset 4, -8
 1023              		.cfi_offset 14, -4
 399:F:/ARM_Project/W55FA92/N9H20/BSP/Driver/Source/SYS\wb_timer.c **** 	switch (nTimeNo)
 1024              		.loc 1 399 0
 1025 0004 040050E3 		cmp	r0, #4
 1026 0008 00F19F97 		ldrls	pc, [pc, r0, asl #2]
 1027 000c 1A0000EA 		b	.L114
 1028              	.L116:
 1029 0010 24000000 		.word	.L115
 1030 0014 84000000 		.word	.L117
 1031 0018 DC000000 		.word	.L118
 1032 001c 34010000 		.word	.L119
 1033 0020 8C010000 		.word	.L120
 1034              	.L115:
 400:F:/ARM_Project/W55FA92/N9H20/BSP/Driver/Source/SYS\wb_timer.c **** 	{
 401:F:/ARM_Project/W55FA92/N9H20/BSP/Driver/Source/SYS\wb_timer.c **** 		case TIMER0:
 402:F:/ARM_Project/W55FA92/N9H20/BSP/Driver/Source/SYS\wb_timer.c **** 			_sys_bIsTimer0Initial = FALSE;
 1035              		.loc 1 402 0
 1036 0024 70319FE5 		ldr	r3, .L123
 1037 0028 0040A0E3 		mov	r4, #0
 1038 002c 0040C3E5 		strb	r4, [r3]
 403:F:/ARM_Project/W55FA92/N9H20/BSP/Driver/Source/SYS\wb_timer.c **** 			sysInstallISR(IRQ_LEVEL_1, IRQ_TMR0, _sys_pvOldTimer0Vect);
 1039              		.loc 1 403 0
 1040 0030 68319FE5 		ldr	r3, .L123+4
 1041 0034 0F10A0E3 		mov	r1, #15
 1042 0038 002093E5 		ldr	r2, [r3]
 1043 003c 0100A0E3 		mov	r0, #1
 1044              	.LVL60:
 1045 0040 FEFFFFEB 		bl	sysInstallISR
 1046              	.LVL61:
 404:F:/ARM_Project/W55FA92/N9H20/BSP/Driver/Source/SYS\wb_timer.c **** 			sysDisableInterrupt(IRQ_TMR0);
 1047              		.loc 1 404 0
 1048 0044 0F00A0E3 		mov	r0, #15
 1049 0048 FEFFFFEB 		bl	sysDisableInterrupt
 1050              	.LVL62:
 405:F:/ARM_Project/W55FA92/N9H20/BSP/Driver/Source/SYS\wb_timer.c **** 
 406:F:/ARM_Project/W55FA92/N9H20/BSP/Driver/Source/SYS\wb_timer.c **** 			outpw(REG_TICR0, 0);           /* disable timer */
 1051              		.loc 1 406 0
 1052 004c 50319FE5 		ldr	r3, .L123+8
 407:F:/ARM_Project/W55FA92/N9H20/BSP/Driver/Source/SYS\wb_timer.c **** 			outpw(REG_TISR, TIF0);           /* clear for safty */
 1053              		.loc 1 407 0
 1054 0050 0120A0E3 		mov	r2, #1
 406:F:/ARM_Project/W55FA92/N9H20/BSP/Driver/Source/SYS\wb_timer.c **** 			outpw(REG_TISR, TIF0);           /* clear for safty */
 1055              		.loc 1 406 0
 1056 0054 084083E5 		str	r4, [r3, #8]
 1057              		.loc 1 407 0
 1058 0058 182083E5 		str	r2, [r3, #24]
 408:F:/ARM_Project/W55FA92/N9H20/BSP/Driver/Source/SYS\wb_timer.c **** 
 409:F:/ARM_Project/W55FA92/N9H20/BSP/Driver/Source/SYS\wb_timer.c **** 			_sys_uTime0EventCount = 0;
 1059              		.loc 1 409 0
 1060 005c 44319FE5 		ldr	r3, .L123+12
 410:F:/ARM_Project/W55FA92/N9H20/BSP/Driver/Source/SYS\wb_timer.c **** 			_sys_bIsSetTime0Event = FALSE;
 411:F:/ARM_Project/W55FA92/N9H20/BSP/Driver/Source/SYS\wb_timer.c **** 			outp32(REG_APBCLK, inp32(REG_APBCLK) & ~TMR0_CKE);
 1061              		.loc 1 411 0
 1062 0060 0B22A0E3 		mov	r2, #-1342177280
 409:F:/ARM_Project/W55FA92/N9H20/BSP/Driver/Source/SYS\wb_timer.c **** 			_sys_bIsSetTime0Event = FALSE;
 1063              		.loc 1 409 0
 1064 0064 004083E5 		str	r4, [r3]
 410:F:/ARM_Project/W55FA92/N9H20/BSP/Driver/Source/SYS\wb_timer.c **** 			_sys_bIsSetTime0Event = FALSE;
 1065              		.loc 1 410 0
 1066 0068 3C319FE5 		ldr	r3, .L123+16
 1067 006c 0040C3E5 		strb	r4, [r3]
 1068              		.loc 1 411 0
 1069 0070 083292E5 		ldr	r3, [r2, #520]
 1070 0074 013CC3E3 		bic	r3, r3, #256
 1071              	.L122:
 412:F:/ARM_Project/W55FA92/N9H20/BSP/Driver/Source/SYS\wb_timer.c **** 			break;
 413:F:/ARM_Project/W55FA92/N9H20/BSP/Driver/Source/SYS\wb_timer.c **** 		case TIMER1:
 414:F:/ARM_Project/W55FA92/N9H20/BSP/Driver/Source/SYS\wb_timer.c **** 			_sys_bIsTimer1Initial = FALSE;
 415:F:/ARM_Project/W55FA92/N9H20/BSP/Driver/Source/SYS\wb_timer.c **** 			sysInstallISR(IRQ_LEVEL_1, IRQ_TMR1, _sys_pvOldTimer1Vect);
 416:F:/ARM_Project/W55FA92/N9H20/BSP/Driver/Source/SYS\wb_timer.c **** 			sysDisableInterrupt(IRQ_TMR1);
 417:F:/ARM_Project/W55FA92/N9H20/BSP/Driver/Source/SYS\wb_timer.c **** 
 418:F:/ARM_Project/W55FA92/N9H20/BSP/Driver/Source/SYS\wb_timer.c **** 			outpw(REG_TICR1, 0);           /* disable timer */
 419:F:/ARM_Project/W55FA92/N9H20/BSP/Driver/Source/SYS\wb_timer.c **** 			outpw(REG_TISR, TIF1);           /* clear for safty */
 420:F:/ARM_Project/W55FA92/N9H20/BSP/Driver/Source/SYS\wb_timer.c **** 
 421:F:/ARM_Project/W55FA92/N9H20/BSP/Driver/Source/SYS\wb_timer.c **** 			_sys_uTime1EventCount = 0;
 422:F:/ARM_Project/W55FA92/N9H20/BSP/Driver/Source/SYS\wb_timer.c **** 			_sys_bIsSetTime1Event = FALSE;
 423:F:/ARM_Project/W55FA92/N9H20/BSP/Driver/Source/SYS\wb_timer.c **** 			outp32(REG_APBCLK, inp32(REG_APBCLK) & ~TMR1_CKE);
 424:F:/ARM_Project/W55FA92/N9H20/BSP/Driver/Source/SYS\wb_timer.c **** 			break;
 425:F:/ARM_Project/W55FA92/N9H20/BSP/Driver/Source/SYS\wb_timer.c **** 		case TIMER2:
 426:F:/ARM_Project/W55FA92/N9H20/BSP/Driver/Source/SYS\wb_timer.c **** 			_sys_bIsTimer2Initial = FALSE;
 427:F:/ARM_Project/W55FA92/N9H20/BSP/Driver/Source/SYS\wb_timer.c **** 			sysInstallISR(IRQ_LEVEL_1, IRQ_TMR2, _sys_pvOldTimer2Vect);
 428:F:/ARM_Project/W55FA92/N9H20/BSP/Driver/Source/SYS\wb_timer.c **** 			sysDisableInterrupt(IRQ_TMR2);
 429:F:/ARM_Project/W55FA92/N9H20/BSP/Driver/Source/SYS\wb_timer.c **** 
 430:F:/ARM_Project/W55FA92/N9H20/BSP/Driver/Source/SYS\wb_timer.c **** 			outpw(REG_TICR2, 0);           /* disable timer */
 431:F:/ARM_Project/W55FA92/N9H20/BSP/Driver/Source/SYS\wb_timer.c **** 			outpw(REG_TISR2, TIF0);       /* clear for safty */
 432:F:/ARM_Project/W55FA92/N9H20/BSP/Driver/Source/SYS\wb_timer.c **** 
 433:F:/ARM_Project/W55FA92/N9H20/BSP/Driver/Source/SYS\wb_timer.c **** 			_sys_uTime2EventCount = 0;
 434:F:/ARM_Project/W55FA92/N9H20/BSP/Driver/Source/SYS\wb_timer.c **** 			_sys_bIsSetTime2Event = FALSE;
 435:F:/ARM_Project/W55FA92/N9H20/BSP/Driver/Source/SYS\wb_timer.c **** 			outp32(REG_APBCLK, inp32(REG_APBCLK) & ~TMR2_CKE);
 436:F:/ARM_Project/W55FA92/N9H20/BSP/Driver/Source/SYS\wb_timer.c **** 			break;	
 437:F:/ARM_Project/W55FA92/N9H20/BSP/Driver/Source/SYS\wb_timer.c **** 		case TIMER3:
 438:F:/ARM_Project/W55FA92/N9H20/BSP/Driver/Source/SYS\wb_timer.c **** 			_sys_bIsTimer3Initial = FALSE;
 439:F:/ARM_Project/W55FA92/N9H20/BSP/Driver/Source/SYS\wb_timer.c **** 			sysInstallISR(IRQ_LEVEL_1, IRQ_TMR3, _sys_pvOldTimer3Vect);
 440:F:/ARM_Project/W55FA92/N9H20/BSP/Driver/Source/SYS\wb_timer.c **** 			sysDisableInterrupt(IRQ_TMR3);
 441:F:/ARM_Project/W55FA92/N9H20/BSP/Driver/Source/SYS\wb_timer.c **** 
 442:F:/ARM_Project/W55FA92/N9H20/BSP/Driver/Source/SYS\wb_timer.c **** 			outpw(REG_TICR3, 0);           /* disable timer */
 443:F:/ARM_Project/W55FA92/N9H20/BSP/Driver/Source/SYS\wb_timer.c **** 			outpw(REG_TISR2, TIF1);       /* clear for safty */
 444:F:/ARM_Project/W55FA92/N9H20/BSP/Driver/Source/SYS\wb_timer.c **** 
 445:F:/ARM_Project/W55FA92/N9H20/BSP/Driver/Source/SYS\wb_timer.c **** 			_sys_uTime3EventCount = 0;
 446:F:/ARM_Project/W55FA92/N9H20/BSP/Driver/Source/SYS\wb_timer.c **** 			_sys_bIsSetTime3Event = FALSE;
 447:F:/ARM_Project/W55FA92/N9H20/BSP/Driver/Source/SYS\wb_timer.c **** 			outp32(REG_APBCLK, inp32(REG_APBCLK) & ~TMR3_CKE);
 448:F:/ARM_Project/W55FA92/N9H20/BSP/Driver/Source/SYS\wb_timer.c **** 			break;
 449:F:/ARM_Project/W55FA92/N9H20/BSP/Driver/Source/SYS\wb_timer.c **** 		case WDTIMER:
 450:F:/ARM_Project/W55FA92/N9H20/BSP/Driver/Source/SYS\wb_timer.c **** 			outp32(REG_APBCLK, inp32(REG_APBCLK) & ~WDCLK_CKE);	
 1072              		.loc 1 450 0
 1073 0078 083282E5 		str	r3, [r2, #520]
 1074              	.L114:
 451:F:/ARM_Project/W55FA92/N9H20/BSP/Driver/Source/SYS\wb_timer.c **** 			
 452:F:/ARM_Project/W55FA92/N9H20/BSP/Driver/Source/SYS\wb_timer.c **** 			break;			
 453:F:/ARM_Project/W55FA92/N9H20/BSP/Driver/Source/SYS\wb_timer.c **** 		default:
 454:F:/ARM_Project/W55FA92/N9H20/BSP/Driver/Source/SYS\wb_timer.c **** 			;
 455:F:/ARM_Project/W55FA92/N9H20/BSP/Driver/Source/SYS\wb_timer.c **** 	}
 456:F:/ARM_Project/W55FA92/N9H20/BSP/Driver/Source/SYS\wb_timer.c **** 	//   WB_SetLocalInterrupt(DISABLE_IRQ);
 457:F:/ARM_Project/W55FA92/N9H20/BSP/Driver/Source/SYS\wb_timer.c **** 	return Successful;
 458:F:/ARM_Project/W55FA92/N9H20/BSP/Driver/Source/SYS\wb_timer.c **** }
 1075              		.loc 1 458 0
 1076 007c 0000A0E3 		mov	r0, #0
 1077 0080 1080BDE8 		pop	{r4, pc}
 1078              	.LVL63:
 1079              	.L117:
 414:F:/ARM_Project/W55FA92/N9H20/BSP/Driver/Source/SYS\wb_timer.c **** 			sysInstallISR(IRQ_LEVEL_1, IRQ_TMR1, _sys_pvOldTimer1Vect);
 1080              		.loc 1 414 0
 1081 0084 24319FE5 		ldr	r3, .L123+20
 1082 0088 0040A0E3 		mov	r4, #0
 1083 008c 0040C3E5 		strb	r4, [r3]
 415:F:/ARM_Project/W55FA92/N9H20/BSP/Driver/Source/SYS\wb_timer.c **** 			sysDisableInterrupt(IRQ_TMR1);
 1084              		.loc 1 415 0
 1085 0090 1C319FE5 		ldr	r3, .L123+24
 1086 0094 1010A0E3 		mov	r1, #16
 1087 0098 002093E5 		ldr	r2, [r3]
 1088 009c 0100A0E3 		mov	r0, #1
 1089              	.LVL64:
 1090 00a0 FEFFFFEB 		bl	sysInstallISR
 1091              	.LVL65:
 416:F:/ARM_Project/W55FA92/N9H20/BSP/Driver/Source/SYS\wb_timer.c **** 
 1092              		.loc 1 416 0
 1093 00a4 1000A0E3 		mov	r0, #16
 1094 00a8 FEFFFFEB 		bl	sysDisableInterrupt
 1095              	.LVL66:
 418:F:/ARM_Project/W55FA92/N9H20/BSP/Driver/Source/SYS\wb_timer.c **** 			outpw(REG_TISR, TIF1);           /* clear for safty */
 1096              		.loc 1 418 0
 1097 00ac F0309FE5 		ldr	r3, .L123+8
 419:F:/ARM_Project/W55FA92/N9H20/BSP/Driver/Source/SYS\wb_timer.c **** 
 1098              		.loc 1 419 0
 1099 00b0 0220A0E3 		mov	r2, #2
 418:F:/ARM_Project/W55FA92/N9H20/BSP/Driver/Source/SYS\wb_timer.c **** 			outpw(REG_TISR, TIF1);           /* clear for safty */
 1100              		.loc 1 418 0
 1101 00b4 0C4083E5 		str	r4, [r3, #12]
 419:F:/ARM_Project/W55FA92/N9H20/BSP/Driver/Source/SYS\wb_timer.c **** 
 1102              		.loc 1 419 0
 1103 00b8 182083E5 		str	r2, [r3, #24]
 421:F:/ARM_Project/W55FA92/N9H20/BSP/Driver/Source/SYS\wb_timer.c **** 			_sys_bIsSetTime1Event = FALSE;
 1104              		.loc 1 421 0
 1105 00bc F4309FE5 		ldr	r3, .L123+28
 423:F:/ARM_Project/W55FA92/N9H20/BSP/Driver/Source/SYS\wb_timer.c **** 			break;
 1106              		.loc 1 423 0
 1107 00c0 0B22A0E3 		mov	r2, #-1342177280
 421:F:/ARM_Project/W55FA92/N9H20/BSP/Driver/Source/SYS\wb_timer.c **** 			_sys_bIsSetTime1Event = FALSE;
 1108              		.loc 1 421 0
 1109 00c4 004083E5 		str	r4, [r3]
 422:F:/ARM_Project/W55FA92/N9H20/BSP/Driver/Source/SYS\wb_timer.c **** 			outp32(REG_APBCLK, inp32(REG_APBCLK) & ~TMR1_CKE);
 1110              		.loc 1 422 0
 1111 00c8 EC309FE5 		ldr	r3, .L123+32
 1112 00cc 0040C3E5 		strb	r4, [r3]
 423:F:/ARM_Project/W55FA92/N9H20/BSP/Driver/Source/SYS\wb_timer.c **** 			break;
 1113              		.loc 1 423 0
 1114 00d0 083292E5 		ldr	r3, [r2, #520]
 1115 00d4 023CC3E3 		bic	r3, r3, #512
 1116 00d8 E6FFFFEA 		b	.L122
 1117              	.LVL67:
 1118              	.L118:
 426:F:/ARM_Project/W55FA92/N9H20/BSP/Driver/Source/SYS\wb_timer.c **** 			sysInstallISR(IRQ_LEVEL_1, IRQ_TMR2, _sys_pvOldTimer2Vect);
 1119              		.loc 1 426 0
 1120 00dc DC309FE5 		ldr	r3, .L123+36
 1121 00e0 0040A0E3 		mov	r4, #0
 1122 00e4 0040C3E5 		strb	r4, [r3]
 427:F:/ARM_Project/W55FA92/N9H20/BSP/Driver/Source/SYS\wb_timer.c **** 			sysDisableInterrupt(IRQ_TMR2);
 1123              		.loc 1 427 0
 1124 00e8 D4309FE5 		ldr	r3, .L123+40
 1125 00ec 2E10A0E3 		mov	r1, #46
 1126 00f0 002093E5 		ldr	r2, [r3]
 1127 00f4 0100A0E3 		mov	r0, #1
 1128              	.LVL68:
 1129 00f8 FEFFFFEB 		bl	sysInstallISR
 1130              	.LVL69:
 428:F:/ARM_Project/W55FA92/N9H20/BSP/Driver/Source/SYS\wb_timer.c **** 
 1131              		.loc 1 428 0
 1132 00fc 2E00A0E3 		mov	r0, #46
 1133 0100 FEFFFFEB 		bl	sysDisableInterrupt
 1134              	.LVL70:
 430:F:/ARM_Project/W55FA92/N9H20/BSP/Driver/Source/SYS\wb_timer.c **** 			outpw(REG_TISR2, TIF0);       /* clear for safty */
 1135              		.loc 1 430 0
 1136 0104 BC309FE5 		ldr	r3, .L123+44
 431:F:/ARM_Project/W55FA92/N9H20/BSP/Driver/Source/SYS\wb_timer.c **** 
 1137              		.loc 1 431 0
 1138 0108 0120A0E3 		mov	r2, #1
 430:F:/ARM_Project/W55FA92/N9H20/BSP/Driver/Source/SYS\wb_timer.c **** 			outpw(REG_TISR2, TIF0);       /* clear for safty */
 1139              		.loc 1 430 0
 1140 010c 084083E5 		str	r4, [r3, #8]
 431:F:/ARM_Project/W55FA92/N9H20/BSP/Driver/Source/SYS\wb_timer.c **** 
 1141              		.loc 1 431 0
 1142 0110 182083E5 		str	r2, [r3, #24]
 433:F:/ARM_Project/W55FA92/N9H20/BSP/Driver/Source/SYS\wb_timer.c **** 			_sys_bIsSetTime2Event = FALSE;
 1143              		.loc 1 433 0
 1144 0114 B0309FE5 		ldr	r3, .L123+48
 435:F:/ARM_Project/W55FA92/N9H20/BSP/Driver/Source/SYS\wb_timer.c **** 			break;	
 1145              		.loc 1 435 0
 1146 0118 0B22A0E3 		mov	r2, #-1342177280
 433:F:/ARM_Project/W55FA92/N9H20/BSP/Driver/Source/SYS\wb_timer.c **** 			_sys_bIsSetTime2Event = FALSE;
 1147              		.loc 1 433 0
 1148 011c 004083E5 		str	r4, [r3]
 434:F:/ARM_Project/W55FA92/N9H20/BSP/Driver/Source/SYS\wb_timer.c **** 			outp32(REG_APBCLK, inp32(REG_APBCLK) & ~TMR2_CKE);
 1149              		.loc 1 434 0
 1150 0120 A8309FE5 		ldr	r3, .L123+52
 1151 0124 0040C3E5 		strb	r4, [r3]
 435:F:/ARM_Project/W55FA92/N9H20/BSP/Driver/Source/SYS\wb_timer.c **** 			break;	
 1152              		.loc 1 435 0
 1153 0128 083292E5 		ldr	r3, [r2, #520]
 1154 012c 0138C3E3 		bic	r3, r3, #65536
 1155 0130 D0FFFFEA 		b	.L122
 1156              	.LVL71:
 1157              	.L119:
 438:F:/ARM_Project/W55FA92/N9H20/BSP/Driver/Source/SYS\wb_timer.c **** 			sysInstallISR(IRQ_LEVEL_1, IRQ_TMR3, _sys_pvOldTimer3Vect);
 1158              		.loc 1 438 0
 1159 0134 98309FE5 		ldr	r3, .L123+56
 1160 0138 0040A0E3 		mov	r4, #0
 1161 013c 0040C3E5 		strb	r4, [r3]
 439:F:/ARM_Project/W55FA92/N9H20/BSP/Driver/Source/SYS\wb_timer.c **** 			sysDisableInterrupt(IRQ_TMR3);
 1162              		.loc 1 439 0
 1163 0140 90309FE5 		ldr	r3, .L123+60
 1164 0144 2F10A0E3 		mov	r1, #47
 1165 0148 002093E5 		ldr	r2, [r3]
 1166 014c 0100A0E3 		mov	r0, #1
 1167              	.LVL72:
 1168 0150 FEFFFFEB 		bl	sysInstallISR
 1169              	.LVL73:
 440:F:/ARM_Project/W55FA92/N9H20/BSP/Driver/Source/SYS\wb_timer.c **** 
 1170              		.loc 1 440 0
 1171 0154 2F00A0E3 		mov	r0, #47
 1172 0158 FEFFFFEB 		bl	sysDisableInterrupt
 1173              	.LVL74:
 442:F:/ARM_Project/W55FA92/N9H20/BSP/Driver/Source/SYS\wb_timer.c **** 			outpw(REG_TISR2, TIF1);       /* clear for safty */
 1174              		.loc 1 442 0
 1175 015c 64309FE5 		ldr	r3, .L123+44
 443:F:/ARM_Project/W55FA92/N9H20/BSP/Driver/Source/SYS\wb_timer.c **** 
 1176              		.loc 1 443 0
 1177 0160 0220A0E3 		mov	r2, #2
 442:F:/ARM_Project/W55FA92/N9H20/BSP/Driver/Source/SYS\wb_timer.c **** 			outpw(REG_TISR2, TIF1);       /* clear for safty */
 1178              		.loc 1 442 0
 1179 0164 0C4083E5 		str	r4, [r3, #12]
 443:F:/ARM_Project/W55FA92/N9H20/BSP/Driver/Source/SYS\wb_timer.c **** 
 1180              		.loc 1 443 0
 1181 0168 182083E5 		str	r2, [r3, #24]
 445:F:/ARM_Project/W55FA92/N9H20/BSP/Driver/Source/SYS\wb_timer.c **** 			_sys_bIsSetTime3Event = FALSE;
 1182              		.loc 1 445 0
 1183 016c 68309FE5 		ldr	r3, .L123+64
 447:F:/ARM_Project/W55FA92/N9H20/BSP/Driver/Source/SYS\wb_timer.c **** 			break;
 1184              		.loc 1 447 0
 1185 0170 0B22A0E3 		mov	r2, #-1342177280
 445:F:/ARM_Project/W55FA92/N9H20/BSP/Driver/Source/SYS\wb_timer.c **** 			_sys_bIsSetTime3Event = FALSE;
 1186              		.loc 1 445 0
 1187 0174 004083E5 		str	r4, [r3]
 446:F:/ARM_Project/W55FA92/N9H20/BSP/Driver/Source/SYS\wb_timer.c **** 			outp32(REG_APBCLK, inp32(REG_APBCLK) & ~TMR3_CKE);
 1188              		.loc 1 446 0
 1189 0178 60309FE5 		ldr	r3, .L123+68
 1190 017c 0040C3E5 		strb	r4, [r3]
 447:F:/ARM_Project/W55FA92/N9H20/BSP/Driver/Source/SYS\wb_timer.c **** 			break;
 1191              		.loc 1 447 0
 1192 0180 083292E5 		ldr	r3, [r2, #520]
 1193 0184 0238C3E3 		bic	r3, r3, #131072
 1194 0188 BAFFFFEA 		b	.L122
 1195              	.LVL75:
 1196              	.L120:
 450:F:/ARM_Project/W55FA92/N9H20/BSP/Driver/Source/SYS\wb_timer.c **** 			
 1197              		.loc 1 450 0
 1198 018c 0B22A0E3 		mov	r2, #-1342177280
 1199 0190 083292E5 		ldr	r3, [r2, #520]
 1200 0194 0239C3E3 		bic	r3, r3, #32768
 1201 0198 B6FFFFEA 		b	.L122
 1202              	.L124:
 1203              		.align	2
 1204              	.L123:
 1205 019c 00000000 		.word	.LANCHOR12
 1206 01a0 00000000 		.word	_sys_pvOldTimer0Vect
 1207 01a4 002000B8 		.word	-1207951360
 1208 01a8 00000000 		.word	.LANCHOR16
 1209 01ac 00000000 		.word	.LANCHOR1
 1210 01b0 00000000 		.word	.LANCHOR13
 1211 01b4 00000000 		.word	_sys_pvOldTimer1Vect
 1212 01b8 00000000 		.word	.LANCHOR17
 1213 01bc 00000000 		.word	.LANCHOR3
 1214 01c0 00000000 		.word	.LANCHOR14
 1215 01c4 00000000 		.word	_sys_pvOldTimer2Vect
 1216 01c8 006000B8 		.word	-1207934976
 1217 01cc 00000000 		.word	.LANCHOR18
 1218 01d0 00000000 		.word	.LANCHOR5
 1219 01d4 00000000 		.word	.LANCHOR15
 1220 01d8 00000000 		.word	_sys_pvOldTimer3Vect
 1221 01dc 00000000 		.word	.LANCHOR19
 1222 01e0 00000000 		.word	.LANCHOR7
 1223              		.cfi_endproc
 1224              	.LFE15:
 1226              		.section	.text.sysClearWatchDogTimerCount,"ax",%progbits
 1227              		.align	2
 1228              		.global	sysClearWatchDogTimerCount
 1229              		.syntax unified
 1230              		.arm
 1231              		.fpu softvfp
 1233              	sysClearWatchDogTimerCount:
 1234              	.LFB16:
 459:F:/ARM_Project/W55FA92/N9H20/BSP/Driver/Source/SYS\wb_timer.c **** 
 460:F:/ARM_Project/W55FA92/N9H20/BSP/Driver/Source/SYS\wb_timer.c **** VOID sysClearWatchDogTimerCount()
 461:F:/ARM_Project/W55FA92/N9H20/BSP/Driver/Source/SYS\wb_timer.c **** {
 1235              		.loc 1 461 0
 1236              		.cfi_startproc
 1237              		@ args = 0, pretend = 0, frame = 8
 1238              		@ frame_needed = 0, uses_anonymous_args = 0
 1239              		@ link register save eliminated.
 462:F:/ARM_Project/W55FA92/N9H20/BSP/Driver/Source/SYS\wb_timer.c **** 	UINT32 volatile _mWtcr;
 463:F:/ARM_Project/W55FA92/N9H20/BSP/Driver/Source/SYS\wb_timer.c **** 
 464:F:/ARM_Project/W55FA92/N9H20/BSP/Driver/Source/SYS\wb_timer.c **** 	_mWtcr = inpw(REG_WTCR) | WTR;  /* write WTR */
 1240              		.loc 1 464 0
 1241 0000 1C209FE5 		ldr	r2, .L127
 461:F:/ARM_Project/W55FA92/N9H20/BSP/Driver/Source/SYS\wb_timer.c **** 	UINT32 volatile _mWtcr;
 1242              		.loc 1 461 0
 1243 0004 08D04DE2 		sub	sp, sp, #8
 1244              		.cfi_def_cfa_offset 8
 1245              		.loc 1 464 0
 1246 0008 1C3092E5 		ldr	r3, [r2, #28]
 1247 000c 013083E3 		orr	r3, r3, #1
 1248 0010 04308DE5 		str	r3, [sp, #4]
 465:F:/ARM_Project/W55FA92/N9H20/BSP/Driver/Source/SYS\wb_timer.c **** 	outpw(REG_WTCR, _mWtcr);
 1249              		.loc 1 465 0
 1250 0014 04309DE5 		ldr	r3, [sp, #4]
 1251 0018 1C3082E5 		str	r3, [r2, #28]
 466:F:/ARM_Project/W55FA92/N9H20/BSP/Driver/Source/SYS\wb_timer.c **** }
 1252              		.loc 1 466 0
 1253 001c 08D08DE2 		add	sp, sp, #8
 1254              		.cfi_def_cfa_offset 0
 1255              		@ sp needed
 1256 0020 1EFF2FE1 		bx	lr
 1257              	.L128:
 1258              		.align	2
 1259              	.L127:
 1260 0024 002000B8 		.word	-1207951360
 1261              		.cfi_endproc
 1262              	.LFE16:
 1264              		.section	.text.sysClearWatchDogTimerInterruptStatus,"ax",%progbits
 1265              		.align	2
 1266              		.global	sysClearWatchDogTimerInterruptStatus
 1267              		.syntax unified
 1268              		.arm
 1269              		.fpu softvfp
 1271              	sysClearWatchDogTimerInterruptStatus:
 1272              	.LFB17:
 467:F:/ARM_Project/W55FA92/N9H20/BSP/Driver/Source/SYS\wb_timer.c **** 
 468:F:/ARM_Project/W55FA92/N9H20/BSP/Driver/Source/SYS\wb_timer.c **** VOID sysClearWatchDogTimerInterruptStatus()
 469:F:/ARM_Project/W55FA92/N9H20/BSP/Driver/Source/SYS\wb_timer.c **** {
 1273              		.loc 1 469 0
 1274              		.cfi_startproc
 1275              		@ args = 0, pretend = 0, frame = 8
 1276              		@ frame_needed = 0, uses_anonymous_args = 0
 1277              		@ link register save eliminated.
 470:F:/ARM_Project/W55FA92/N9H20/BSP/Driver/Source/SYS\wb_timer.c **** 	UINT32 volatile _mWtcr;
 471:F:/ARM_Project/W55FA92/N9H20/BSP/Driver/Source/SYS\wb_timer.c **** 
 472:F:/ARM_Project/W55FA92/N9H20/BSP/Driver/Source/SYS\wb_timer.c **** 	_mWtcr = inpw(REG_WTCR) | WTIF;
 1278              		.loc 1 472 0
 1279 0000 1C209FE5 		ldr	r2, .L131
 469:F:/ARM_Project/W55FA92/N9H20/BSP/Driver/Source/SYS\wb_timer.c **** 	UINT32 volatile _mWtcr;
 1280              		.loc 1 469 0
 1281 0004 08D04DE2 		sub	sp, sp, #8
 1282              		.cfi_def_cfa_offset 8
 1283              		.loc 1 472 0
 1284 0008 1C3092E5 		ldr	r3, [r2, #28]
 1285 000c 083083E3 		orr	r3, r3, #8
 1286 0010 04308DE5 		str	r3, [sp, #4]
 473:F:/ARM_Project/W55FA92/N9H20/BSP/Driver/Source/SYS\wb_timer.c **** 	outpw(REG_WTCR, _mWtcr);
 1287              		.loc 1 473 0
 1288 0014 04309DE5 		ldr	r3, [sp, #4]
 1289 0018 1C3082E5 		str	r3, [r2, #28]
 474:F:/ARM_Project/W55FA92/N9H20/BSP/Driver/Source/SYS\wb_timer.c **** }
 1290              		.loc 1 474 0
 1291 001c 08D08DE2 		add	sp, sp, #8
 1292              		.cfi_def_cfa_offset 0
 1293              		@ sp needed
 1294 0020 1EFF2FE1 		bx	lr
 1295              	.L132:
 1296              		.align	2
 1297              	.L131:
 1298 0024 002000B8 		.word	-1207951360
 1299              		.cfi_endproc
 1300              	.LFE17:
 1302              		.section	.text.sysDisableWatchDogTimer,"ax",%progbits
 1303              		.align	2
 1304              		.global	sysDisableWatchDogTimer
 1305              		.syntax unified
 1306              		.arm
 1307              		.fpu softvfp
 1309              	sysDisableWatchDogTimer:
 1310              	.LFB18:
 475:F:/ARM_Project/W55FA92/N9H20/BSP/Driver/Source/SYS\wb_timer.c **** 
 476:F:/ARM_Project/W55FA92/N9H20/BSP/Driver/Source/SYS\wb_timer.c **** VOID sysDisableWatchDogTimer()
 477:F:/ARM_Project/W55FA92/N9H20/BSP/Driver/Source/SYS\wb_timer.c **** {
 1311              		.loc 1 477 0
 1312              		.cfi_startproc
 1313              		@ args = 0, pretend = 0, frame = 8
 1314              		@ frame_needed = 0, uses_anonymous_args = 0
 1315              		@ link register save eliminated.
 478:F:/ARM_Project/W55FA92/N9H20/BSP/Driver/Source/SYS\wb_timer.c **** 	UINT32 volatile _mWtcr;
 479:F:/ARM_Project/W55FA92/N9H20/BSP/Driver/Source/SYS\wb_timer.c **** 
 480:F:/ARM_Project/W55FA92/N9H20/BSP/Driver/Source/SYS\wb_timer.c **** 	_mWtcr = inpw(REG_WTCR) & ~WTE;
 1316              		.loc 1 480 0
 1317 0000 1C209FE5 		ldr	r2, .L135
 477:F:/ARM_Project/W55FA92/N9H20/BSP/Driver/Source/SYS\wb_timer.c **** 	UINT32 volatile _mWtcr;
 1318              		.loc 1 477 0
 1319 0004 08D04DE2 		sub	sp, sp, #8
 1320              		.cfi_def_cfa_offset 8
 1321              		.loc 1 480 0
 1322 0008 1C3092E5 		ldr	r3, [r2, #28]
 1323 000c 8030C3E3 		bic	r3, r3, #128
 1324 0010 04308DE5 		str	r3, [sp, #4]
 481:F:/ARM_Project/W55FA92/N9H20/BSP/Driver/Source/SYS\wb_timer.c **** 	outpw(REG_WTCR, _mWtcr);
 1325              		.loc 1 481 0
 1326 0014 04309DE5 		ldr	r3, [sp, #4]
 1327 0018 1C3082E5 		str	r3, [r2, #28]
 482:F:/ARM_Project/W55FA92/N9H20/BSP/Driver/Source/SYS\wb_timer.c **** }
 1328              		.loc 1 482 0
 1329 001c 08D08DE2 		add	sp, sp, #8
 1330              		.cfi_def_cfa_offset 0
 1331              		@ sp needed
 1332 0020 1EFF2FE1 		bx	lr
 1333              	.L136:
 1334              		.align	2
 1335              	.L135:
 1336 0024 002000B8 		.word	-1207951360
 1337              		.cfi_endproc
 1338              	.LFE18:
 1340              		.section	.text.sysDisableWatchDogTimerReset,"ax",%progbits
 1341              		.align	2
 1342              		.global	sysDisableWatchDogTimerReset
 1343              		.syntax unified
 1344              		.arm
 1345              		.fpu softvfp
 1347              	sysDisableWatchDogTimerReset:
 1348              	.LFB19:
 483:F:/ARM_Project/W55FA92/N9H20/BSP/Driver/Source/SYS\wb_timer.c **** 
 484:F:/ARM_Project/W55FA92/N9H20/BSP/Driver/Source/SYS\wb_timer.c **** VOID sysDisableWatchDogTimerReset()
 485:F:/ARM_Project/W55FA92/N9H20/BSP/Driver/Source/SYS\wb_timer.c **** {
 1349              		.loc 1 485 0
 1350              		.cfi_startproc
 1351              		@ args = 0, pretend = 0, frame = 8
 1352              		@ frame_needed = 0, uses_anonymous_args = 0
 1353              		@ link register save eliminated.
 486:F:/ARM_Project/W55FA92/N9H20/BSP/Driver/Source/SYS\wb_timer.c **** 	UINT32 volatile _mWtcr;
 487:F:/ARM_Project/W55FA92/N9H20/BSP/Driver/Source/SYS\wb_timer.c **** 
 488:F:/ARM_Project/W55FA92/N9H20/BSP/Driver/Source/SYS\wb_timer.c **** 	_mWtcr = inpw(REG_WTCR) & ~WTRE;
 1354              		.loc 1 488 0
 1355 0000 1C209FE5 		ldr	r2, .L139
 485:F:/ARM_Project/W55FA92/N9H20/BSP/Driver/Source/SYS\wb_timer.c **** 	UINT32 volatile _mWtcr;
 1356              		.loc 1 485 0
 1357 0004 08D04DE2 		sub	sp, sp, #8
 1358              		.cfi_def_cfa_offset 8
 1359              		.loc 1 488 0
 1360 0008 1C3092E5 		ldr	r3, [r2, #28]
 1361 000c 0230C3E3 		bic	r3, r3, #2
 1362 0010 04308DE5 		str	r3, [sp, #4]
 489:F:/ARM_Project/W55FA92/N9H20/BSP/Driver/Source/SYS\wb_timer.c **** 	outpw(REG_WTCR, _mWtcr);
 1363              		.loc 1 489 0
 1364 0014 04309DE5 		ldr	r3, [sp, #4]
 1365 0018 1C3082E5 		str	r3, [r2, #28]
 490:F:/ARM_Project/W55FA92/N9H20/BSP/Driver/Source/SYS\wb_timer.c **** }
 1366              		.loc 1 490 0
 1367 001c 08D08DE2 		add	sp, sp, #8
 1368              		.cfi_def_cfa_offset 0
 1369              		@ sp needed
 1370 0020 1EFF2FE1 		bx	lr
 1371              	.L140:
 1372              		.align	2
 1373              	.L139:
 1374 0024 002000B8 		.word	-1207951360
 1375              		.cfi_endproc
 1376              	.LFE19:
 1378              		.section	.text.sysEnableWatchDogTimer,"ax",%progbits
 1379              		.align	2
 1380              		.global	sysEnableWatchDogTimer
 1381              		.syntax unified
 1382              		.arm
 1383              		.fpu softvfp
 1385              	sysEnableWatchDogTimer:
 1386              	.LFB20:
 491:F:/ARM_Project/W55FA92/N9H20/BSP/Driver/Source/SYS\wb_timer.c **** VOID sysEnableWatchDogTimer()
 492:F:/ARM_Project/W55FA92/N9H20/BSP/Driver/Source/SYS\wb_timer.c **** {
 1387              		.loc 1 492 0
 1388              		.cfi_startproc
 1389              		@ args = 0, pretend = 0, frame = 8
 1390              		@ frame_needed = 0, uses_anonymous_args = 0
 1391              		@ link register save eliminated.
 493:F:/ARM_Project/W55FA92/N9H20/BSP/Driver/Source/SYS\wb_timer.c **** 	UINT32 volatile _mWtcr;
 494:F:/ARM_Project/W55FA92/N9H20/BSP/Driver/Source/SYS\wb_timer.c **** 	_mWtcr = inpw(REG_WTCR) | WTE;
 1392              		.loc 1 494 0
 1393 0000 1C209FE5 		ldr	r2, .L143
 492:F:/ARM_Project/W55FA92/N9H20/BSP/Driver/Source/SYS\wb_timer.c **** 	UINT32 volatile _mWtcr;
 1394              		.loc 1 492 0
 1395 0004 08D04DE2 		sub	sp, sp, #8
 1396              		.cfi_def_cfa_offset 8
 1397              		.loc 1 494 0
 1398 0008 1C3092E5 		ldr	r3, [r2, #28]
 1399 000c 803083E3 		orr	r3, r3, #128
 1400 0010 04308DE5 		str	r3, [sp, #4]
 495:F:/ARM_Project/W55FA92/N9H20/BSP/Driver/Source/SYS\wb_timer.c **** 	outpw(REG_WTCR, _mWtcr);
 1401              		.loc 1 495 0
 1402 0014 04309DE5 		ldr	r3, [sp, #4]
 1403 0018 1C3082E5 		str	r3, [r2, #28]
 496:F:/ARM_Project/W55FA92/N9H20/BSP/Driver/Source/SYS\wb_timer.c **** }
 1404              		.loc 1 496 0
 1405 001c 08D08DE2 		add	sp, sp, #8
 1406              		.cfi_def_cfa_offset 0
 1407              		@ sp needed
 1408 0020 1EFF2FE1 		bx	lr
 1409              	.L144:
 1410              		.align	2
 1411              	.L143:
 1412 0024 002000B8 		.word	-1207951360
 1413              		.cfi_endproc
 1414              	.LFE20:
 1416              		.section	.text.sysEnableWatchDogTimerReset,"ax",%progbits
 1417              		.align	2
 1418              		.global	sysEnableWatchDogTimerReset
 1419              		.syntax unified
 1420              		.arm
 1421              		.fpu softvfp
 1423              	sysEnableWatchDogTimerReset:
 1424              	.LFB21:
 497:F:/ARM_Project/W55FA92/N9H20/BSP/Driver/Source/SYS\wb_timer.c **** 
 498:F:/ARM_Project/W55FA92/N9H20/BSP/Driver/Source/SYS\wb_timer.c **** VOID sysEnableWatchDogTimerReset()
 499:F:/ARM_Project/W55FA92/N9H20/BSP/Driver/Source/SYS\wb_timer.c **** {
 1425              		.loc 1 499 0
 1426              		.cfi_startproc
 1427              		@ args = 0, pretend = 0, frame = 8
 1428              		@ frame_needed = 0, uses_anonymous_args = 0
 1429              		@ link register save eliminated.
 500:F:/ARM_Project/W55FA92/N9H20/BSP/Driver/Source/SYS\wb_timer.c **** 	UINT32 volatile _mWtcr;
 501:F:/ARM_Project/W55FA92/N9H20/BSP/Driver/Source/SYS\wb_timer.c **** 	_mWtcr = inpw(REG_WTCR) | WTRE;
 1430              		.loc 1 501 0
 1431 0000 1C209FE5 		ldr	r2, .L147
 499:F:/ARM_Project/W55FA92/N9H20/BSP/Driver/Source/SYS\wb_timer.c **** 	UINT32 volatile _mWtcr;
 1432              		.loc 1 499 0
 1433 0004 08D04DE2 		sub	sp, sp, #8
 1434              		.cfi_def_cfa_offset 8
 1435              		.loc 1 501 0
 1436 0008 1C3092E5 		ldr	r3, [r2, #28]
 1437 000c 023083E3 		orr	r3, r3, #2
 1438 0010 04308DE5 		str	r3, [sp, #4]
 502:F:/ARM_Project/W55FA92/N9H20/BSP/Driver/Source/SYS\wb_timer.c **** 	outpw(REG_WTCR, _mWtcr);
 1439              		.loc 1 502 0
 1440 0014 04309DE5 		ldr	r3, [sp, #4]
 1441 0018 1C3082E5 		str	r3, [r2, #28]
 503:F:/ARM_Project/W55FA92/N9H20/BSP/Driver/Source/SYS\wb_timer.c **** }
 1442              		.loc 1 503 0
 1443 001c 08D08DE2 		add	sp, sp, #8
 1444              		.cfi_def_cfa_offset 0
 1445              		@ sp needed
 1446 0020 1EFF2FE1 		bx	lr
 1447              	.L148:
 1448              		.align	2
 1449              	.L147:
 1450 0024 002000B8 		.word	-1207951360
 1451              		.cfi_endproc
 1452              	.LFE21:
 1454              		.section	.text.sysInstallWatchDogTimerISR,"ax",%progbits
 1455              		.align	2
 1456              		.global	sysInstallWatchDogTimerISR
 1457              		.syntax unified
 1458              		.arm
 1459              		.fpu softvfp
 1461              	sysInstallWatchDogTimerISR:
 1462              	.LFB22:
 504:F:/ARM_Project/W55FA92/N9H20/BSP/Driver/Source/SYS\wb_timer.c **** 
 505:F:/ARM_Project/W55FA92/N9H20/BSP/Driver/Source/SYS\wb_timer.c **** 
 506:F:/ARM_Project/W55FA92/N9H20/BSP/Driver/Source/SYS\wb_timer.c **** PVOID sysInstallWatchDogTimerISR(INT32 nIntTypeLevel, PVOID pvNewISR)
 507:F:/ARM_Project/W55FA92/N9H20/BSP/Driver/Source/SYS\wb_timer.c **** {
 1463              		.loc 1 507 0
 1464              		.cfi_startproc
 1465              		@ args = 0, pretend = 0, frame = 8
 1466              		@ frame_needed = 0, uses_anonymous_args = 0
 1467              	.LVL76:
 508:F:/ARM_Project/W55FA92/N9H20/BSP/Driver/Source/SYS\wb_timer.c **** 	PVOID _mOldVect;
 509:F:/ARM_Project/W55FA92/N9H20/BSP/Driver/Source/SYS\wb_timer.c **** 	UINT32 volatile _mWtcr;
 510:F:/ARM_Project/W55FA92/N9H20/BSP/Driver/Source/SYS\wb_timer.c **** 	
 511:F:/ARM_Project/W55FA92/N9H20/BSP/Driver/Source/SYS\wb_timer.c **** 	_mWtcr = inpw(REG_WTCR);
 1468              		.loc 1 511 0
 1469 0000 48209FE5 		ldr	r2, .L151
 507:F:/ARM_Project/W55FA92/N9H20/BSP/Driver/Source/SYS\wb_timer.c **** 	PVOID _mOldVect;
 1470              		.loc 1 507 0
 1471 0004 13402DE9 		push	{r0, r1, r4, lr}
 1472              		.cfi_def_cfa_offset 16
 1473              		.cfi_offset 4, -8
 1474              		.cfi_offset 14, -4
 1475              		.loc 1 511 0
 1476 0008 1C3092E5 		ldr	r3, [r2, #28]
 1477 000c 04308DE5 		str	r3, [sp, #4]
 512:F:/ARM_Project/W55FA92/N9H20/BSP/Driver/Source/SYS\wb_timer.c **** 	_mWtcr |= 0x40;
 1478              		.loc 1 512 0
 1479 0010 04309DE5 		ldr	r3, [sp, #4]
 1480 0014 403083E3 		orr	r3, r3, #64
 1481 0018 04308DE5 		str	r3, [sp, #4]
 513:F:/ARM_Project/W55FA92/N9H20/BSP/Driver/Source/SYS\wb_timer.c **** 	outpw(REG_WTCR, _mWtcr);
 1482              		.loc 1 513 0
 1483 001c 04309DE5 		ldr	r3, [sp, #4]
 1484 0020 1C3082E5 		str	r3, [r2, #28]
 514:F:/ARM_Project/W55FA92/N9H20/BSP/Driver/Source/SYS\wb_timer.c **** 	_mOldVect = sysInstallISR(nIntTypeLevel, IRQ_WDT, pvNewISR);
 1485              		.loc 1 514 0
 1486 0024 0120A0E1 		mov	r2, r1
 1487 0028 0110A0E3 		mov	r1, #1
 1488              	.LVL77:
 1489 002c FEFFFFEB 		bl	sysInstallISR
 1490              	.LVL78:
 1491 0030 0040A0E1 		mov	r4, r0
 1492              	.LVL79:
 515:F:/ARM_Project/W55FA92/N9H20/BSP/Driver/Source/SYS\wb_timer.c **** 	sysEnableInterrupt(IRQ_WDT);
 1493              		.loc 1 515 0
 1494 0034 0100A0E3 		mov	r0, #1
 1495              	.LVL80:
 1496 0038 FEFFFFEB 		bl	sysEnableInterrupt
 1497              	.LVL81:
 516:F:/ARM_Project/W55FA92/N9H20/BSP/Driver/Source/SYS\wb_timer.c **** 	sysSetLocalInterrupt(ENABLE_IRQ);
 1498              		.loc 1 516 0
 1499 003c 7F00A0E3 		mov	r0, #127
 1500 0040 FEFFFFEB 		bl	sysSetLocalInterrupt
 1501              	.LVL82:
 517:F:/ARM_Project/W55FA92/N9H20/BSP/Driver/Source/SYS\wb_timer.c **** 
 518:F:/ARM_Project/W55FA92/N9H20/BSP/Driver/Source/SYS\wb_timer.c **** 	return _mOldVect;
 519:F:/ARM_Project/W55FA92/N9H20/BSP/Driver/Source/SYS\wb_timer.c **** }
 1502              		.loc 1 519 0
 1503 0044 0400A0E1 		mov	r0, r4
 1504 0048 08D08DE2 		add	sp, sp, #8
 1505              		.cfi_def_cfa_offset 8
 1506              		@ sp needed
 1507 004c 1080BDE8 		pop	{r4, pc}
 1508              	.LVL83:
 1509              	.L152:
 1510              		.align	2
 1511              	.L151:
 1512 0050 002000B8 		.word	-1207951360
 1513              		.cfi_endproc
 1514              	.LFE22:
 1516              		.section	.text.sysSetWatchDogTimerInterval,"ax",%progbits
 1517              		.align	2
 1518              		.global	sysSetWatchDogTimerInterval
 1519              		.syntax unified
 1520              		.arm
 1521              		.fpu softvfp
 1523              	sysSetWatchDogTimerInterval:
 1524              	.LFB23:
 520:F:/ARM_Project/W55FA92/N9H20/BSP/Driver/Source/SYS\wb_timer.c **** 
 521:F:/ARM_Project/W55FA92/N9H20/BSP/Driver/Source/SYS\wb_timer.c **** INT32 sysSetWatchDogTimerInterval(INT32 nWdtInterval)
 522:F:/ARM_Project/W55FA92/N9H20/BSP/Driver/Source/SYS\wb_timer.c **** {
 1525              		.loc 1 522 0
 1526              		.cfi_startproc
 1527              		@ args = 0, pretend = 0, frame = 8
 1528              		@ frame_needed = 0, uses_anonymous_args = 0
 1529              		@ link register save eliminated.
 1530              	.LVL84:
 523:F:/ARM_Project/W55FA92/N9H20/BSP/Driver/Source/SYS\wb_timer.c **** 	UINT32 volatile _mWtcr;
 524:F:/ARM_Project/W55FA92/N9H20/BSP/Driver/Source/SYS\wb_timer.c **** 	_mWtcr = inpw(REG_WTCR) & (~0x30); /* SW Fixed */
 1531              		.loc 1 524 0
 1532 0000 30209FE5 		ldr	r2, .L155
 522:F:/ARM_Project/W55FA92/N9H20/BSP/Driver/Source/SYS\wb_timer.c **** 	UINT32 volatile _mWtcr;
 1533              		.loc 1 522 0
 1534 0004 08D04DE2 		sub	sp, sp, #8
 1535              		.cfi_def_cfa_offset 8
 1536              		.loc 1 524 0
 1537 0008 1C3092E5 		ldr	r3, [r2, #28]
 1538 000c 3030C3E3 		bic	r3, r3, #48
 1539 0010 04308DE5 		str	r3, [sp, #4]
 525:F:/ARM_Project/W55FA92/N9H20/BSP/Driver/Source/SYS\wb_timer.c **** 	_mWtcr = _mWtcr|(0x400)|(nWdtInterval << 4);
 1540              		.loc 1 525 0
 1541 0014 04309DE5 		ldr	r3, [sp, #4]
 1542 0018 013B83E3 		orr	r3, r3, #1024
 1543 001c 000283E1 		orr	r0, r3, r0, lsl #4
 1544              	.LVL85:
 1545 0020 04008DE5 		str	r0, [sp, #4]
 526:F:/ARM_Project/W55FA92/N9H20/BSP/Driver/Source/SYS\wb_timer.c **** 	outpw(REG_WTCR, _mWtcr);
 1546              		.loc 1 526 0
 1547 0024 04309DE5 		ldr	r3, [sp, #4]
 527:F:/ARM_Project/W55FA92/N9H20/BSP/Driver/Source/SYS\wb_timer.c **** 
 528:F:/ARM_Project/W55FA92/N9H20/BSP/Driver/Source/SYS\wb_timer.c **** 	return Successful;
 529:F:/ARM_Project/W55FA92/N9H20/BSP/Driver/Source/SYS\wb_timer.c **** }
 1548              		.loc 1 529 0
 1549 0028 0000A0E3 		mov	r0, #0
 526:F:/ARM_Project/W55FA92/N9H20/BSP/Driver/Source/SYS\wb_timer.c **** 	outpw(REG_WTCR, _mWtcr);
 1550              		.loc 1 526 0
 1551 002c 1C3082E5 		str	r3, [r2, #28]
 1552              		.loc 1 529 0
 1553 0030 08D08DE2 		add	sp, sp, #8
 1554              		.cfi_def_cfa_offset 0
 1555              		@ sp needed
 1556 0034 1EFF2FE1 		bx	lr
 1557              	.L156:
 1558              		.align	2
 1559              	.L155:
 1560 0038 002000B8 		.word	-1207951360
 1561              		.cfi_endproc
 1562              	.LFE23:
 1564              		.section	.text.sysSetTimerEvent,"ax",%progbits
 1565              		.align	2
 1566              		.global	sysSetTimerEvent
 1567              		.syntax unified
 1568              		.arm
 1569              		.fpu softvfp
 1571              	sysSetTimerEvent:
 1572              	.LFB24:
 530:F:/ARM_Project/W55FA92/N9H20/BSP/Driver/Source/SYS\wb_timer.c **** 
 531:F:/ARM_Project/W55FA92/N9H20/BSP/Driver/Source/SYS\wb_timer.c **** 
 532:F:/ARM_Project/W55FA92/N9H20/BSP/Driver/Source/SYS\wb_timer.c **** INT32 sysSetTimerEvent(INT32 nTimeNo, UINT32 uTimeTick, PVOID pvFun)
 533:F:/ARM_Project/W55FA92/N9H20/BSP/Driver/Source/SYS\wb_timer.c **** {
 1573              		.loc 1 533 0
 1574              		.cfi_startproc
 1575              		@ args = 0, pretend = 0, frame = 8
 1576              		@ frame_needed = 0, uses_anonymous_args = 0
 1577              		@ link register save eliminated.
 1578              	.LVL86:
 1579 0000 08D04DE2 		sub	sp, sp, #8
 1580              		.cfi_def_cfa_offset 8
 534:F:/ARM_Project/W55FA92/N9H20/BSP/Driver/Source/SYS\wb_timer.c **** 	int volatile i;
 535:F:/ARM_Project/W55FA92/N9H20/BSP/Driver/Source/SYS\wb_timer.c **** 	int val=0;
 536:F:/ARM_Project/W55FA92/N9H20/BSP/Driver/Source/SYS\wb_timer.c **** 
 537:F:/ARM_Project/W55FA92/N9H20/BSP/Driver/Source/SYS\wb_timer.c **** 	switch (nTimeNo)
 1581              		.loc 1 537 0
 1582 0004 030050E3 		cmp	r0, #3
 1583 0008 00F19F97 		ldrls	pc, [pc, r0, asl #2]
 1584 000c 6B0000EA 		b	.L181
 1585              	.L160:
 1586 0010 20000000 		.word	.L159
 1587 0014 C4000000 		.word	.L161
 1588 0018 18010000 		.word	.L162
 1589 001c 6C010000 		.word	.L163
 1590              	.L159:
 538:F:/ARM_Project/W55FA92/N9H20/BSP/Driver/Source/SYS\wb_timer.c **** 	{
 539:F:/ARM_Project/W55FA92/N9H20/BSP/Driver/Source/SYS\wb_timer.c **** 		case TIMER0:
 540:F:/ARM_Project/W55FA92/N9H20/BSP/Driver/Source/SYS\wb_timer.c **** 			_sys_bIsSetTime0Event = TRUE;
 1591              		.loc 1 540 0
 1592 0020 A0319FE5 		ldr	r3, .L198
 1593 0024 0100A0E3 		mov	r0, #1
 1594              	.LVL87:
 1595 0028 0000C3E5 		strb	r0, [r3]
 541:F:/ARM_Project/W55FA92/N9H20/BSP/Driver/Source/SYS\wb_timer.c **** 			_sys_uTime0EventCount++;
 1596              		.loc 1 541 0
 1597 002c 98019FE5 		ldr	r0, .L198+4
 1598 0030 003090E5 		ldr	r3, [r0]
 1599 0034 013083E2 		add	r3, r3, #1
 1600 0038 003080E5 		str	r3, [r0]
 542:F:/ARM_Project/W55FA92/N9H20/BSP/Driver/Source/SYS\wb_timer.c **** 			for (i=0; i<TimerEventCount; i++)
 1601              		.loc 1 542 0
 1602 003c 0030A0E3 		mov	r3, #0
 1603 0040 04308DE5 		str	r3, [sp, #4]
 543:F:/ARM_Project/W55FA92/N9H20/BSP/Driver/Source/SYS\wb_timer.c **** 			{
 544:F:/ARM_Project/W55FA92/N9H20/BSP/Driver/Source/SYS\wb_timer.c **** 				if (tTime0Event[i].active == FALSE)
 1604              		.loc 1 544 0
 1605 0044 84319FE5 		ldr	r3, .L198+8
 1606              	.L164:
 542:F:/ARM_Project/W55FA92/N9H20/BSP/Driver/Source/SYS\wb_timer.c **** 			for (i=0; i<TimerEventCount; i++)
 1607              		.loc 1 542 0 discriminator 1
 1608 0048 04009DE5 		ldr	r0, [sp, #4]
 1609 004c 090050E3 		cmp	r0, #9
 1610 0050 050000DA 		ble	.L167
 1611              	.L196:
 535:F:/ARM_Project/W55FA92/N9H20/BSP/Driver/Source/SYS\wb_timer.c **** 
 1612              		.loc 1 535 0
 1613 0054 0000A0E3 		mov	r0, #0
 1614              	.LVL88:
 1615              	.L166:
 545:F:/ARM_Project/W55FA92/N9H20/BSP/Driver/Source/SYS\wb_timer.c **** 				{
 546:F:/ARM_Project/W55FA92/N9H20/BSP/Driver/Source/SYS\wb_timer.c **** 					tTime0Event[i].active = TRUE;
 547:F:/ARM_Project/W55FA92/N9H20/BSP/Driver/Source/SYS\wb_timer.c **** 					tTime0Event[i].initTick = uTimeTick;
 548:F:/ARM_Project/W55FA92/N9H20/BSP/Driver/Source/SYS\wb_timer.c **** 					tTime0Event[i].curTick = uTimeTick;
 549:F:/ARM_Project/W55FA92/N9H20/BSP/Driver/Source/SYS\wb_timer.c **** 					tTime0Event[i].funPtr = (sys_pvTimeFunPtr)pvFun;
 550:F:/ARM_Project/W55FA92/N9H20/BSP/Driver/Source/SYS\wb_timer.c **** 					val = i+1;
 551:F:/ARM_Project/W55FA92/N9H20/BSP/Driver/Source/SYS\wb_timer.c **** 					break;
 552:F:/ARM_Project/W55FA92/N9H20/BSP/Driver/Source/SYS\wb_timer.c **** 				}
 553:F:/ARM_Project/W55FA92/N9H20/BSP/Driver/Source/SYS\wb_timer.c **** 			}
 554:F:/ARM_Project/W55FA92/N9H20/BSP/Driver/Source/SYS\wb_timer.c **** 			/*SW ADD*/
 555:F:/ARM_Project/W55FA92/N9H20/BSP/Driver/Source/SYS\wb_timer.c **** 			if(i==TimerEventCount)
 1616              		.loc 1 555 0
 1617 0058 04309DE5 		ldr	r3, [sp, #4]
 1618 005c 0A0053E3 		cmp	r3, #10
 556:F:/ARM_Project/W55FA92/N9H20/BSP/Driver/Source/SYS\wb_timer.c **** 				return -1;		/*-1 means invalid channel*/			
 1619              		.loc 1 556 0
 1620 0060 0000E003 		mvneq	r0, #0
 1621              	.LVL89:
 1622              	.L157:
 557:F:/ARM_Project/W55FA92/N9H20/BSP/Driver/Source/SYS\wb_timer.c **** 			/**/	
 558:F:/ARM_Project/W55FA92/N9H20/BSP/Driver/Source/SYS\wb_timer.c **** 			break;
 559:F:/ARM_Project/W55FA92/N9H20/BSP/Driver/Source/SYS\wb_timer.c **** 		case TIMER1:
 560:F:/ARM_Project/W55FA92/N9H20/BSP/Driver/Source/SYS\wb_timer.c **** 			_sys_bIsSetTime1Event = TRUE;
 561:F:/ARM_Project/W55FA92/N9H20/BSP/Driver/Source/SYS\wb_timer.c **** 			_sys_uTime1EventCount++;
 562:F:/ARM_Project/W55FA92/N9H20/BSP/Driver/Source/SYS\wb_timer.c **** 			for (i=0; i<TimerEventCount; i++)
 563:F:/ARM_Project/W55FA92/N9H20/BSP/Driver/Source/SYS\wb_timer.c **** 			{
 564:F:/ARM_Project/W55FA92/N9H20/BSP/Driver/Source/SYS\wb_timer.c **** 				if (tTime1Event[i].active == FALSE)
 565:F:/ARM_Project/W55FA92/N9H20/BSP/Driver/Source/SYS\wb_timer.c **** 				{
 566:F:/ARM_Project/W55FA92/N9H20/BSP/Driver/Source/SYS\wb_timer.c **** 					tTime1Event[i].active = TRUE;
 567:F:/ARM_Project/W55FA92/N9H20/BSP/Driver/Source/SYS\wb_timer.c **** 					tTime1Event[i].initTick = uTimeTick;
 568:F:/ARM_Project/W55FA92/N9H20/BSP/Driver/Source/SYS\wb_timer.c **** 					tTime1Event[i].curTick = uTimeTick;
 569:F:/ARM_Project/W55FA92/N9H20/BSP/Driver/Source/SYS\wb_timer.c **** 					tTime1Event[i].funPtr = (sys_pvTimeFunPtr)pvFun;
 570:F:/ARM_Project/W55FA92/N9H20/BSP/Driver/Source/SYS\wb_timer.c **** 					val = i+1;
 571:F:/ARM_Project/W55FA92/N9H20/BSP/Driver/Source/SYS\wb_timer.c **** 					break;
 572:F:/ARM_Project/W55FA92/N9H20/BSP/Driver/Source/SYS\wb_timer.c **** 				}
 573:F:/ARM_Project/W55FA92/N9H20/BSP/Driver/Source/SYS\wb_timer.c **** 			}
 574:F:/ARM_Project/W55FA92/N9H20/BSP/Driver/Source/SYS\wb_timer.c **** 			/*SW ADD*/
 575:F:/ARM_Project/W55FA92/N9H20/BSP/Driver/Source/SYS\wb_timer.c **** 			if(i==TimerEventCount)
 576:F:/ARM_Project/W55FA92/N9H20/BSP/Driver/Source/SYS\wb_timer.c **** 				return -1;		/*-1 means invalid channel*/			
 577:F:/ARM_Project/W55FA92/N9H20/BSP/Driver/Source/SYS\wb_timer.c **** 			/**/	
 578:F:/ARM_Project/W55FA92/N9H20/BSP/Driver/Source/SYS\wb_timer.c **** 			break;	
 579:F:/ARM_Project/W55FA92/N9H20/BSP/Driver/Source/SYS\wb_timer.c **** 		case TIMER2:
 580:F:/ARM_Project/W55FA92/N9H20/BSP/Driver/Source/SYS\wb_timer.c **** 			_sys_bIsSetTime2Event = TRUE;
 581:F:/ARM_Project/W55FA92/N9H20/BSP/Driver/Source/SYS\wb_timer.c **** 			_sys_uTime2EventCount++;
 582:F:/ARM_Project/W55FA92/N9H20/BSP/Driver/Source/SYS\wb_timer.c **** 			for (i=0; i<TimerEventCount; i++)
 583:F:/ARM_Project/W55FA92/N9H20/BSP/Driver/Source/SYS\wb_timer.c **** 			{
 584:F:/ARM_Project/W55FA92/N9H20/BSP/Driver/Source/SYS\wb_timer.c **** 				if (tTime2Event[i].active == FALSE)
 585:F:/ARM_Project/W55FA92/N9H20/BSP/Driver/Source/SYS\wb_timer.c **** 				{
 586:F:/ARM_Project/W55FA92/N9H20/BSP/Driver/Source/SYS\wb_timer.c **** 					tTime2Event[i].active = TRUE;
 587:F:/ARM_Project/W55FA92/N9H20/BSP/Driver/Source/SYS\wb_timer.c **** 					tTime2Event[i].initTick = uTimeTick;
 588:F:/ARM_Project/W55FA92/N9H20/BSP/Driver/Source/SYS\wb_timer.c **** 					tTime2Event[i].curTick = uTimeTick;
 589:F:/ARM_Project/W55FA92/N9H20/BSP/Driver/Source/SYS\wb_timer.c **** 					tTime2Event[i].funPtr = (sys_pvTimeFunPtr)pvFun;
 590:F:/ARM_Project/W55FA92/N9H20/BSP/Driver/Source/SYS\wb_timer.c **** 					val = i+1;
 591:F:/ARM_Project/W55FA92/N9H20/BSP/Driver/Source/SYS\wb_timer.c **** 					break;
 592:F:/ARM_Project/W55FA92/N9H20/BSP/Driver/Source/SYS\wb_timer.c **** 				}
 593:F:/ARM_Project/W55FA92/N9H20/BSP/Driver/Source/SYS\wb_timer.c **** 			}
 594:F:/ARM_Project/W55FA92/N9H20/BSP/Driver/Source/SYS\wb_timer.c **** 			/*SW ADD*/
 595:F:/ARM_Project/W55FA92/N9H20/BSP/Driver/Source/SYS\wb_timer.c **** 			if(i==TimerEventCount)
 596:F:/ARM_Project/W55FA92/N9H20/BSP/Driver/Source/SYS\wb_timer.c **** 				return -1;		/*-1 means invalid channel*/			
 597:F:/ARM_Project/W55FA92/N9H20/BSP/Driver/Source/SYS\wb_timer.c **** 			/**/	
 598:F:/ARM_Project/W55FA92/N9H20/BSP/Driver/Source/SYS\wb_timer.c **** 			break;	
 599:F:/ARM_Project/W55FA92/N9H20/BSP/Driver/Source/SYS\wb_timer.c **** 		case TIMER3:
 600:F:/ARM_Project/W55FA92/N9H20/BSP/Driver/Source/SYS\wb_timer.c **** 			_sys_bIsSetTime3Event = TRUE;
 601:F:/ARM_Project/W55FA92/N9H20/BSP/Driver/Source/SYS\wb_timer.c **** 			_sys_uTime3EventCount++;
 602:F:/ARM_Project/W55FA92/N9H20/BSP/Driver/Source/SYS\wb_timer.c **** 			for (i=0; i<TimerEventCount; i++)
 603:F:/ARM_Project/W55FA92/N9H20/BSP/Driver/Source/SYS\wb_timer.c **** 			{
 604:F:/ARM_Project/W55FA92/N9H20/BSP/Driver/Source/SYS\wb_timer.c **** 				if (tTime3Event[i].active == FALSE)
 605:F:/ARM_Project/W55FA92/N9H20/BSP/Driver/Source/SYS\wb_timer.c **** 				{
 606:F:/ARM_Project/W55FA92/N9H20/BSP/Driver/Source/SYS\wb_timer.c **** 					tTime3Event[i].active = TRUE;
 607:F:/ARM_Project/W55FA92/N9H20/BSP/Driver/Source/SYS\wb_timer.c **** 					tTime3Event[i].initTick = uTimeTick;
 608:F:/ARM_Project/W55FA92/N9H20/BSP/Driver/Source/SYS\wb_timer.c **** 					tTime3Event[i].curTick = uTimeTick;
 609:F:/ARM_Project/W55FA92/N9H20/BSP/Driver/Source/SYS\wb_timer.c **** 					tTime3Event[i].funPtr = (sys_pvTimeFunPtr)pvFun;
 610:F:/ARM_Project/W55FA92/N9H20/BSP/Driver/Source/SYS\wb_timer.c **** 					val = i+1;
 611:F:/ARM_Project/W55FA92/N9H20/BSP/Driver/Source/SYS\wb_timer.c **** 					break;
 612:F:/ARM_Project/W55FA92/N9H20/BSP/Driver/Source/SYS\wb_timer.c **** 				}
 613:F:/ARM_Project/W55FA92/N9H20/BSP/Driver/Source/SYS\wb_timer.c **** 			}
 614:F:/ARM_Project/W55FA92/N9H20/BSP/Driver/Source/SYS\wb_timer.c **** 			/*SW ADD*/
 615:F:/ARM_Project/W55FA92/N9H20/BSP/Driver/Source/SYS\wb_timer.c **** 			if(i==TimerEventCount)
 616:F:/ARM_Project/W55FA92/N9H20/BSP/Driver/Source/SYS\wb_timer.c **** 				return -1;		/*-1 means invalid channel*/			
 617:F:/ARM_Project/W55FA92/N9H20/BSP/Driver/Source/SYS\wb_timer.c **** 			/**/	
 618:F:/ARM_Project/W55FA92/N9H20/BSP/Driver/Source/SYS\wb_timer.c **** 			break;			
 619:F:/ARM_Project/W55FA92/N9H20/BSP/Driver/Source/SYS\wb_timer.c **** 		default:
 620:F:/ARM_Project/W55FA92/N9H20/BSP/Driver/Source/SYS\wb_timer.c **** 			;
 621:F:/ARM_Project/W55FA92/N9H20/BSP/Driver/Source/SYS\wb_timer.c **** 	}
 622:F:/ARM_Project/W55FA92/N9H20/BSP/Driver/Source/SYS\wb_timer.c **** 
 623:F:/ARM_Project/W55FA92/N9H20/BSP/Driver/Source/SYS\wb_timer.c **** 	return val;
 624:F:/ARM_Project/W55FA92/N9H20/BSP/Driver/Source/SYS\wb_timer.c **** }
 1623              		.loc 1 624 0
 1624 0064 08D08DE2 		add	sp, sp, #8
 1625              		.cfi_remember_state
 1626              		.cfi_def_cfa_offset 0
 1627              		@ sp needed
 1628 0068 1EFF2FE1 		bx	lr
 1629              	.LVL90:
 1630              	.L167:
 1631              		.cfi_restore_state
 544:F:/ARM_Project/W55FA92/N9H20/BSP/Driver/Source/SYS\wb_timer.c **** 				{
 1632              		.loc 1 544 0
 1633 006c 04009DE5 		ldr	r0, [sp, #4]
 1634 0070 000293E7 		ldr	r0, [r3, r0, lsl #4]
 1635 0074 000050E3 		cmp	r0, #0
 546:F:/ARM_Project/W55FA92/N9H20/BSP/Driver/Source/SYS\wb_timer.c **** 					tTime0Event[i].initTick = uTimeTick;
 1636              		.loc 1 546 0
 1637 0078 04009DE5 		ldr	r0, [sp, #4]
 544:F:/ARM_Project/W55FA92/N9H20/BSP/Driver/Source/SYS\wb_timer.c **** 				{
 1638              		.loc 1 544 0
 1639 007c 0D00001A 		bne	.L165
 1640              	.L197:
 606:F:/ARM_Project/W55FA92/N9H20/BSP/Driver/Source/SYS\wb_timer.c **** 					tTime3Event[i].initTick = uTimeTick;
 1641              		.loc 1 606 0
 1642 0080 01C0A0E3 		mov	ip, #1
 1643 0084 00C283E7 		str	ip, [r3, r0, lsl #4]
 607:F:/ARM_Project/W55FA92/N9H20/BSP/Driver/Source/SYS\wb_timer.c **** 					tTime3Event[i].curTick = uTimeTick;
 1644              		.loc 1 607 0
 1645 0088 04009DE5 		ldr	r0, [sp, #4]
 1646 008c 000283E0 		add	r0, r3, r0, lsl #4
 1647 0090 041080E5 		str	r1, [r0, #4]
 608:F:/ARM_Project/W55FA92/N9H20/BSP/Driver/Source/SYS\wb_timer.c **** 					tTime3Event[i].funPtr = (sys_pvTimeFunPtr)pvFun;
 1648              		.loc 1 608 0
 1649 0094 04009DE5 		ldr	r0, [sp, #4]
 1650 0098 000283E0 		add	r0, r3, r0, lsl #4
 1651 009c 081080E5 		str	r1, [r0, #8]
 609:F:/ARM_Project/W55FA92/N9H20/BSP/Driver/Source/SYS\wb_timer.c **** 					val = i+1;
 1652              		.loc 1 609 0
 1653 00a0 04109DE5 		ldr	r1, [sp, #4]
 1654              	.LVL91:
 610:F:/ARM_Project/W55FA92/N9H20/BSP/Driver/Source/SYS\wb_timer.c **** 					break;
 1655              		.loc 1 610 0
 1656 00a4 04009DE5 		ldr	r0, [sp, #4]
 1657              	.LVL92:
 609:F:/ARM_Project/W55FA92/N9H20/BSP/Driver/Source/SYS\wb_timer.c **** 					val = i+1;
 1658              		.loc 1 609 0
 1659 00a8 013283E0 		add	r3, r3, r1, lsl #4
 1660 00ac 0C2083E5 		str	r2, [r3, #12]
 610:F:/ARM_Project/W55FA92/N9H20/BSP/Driver/Source/SYS\wb_timer.c **** 					break;
 1661              		.loc 1 610 0
 1662 00b0 0C0080E0 		add	r0, r0, ip
 1663              	.LVL93:
 611:F:/ARM_Project/W55FA92/N9H20/BSP/Driver/Source/SYS\wb_timer.c **** 				}
 1664              		.loc 1 611 0
 1665 00b4 E7FFFFEA 		b	.L166
 1666              	.LVL94:
 1667              	.L165:
 542:F:/ARM_Project/W55FA92/N9H20/BSP/Driver/Source/SYS\wb_timer.c **** 			{
 1668              		.loc 1 542 0 discriminator 2
 1669 00b8 010080E2 		add	r0, r0, #1
 1670 00bc 04008DE5 		str	r0, [sp, #4]
 1671 00c0 E0FFFFEA 		b	.L164
 1672              	.LVL95:
 1673              	.L161:
 560:F:/ARM_Project/W55FA92/N9H20/BSP/Driver/Source/SYS\wb_timer.c **** 			_sys_uTime1EventCount++;
 1674              		.loc 1 560 0
 1675 00c4 08319FE5 		ldr	r3, .L198+12
 1676 00c8 0100A0E3 		mov	r0, #1
 1677              	.LVL96:
 1678 00cc 0000C3E5 		strb	r0, [r3]
 561:F:/ARM_Project/W55FA92/N9H20/BSP/Driver/Source/SYS\wb_timer.c **** 			for (i=0; i<TimerEventCount; i++)
 1679              		.loc 1 561 0
 1680 00d0 00019FE5 		ldr	r0, .L198+16
 1681 00d4 003090E5 		ldr	r3, [r0]
 1682 00d8 013083E2 		add	r3, r3, #1
 1683 00dc 003080E5 		str	r3, [r0]
 562:F:/ARM_Project/W55FA92/N9H20/BSP/Driver/Source/SYS\wb_timer.c **** 			{
 1684              		.loc 1 562 0
 1685 00e0 0030A0E3 		mov	r3, #0
 1686 00e4 04308DE5 		str	r3, [sp, #4]
 564:F:/ARM_Project/W55FA92/N9H20/BSP/Driver/Source/SYS\wb_timer.c **** 				{
 1687              		.loc 1 564 0
 1688 00e8 EC309FE5 		ldr	r3, .L198+20
 1689              	.L168:
 562:F:/ARM_Project/W55FA92/N9H20/BSP/Driver/Source/SYS\wb_timer.c **** 			{
 1690              		.loc 1 562 0 discriminator 1
 1691 00ec 04009DE5 		ldr	r0, [sp, #4]
 1692 00f0 090050E3 		cmp	r0, #9
 1693 00f4 D6FFFFCA 		bgt	.L196
 564:F:/ARM_Project/W55FA92/N9H20/BSP/Driver/Source/SYS\wb_timer.c **** 				{
 1694              		.loc 1 564 0
 1695 00f8 04009DE5 		ldr	r0, [sp, #4]
 1696 00fc 000293E7 		ldr	r0, [r3, r0, lsl #4]
 1697 0100 000050E3 		cmp	r0, #0
 566:F:/ARM_Project/W55FA92/N9H20/BSP/Driver/Source/SYS\wb_timer.c **** 					tTime1Event[i].initTick = uTimeTick;
 1698              		.loc 1 566 0
 1699 0104 04009DE5 		ldr	r0, [sp, #4]
 564:F:/ARM_Project/W55FA92/N9H20/BSP/Driver/Source/SYS\wb_timer.c **** 				{
 1700              		.loc 1 564 0
 1701 0108 DCFFFF0A 		beq	.L197
 562:F:/ARM_Project/W55FA92/N9H20/BSP/Driver/Source/SYS\wb_timer.c **** 			{
 1702              		.loc 1 562 0 discriminator 2
 1703 010c 010080E2 		add	r0, r0, #1
 1704 0110 04008DE5 		str	r0, [sp, #4]
 1705 0114 F4FFFFEA 		b	.L168
 1706              	.LVL97:
 1707              	.L162:
 580:F:/ARM_Project/W55FA92/N9H20/BSP/Driver/Source/SYS\wb_timer.c **** 			_sys_uTime2EventCount++;
 1708              		.loc 1 580 0
 1709 0118 C0309FE5 		ldr	r3, .L198+24
 1710 011c 0100A0E3 		mov	r0, #1
 1711              	.LVL98:
 1712 0120 0000C3E5 		strb	r0, [r3]
 581:F:/ARM_Project/W55FA92/N9H20/BSP/Driver/Source/SYS\wb_timer.c **** 			for (i=0; i<TimerEventCount; i++)
 1713              		.loc 1 581 0
 1714 0124 B8009FE5 		ldr	r0, .L198+28
 1715 0128 003090E5 		ldr	r3, [r0]
 1716 012c 013083E2 		add	r3, r3, #1
 1717 0130 003080E5 		str	r3, [r0]
 582:F:/ARM_Project/W55FA92/N9H20/BSP/Driver/Source/SYS\wb_timer.c **** 			{
 1718              		.loc 1 582 0
 1719 0134 0030A0E3 		mov	r3, #0
 1720 0138 04308DE5 		str	r3, [sp, #4]
 584:F:/ARM_Project/W55FA92/N9H20/BSP/Driver/Source/SYS\wb_timer.c **** 				{
 1721              		.loc 1 584 0
 1722 013c A4309FE5 		ldr	r3, .L198+32
 1723              	.L173:
 582:F:/ARM_Project/W55FA92/N9H20/BSP/Driver/Source/SYS\wb_timer.c **** 			{
 1724              		.loc 1 582 0 discriminator 1
 1725 0140 04009DE5 		ldr	r0, [sp, #4]
 1726 0144 090050E3 		cmp	r0, #9
 1727 0148 C1FFFFCA 		bgt	.L196
 584:F:/ARM_Project/W55FA92/N9H20/BSP/Driver/Source/SYS\wb_timer.c **** 				{
 1728              		.loc 1 584 0
 1729 014c 04009DE5 		ldr	r0, [sp, #4]
 1730 0150 000293E7 		ldr	r0, [r3, r0, lsl #4]
 1731 0154 000050E3 		cmp	r0, #0
 586:F:/ARM_Project/W55FA92/N9H20/BSP/Driver/Source/SYS\wb_timer.c **** 					tTime2Event[i].initTick = uTimeTick;
 1732              		.loc 1 586 0
 1733 0158 04009DE5 		ldr	r0, [sp, #4]
 584:F:/ARM_Project/W55FA92/N9H20/BSP/Driver/Source/SYS\wb_timer.c **** 				{
 1734              		.loc 1 584 0
 1735 015c C7FFFF0A 		beq	.L197
 582:F:/ARM_Project/W55FA92/N9H20/BSP/Driver/Source/SYS\wb_timer.c **** 			{
 1736              		.loc 1 582 0 discriminator 2
 1737 0160 010080E2 		add	r0, r0, #1
 1738 0164 04008DE5 		str	r0, [sp, #4]
 1739 0168 F4FFFFEA 		b	.L173
 1740              	.LVL99:
 1741              	.L163:
 600:F:/ARM_Project/W55FA92/N9H20/BSP/Driver/Source/SYS\wb_timer.c **** 			_sys_uTime3EventCount++;
 1742              		.loc 1 600 0
 1743 016c 78309FE5 		ldr	r3, .L198+36
 1744 0170 0100A0E3 		mov	r0, #1
 1745              	.LVL100:
 1746 0174 0000C3E5 		strb	r0, [r3]
 601:F:/ARM_Project/W55FA92/N9H20/BSP/Driver/Source/SYS\wb_timer.c **** 			for (i=0; i<TimerEventCount; i++)
 1747              		.loc 1 601 0
 1748 0178 70009FE5 		ldr	r0, .L198+40
 1749 017c 003090E5 		ldr	r3, [r0]
 1750 0180 013083E2 		add	r3, r3, #1
 1751 0184 003080E5 		str	r3, [r0]
 602:F:/ARM_Project/W55FA92/N9H20/BSP/Driver/Source/SYS\wb_timer.c **** 			{
 1752              		.loc 1 602 0
 1753 0188 0030A0E3 		mov	r3, #0
 1754 018c 04308DE5 		str	r3, [sp, #4]
 604:F:/ARM_Project/W55FA92/N9H20/BSP/Driver/Source/SYS\wb_timer.c **** 				{
 1755              		.loc 1 604 0
 1756 0190 5C309FE5 		ldr	r3, .L198+44
 1757              	.L177:
 602:F:/ARM_Project/W55FA92/N9H20/BSP/Driver/Source/SYS\wb_timer.c **** 			{
 1758              		.loc 1 602 0 discriminator 1
 1759 0194 04009DE5 		ldr	r0, [sp, #4]
 1760 0198 090050E3 		cmp	r0, #9
 1761 019c ACFFFFCA 		bgt	.L196
 604:F:/ARM_Project/W55FA92/N9H20/BSP/Driver/Source/SYS\wb_timer.c **** 				{
 1762              		.loc 1 604 0
 1763 01a0 04009DE5 		ldr	r0, [sp, #4]
 1764 01a4 000293E7 		ldr	r0, [r3, r0, lsl #4]
 1765 01a8 000050E3 		cmp	r0, #0
 606:F:/ARM_Project/W55FA92/N9H20/BSP/Driver/Source/SYS\wb_timer.c **** 					tTime3Event[i].initTick = uTimeTick;
 1766              		.loc 1 606 0
 1767 01ac 04009DE5 		ldr	r0, [sp, #4]
 604:F:/ARM_Project/W55FA92/N9H20/BSP/Driver/Source/SYS\wb_timer.c **** 				{
 1768              		.loc 1 604 0
 1769 01b0 B2FFFF0A 		beq	.L197
 602:F:/ARM_Project/W55FA92/N9H20/BSP/Driver/Source/SYS\wb_timer.c **** 			{
 1770              		.loc 1 602 0 discriminator 2
 1771 01b4 010080E2 		add	r0, r0, #1
 1772 01b8 04008DE5 		str	r0, [sp, #4]
 1773 01bc F4FFFFEA 		b	.L177
 1774              	.LVL101:
 1775              	.L181:
 535:F:/ARM_Project/W55FA92/N9H20/BSP/Driver/Source/SYS\wb_timer.c **** 
 1776              		.loc 1 535 0
 1777 01c0 0000A0E3 		mov	r0, #0
 1778              	.LVL102:
 1779 01c4 A6FFFFEA 		b	.L157
 1780              	.L199:
 1781              		.align	2
 1782              	.L198:
 1783 01c8 00000000 		.word	.LANCHOR1
 1784 01cc 00000000 		.word	.LANCHOR16
 1785 01d0 00000000 		.word	tTime0Event
 1786 01d4 00000000 		.word	.LANCHOR3
 1787 01d8 00000000 		.word	.LANCHOR17
 1788 01dc 00000000 		.word	tTime1Event
 1789 01e0 00000000 		.word	.LANCHOR5
 1790 01e4 00000000 		.word	.LANCHOR18
 1791 01e8 00000000 		.word	tTime2Event
 1792 01ec 00000000 		.word	.LANCHOR7
 1793 01f0 00000000 		.word	.LANCHOR19
 1794 01f4 00000000 		.word	tTime3Event
 1795              		.cfi_endproc
 1796              	.LFE24:
 1798              		.section	.text.sysClearTimerEvent,"ax",%progbits
 1799              		.align	2
 1800              		.global	sysClearTimerEvent
 1801              		.syntax unified
 1802              		.arm
 1803              		.fpu softvfp
 1805              	sysClearTimerEvent:
 1806              	.LFB25:
 625:F:/ARM_Project/W55FA92/N9H20/BSP/Driver/Source/SYS\wb_timer.c **** 
 626:F:/ARM_Project/W55FA92/N9H20/BSP/Driver/Source/SYS\wb_timer.c **** VOID sysClearTimerEvent(INT32 nTimeNo, UINT32 uTimeEventNo)
 627:F:/ARM_Project/W55FA92/N9H20/BSP/Driver/Source/SYS\wb_timer.c **** {
 1807              		.loc 1 627 0
 1808              		.cfi_startproc
 1809              		@ args = 0, pretend = 0, frame = 0
 1810              		@ frame_needed = 0, uses_anonymous_args = 0
 1811              		@ link register save eliminated.
 1812              	.LVL103:
 628:F:/ARM_Project/W55FA92/N9H20/BSP/Driver/Source/SYS\wb_timer.c **** 	switch (nTimeNo)
 1813              		.loc 1 628 0
 1814 0000 030050E3 		cmp	r0, #3
 1815 0004 00F19F97 		ldrls	pc, [pc, r0, asl #2]
 1816 0008 100000EA 		b	.L200
 1817              	.L203:
 1818 000c 1C000000 		.word	.L202
 1819 0010 54000000 		.word	.L204
 1820 0014 88000000 		.word	.L205
 1821 0018 BC000000 		.word	.L206
 1822              	.L202:
 629:F:/ARM_Project/W55FA92/N9H20/BSP/Driver/Source/SYS\wb_timer.c **** 	{
 630:F:/ARM_Project/W55FA92/N9H20/BSP/Driver/Source/SYS\wb_timer.c **** 		case TIMER0:
 631:F:/ARM_Project/W55FA92/N9H20/BSP/Driver/Source/SYS\wb_timer.c **** 			tTime0Event[uTimeEventNo-1].active = FALSE;
 1823              		.loc 1 631 0
 1824 001c CC309FE5 		ldr	r3, .L213
 1825 0020 0020A0E3 		mov	r2, #0
 1826 0024 011041E2 		sub	r1, r1, #1
 1827              	.LVL104:
 1828 0028 012283E7 		str	r2, [r3, r1, lsl #4]
 632:F:/ARM_Project/W55FA92/N9H20/BSP/Driver/Source/SYS\wb_timer.c **** 			_sys_uTime0EventCount--;
 1829              		.loc 1 632 0
 1830 002c C0309FE5 		ldr	r3, .L213+4
 1831 0030 002093E5 		ldr	r2, [r3]
 1832 0034 012042E2 		sub	r2, r2, #1
 1833 0038 002083E5 		str	r2, [r3]
 633:F:/ARM_Project/W55FA92/N9H20/BSP/Driver/Source/SYS\wb_timer.c **** 			if (_sys_uTime0EventCount == 0)
 1834              		.loc 1 633 0
 1835 003c 003093E5 		ldr	r3, [r3]
 1836 0040 000053E3 		cmp	r3, #0
 634:F:/ARM_Project/W55FA92/N9H20/BSP/Driver/Source/SYS\wb_timer.c **** 				_sys_bIsSetTime0Event = FALSE;
 1837              		.loc 1 634 0
 1838 0044 AC209F05 		ldreq	r2, .L213+8
 633:F:/ARM_Project/W55FA92/N9H20/BSP/Driver/Source/SYS\wb_timer.c **** 			if (_sys_uTime0EventCount == 0)
 1839              		.loc 1 633 0
 1840 0048 1EFF2F11 		bxne	lr
 1841              	.LVL105:
 1842              	.L209:
 635:F:/ARM_Project/W55FA92/N9H20/BSP/Driver/Source/SYS\wb_timer.c **** 			break;
 636:F:/ARM_Project/W55FA92/N9H20/BSP/Driver/Source/SYS\wb_timer.c **** 		case TIMER1:
 637:F:/ARM_Project/W55FA92/N9H20/BSP/Driver/Source/SYS\wb_timer.c **** 			tTime1Event[uTimeEventNo-1].active = FALSE;
 638:F:/ARM_Project/W55FA92/N9H20/BSP/Driver/Source/SYS\wb_timer.c **** 			_sys_uTime1EventCount--;
 639:F:/ARM_Project/W55FA92/N9H20/BSP/Driver/Source/SYS\wb_timer.c **** 			if (_sys_uTime1EventCount == 0)
 640:F:/ARM_Project/W55FA92/N9H20/BSP/Driver/Source/SYS\wb_timer.c **** 				_sys_bIsSetTime1Event = FALSE;
 641:F:/ARM_Project/W55FA92/N9H20/BSP/Driver/Source/SYS\wb_timer.c **** 			break;
 642:F:/ARM_Project/W55FA92/N9H20/BSP/Driver/Source/SYS\wb_timer.c **** 		case TIMER2:
 643:F:/ARM_Project/W55FA92/N9H20/BSP/Driver/Source/SYS\wb_timer.c **** 			tTime2Event[uTimeEventNo-1].active = FALSE;
 644:F:/ARM_Project/W55FA92/N9H20/BSP/Driver/Source/SYS\wb_timer.c **** 			_sys_uTime2EventCount--;
 645:F:/ARM_Project/W55FA92/N9H20/BSP/Driver/Source/SYS\wb_timer.c **** 			if (_sys_uTime2EventCount == 0)
 646:F:/ARM_Project/W55FA92/N9H20/BSP/Driver/Source/SYS\wb_timer.c **** 				_sys_bIsSetTime2Event = FALSE;
 647:F:/ARM_Project/W55FA92/N9H20/BSP/Driver/Source/SYS\wb_timer.c **** 			break;
 648:F:/ARM_Project/W55FA92/N9H20/BSP/Driver/Source/SYS\wb_timer.c **** 		case TIMER3:
 649:F:/ARM_Project/W55FA92/N9H20/BSP/Driver/Source/SYS\wb_timer.c **** 			tTime3Event[uTimeEventNo-1].active = FALSE;
 650:F:/ARM_Project/W55FA92/N9H20/BSP/Driver/Source/SYS\wb_timer.c **** 			_sys_uTime3EventCount--;
 651:F:/ARM_Project/W55FA92/N9H20/BSP/Driver/Source/SYS\wb_timer.c **** 			if (_sys_uTime3EventCount == 0)
 652:F:/ARM_Project/W55FA92/N9H20/BSP/Driver/Source/SYS\wb_timer.c **** 				_sys_bIsSetTime3Event = FALSE;
 1843              		.loc 1 652 0
 1844 004c 0030C2E5 		strb	r3, [r2]
 1845              	.L200:
 653:F:/ARM_Project/W55FA92/N9H20/BSP/Driver/Source/SYS\wb_timer.c **** 			break;		
 654:F:/ARM_Project/W55FA92/N9H20/BSP/Driver/Source/SYS\wb_timer.c **** 		default:
 655:F:/ARM_Project/W55FA92/N9H20/BSP/Driver/Source/SYS\wb_timer.c **** 			;
 656:F:/ARM_Project/W55FA92/N9H20/BSP/Driver/Source/SYS\wb_timer.c **** 	}
 657:F:/ARM_Project/W55FA92/N9H20/BSP/Driver/Source/SYS\wb_timer.c **** }
 1846              		.loc 1 657 0
 1847 0050 1EFF2FE1 		bx	lr
 1848              	.LVL106:
 1849              	.L204:
 637:F:/ARM_Project/W55FA92/N9H20/BSP/Driver/Source/SYS\wb_timer.c **** 			_sys_uTime1EventCount--;
 1850              		.loc 1 637 0
 1851 0054 A0309FE5 		ldr	r3, .L213+12
 1852 0058 0020A0E3 		mov	r2, #0
 1853 005c 011041E2 		sub	r1, r1, #1
 1854              	.LVL107:
 1855 0060 012283E7 		str	r2, [r3, r1, lsl #4]
 638:F:/ARM_Project/W55FA92/N9H20/BSP/Driver/Source/SYS\wb_timer.c **** 			if (_sys_uTime1EventCount == 0)
 1856              		.loc 1 638 0
 1857 0064 94309FE5 		ldr	r3, .L213+16
 1858 0068 002093E5 		ldr	r2, [r3]
 1859 006c 012042E2 		sub	r2, r2, #1
 1860 0070 002083E5 		str	r2, [r3]
 639:F:/ARM_Project/W55FA92/N9H20/BSP/Driver/Source/SYS\wb_timer.c **** 				_sys_bIsSetTime1Event = FALSE;
 1861              		.loc 1 639 0
 1862 0074 003093E5 		ldr	r3, [r3]
 1863 0078 000053E3 		cmp	r3, #0
 640:F:/ARM_Project/W55FA92/N9H20/BSP/Driver/Source/SYS\wb_timer.c **** 			break;
 1864              		.loc 1 640 0
 1865 007c 80209F05 		ldreq	r2, .L213+20
 639:F:/ARM_Project/W55FA92/N9H20/BSP/Driver/Source/SYS\wb_timer.c **** 				_sys_bIsSetTime1Event = FALSE;
 1866              		.loc 1 639 0
 1867 0080 1EFF2F11 		bxne	lr
 1868 0084 F0FFFFEA 		b	.L209
 1869              	.LVL108:
 1870              	.L205:
 643:F:/ARM_Project/W55FA92/N9H20/BSP/Driver/Source/SYS\wb_timer.c **** 			_sys_uTime2EventCount--;
 1871              		.loc 1 643 0
 1872 0088 78309FE5 		ldr	r3, .L213+24
 1873 008c 0020A0E3 		mov	r2, #0
 1874 0090 011041E2 		sub	r1, r1, #1
 1875              	.LVL109:
 1876 0094 012283E7 		str	r2, [r3, r1, lsl #4]
 644:F:/ARM_Project/W55FA92/N9H20/BSP/Driver/Source/SYS\wb_timer.c **** 			if (_sys_uTime2EventCount == 0)
 1877              		.loc 1 644 0
 1878 0098 6C309FE5 		ldr	r3, .L213+28
 1879 009c 002093E5 		ldr	r2, [r3]
 1880 00a0 012042E2 		sub	r2, r2, #1
 1881 00a4 002083E5 		str	r2, [r3]
 645:F:/ARM_Project/W55FA92/N9H20/BSP/Driver/Source/SYS\wb_timer.c **** 				_sys_bIsSetTime2Event = FALSE;
 1882              		.loc 1 645 0
 1883 00a8 003093E5 		ldr	r3, [r3]
 1884 00ac 000053E3 		cmp	r3, #0
 646:F:/ARM_Project/W55FA92/N9H20/BSP/Driver/Source/SYS\wb_timer.c **** 			break;
 1885              		.loc 1 646 0
 1886 00b0 58209F05 		ldreq	r2, .L213+32
 645:F:/ARM_Project/W55FA92/N9H20/BSP/Driver/Source/SYS\wb_timer.c **** 				_sys_bIsSetTime2Event = FALSE;
 1887              		.loc 1 645 0
 1888 00b4 1EFF2F11 		bxne	lr
 1889 00b8 E3FFFFEA 		b	.L209
 1890              	.LVL110:
 1891              	.L206:
 649:F:/ARM_Project/W55FA92/N9H20/BSP/Driver/Source/SYS\wb_timer.c **** 			_sys_uTime3EventCount--;
 1892              		.loc 1 649 0
 1893 00bc 50309FE5 		ldr	r3, .L213+36
 1894 00c0 0020A0E3 		mov	r2, #0
 1895 00c4 011041E2 		sub	r1, r1, #1
 1896              	.LVL111:
 1897 00c8 012283E7 		str	r2, [r3, r1, lsl #4]
 650:F:/ARM_Project/W55FA92/N9H20/BSP/Driver/Source/SYS\wb_timer.c **** 			if (_sys_uTime3EventCount == 0)
 1898              		.loc 1 650 0
 1899 00cc 44309FE5 		ldr	r3, .L213+40
 1900 00d0 002093E5 		ldr	r2, [r3]
 1901 00d4 012042E2 		sub	r2, r2, #1
 1902 00d8 002083E5 		str	r2, [r3]
 651:F:/ARM_Project/W55FA92/N9H20/BSP/Driver/Source/SYS\wb_timer.c **** 				_sys_bIsSetTime3Event = FALSE;
 1903              		.loc 1 651 0
 1904 00dc 003093E5 		ldr	r3, [r3]
 1905 00e0 000053E3 		cmp	r3, #0
 1906 00e4 1EFF2F11 		bxne	lr
 652:F:/ARM_Project/W55FA92/N9H20/BSP/Driver/Source/SYS\wb_timer.c **** 			break;		
 1907              		.loc 1 652 0
 1908 00e8 2C209FE5 		ldr	r2, .L213+44
 1909 00ec D6FFFFEA 		b	.L209
 1910              	.L214:
 1911              		.align	2
 1912              	.L213:
 1913 00f0 00000000 		.word	tTime0Event
 1914 00f4 00000000 		.word	.LANCHOR16
 1915 00f8 00000000 		.word	.LANCHOR1
 1916 00fc 00000000 		.word	tTime1Event
 1917 0100 00000000 		.word	.LANCHOR17
 1918 0104 00000000 		.word	.LANCHOR3
 1919 0108 00000000 		.word	tTime2Event
 1920 010c 00000000 		.word	.LANCHOR18
 1921 0110 00000000 		.word	.LANCHOR5
 1922 0114 00000000 		.word	tTime3Event
 1923 0118 00000000 		.word	.LANCHOR19
 1924 011c 00000000 		.word	.LANCHOR7
 1925              		.cfi_endproc
 1926              	.LFE25:
 1928              		.section	.text.sysDOS_Time_To_UTC,"ax",%progbits
 1929              		.align	2
 1930              		.global	sysDOS_Time_To_UTC
 1931              		.syntax unified
 1932              		.arm
 1933              		.fpu softvfp
 1935              	sysDOS_Time_To_UTC:
 1936              	.LFB26:
 658:F:/ARM_Project/W55FA92/N9H20/BSP/Driver/Source/SYS\wb_timer.c **** 
 659:F:/ARM_Project/W55FA92/N9H20/BSP/Driver/Source/SYS\wb_timer.c **** /* 
 660:F:/ARM_Project/W55FA92/N9H20/BSP/Driver/Source/SYS\wb_timer.c ****  *  The default time: 2005.05.01 Sun 00:00 00:00
 661:F:/ARM_Project/W55FA92/N9H20/BSP/Driver/Source/SYS\wb_timer.c ****  *
 662:F:/ARM_Project/W55FA92/N9H20/BSP/Driver/Source/SYS\wb_timer.c ****  *  one day = 3600 * 24 = 86400
 663:F:/ARM_Project/W55FA92/N9H20/BSP/Driver/Source/SYS\wb_timer.c ****  *  one year = 86400 * 365 = 31536000
 664:F:/ARM_Project/W55FA92/N9H20/BSP/Driver/Source/SYS\wb_timer.c ****  *  year 2005 = 31536000 * 35 + 8 * 86400 = 1104451200
 665:F:/ARM_Project/W55FA92/N9H20/BSP/Driver/Source/SYS\wb_timer.c ****  */
 666:F:/ARM_Project/W55FA92/N9H20/BSP/Driver/Source/SYS\wb_timer.c **** 
 667:F:/ARM_Project/W55FA92/N9H20/BSP/Driver/Source/SYS\wb_timer.c **** UINT32 sysDOS_Time_To_UTC(DateTime_T ltime)
 668:F:/ARM_Project/W55FA92/N9H20/BSP/Driver/Source/SYS\wb_timer.c **** {
 1937              		.loc 1 668 0
 1938              		.cfi_startproc
 1939              		@ args = 24, pretend = 16, frame = 0
 1940              		@ frame_needed = 0, uses_anonymous_args = 0
 1941 0000 10D04DE2 		sub	sp, sp, #16
 1942              		.cfi_def_cfa_offset 16
 1943 0004 F0412DE9 		push	{r4, r5, r6, r7, r8, lr}
 1944              		.cfi_def_cfa_offset 40
 1945              		.cfi_offset 4, -40
 1946              		.cfi_offset 5, -36
 1947              		.cfi_offset 6, -32
 1948              		.cfi_offset 7, -28
 1949              		.cfi_offset 8, -24
 1950              		.cfi_offset 14, -20
 1951              	.LVL112:
 1952              		.loc 1 668 0
 1953 0008 14C08DE2 		add	ip, sp, #20
 1954 000c 0F008CE9 		stmib	ip, {r0, r1, r2, r3}
 1955              	.LVL113:
 1956 0010 24509DE5 		ldr	r5, [sp, #36]
 1957 0014 28E09DE5 		ldr	lr, [sp, #40]
 1958 0018 20609DE5 		ldr	r6, [sp, #32]
 1959              	.LVL114:
 1960 001c 2C409DE5 		ldr	r4, [sp, #44]
 1961              	.LVL115:
 669:F:/ARM_Project/W55FA92/N9H20/BSP/Driver/Source/SYS\wb_timer.c **** 	int		i, leap_year_cnt;
 670:F:/ARM_Project/W55FA92/N9H20/BSP/Driver/Source/SYS\wb_timer.c **** 	UINT32	utc;
 671:F:/ARM_Project/W55FA92/N9H20/BSP/Driver/Source/SYS\wb_timer.c **** 	
 672:F:/ARM_Project/W55FA92/N9H20/BSP/Driver/Source/SYS\wb_timer.c **** 	if ((ltime.mon < 1) || (ltime.mon > 12) || (ltime.day < 1) || (ltime.day > 31) ||
 673:F:/ARM_Project/W55FA92/N9H20/BSP/Driver/Source/SYS\wb_timer.c **** 		(ltime.hour > 23) || (ltime.min > 59) || (ltime.sec > 59))
 1962              		.loc 1 673 0
 1963 0020 3B005EE3 		cmp	lr, #59
 1964 0024 17005593 		cmpls	r5, #23
 672:F:/ARM_Project/W55FA92/N9H20/BSP/Driver/Source/SYS\wb_timer.c **** 		(ltime.hour > 23) || (ltime.min > 59) || (ltime.sec > 59))
 1965              		.loc 1 672 0
 1966 0028 1C709DE5 		ldr	r7, [sp, #28]
 1967              		.loc 1 673 0
 1968 002c 0120A083 		movhi	r2, #1
 1969 0030 0020A093 		movls	r2, #0
 1970 0034 3B0054E3 		cmp	r4, #59
 1971 0038 01208283 		orrhi	r2, r2, #1
 672:F:/ARM_Project/W55FA92/N9H20/BSP/Driver/Source/SYS\wb_timer.c **** 		(ltime.hour > 23) || (ltime.min > 59) || (ltime.sec > 59))
 1972              		.loc 1 672 0
 1973 003c 013046E2 		sub	r3, r6, #1
 1974              		.loc 1 673 0
 1975 0040 1E0053E3 		cmp	r3, #30
 1976 0044 01208283 		orrhi	r2, r2, #1
 672:F:/ARM_Project/W55FA92/N9H20/BSP/Driver/Source/SYS\wb_timer.c **** 		(ltime.hour > 23) || (ltime.min > 59) || (ltime.sec > 59))
 1977              		.loc 1 672 0
 1978 0048 017047E2 		sub	r7, r7, #1
 1979              		.loc 1 673 0
 1980 004c 0B0057E3 		cmp	r7, #11
 1981 0050 01208283 		orrhi	r2, r2, #1
 1982 0054 000052E3 		cmp	r2, #0
 674:F:/ARM_Project/W55FA92/N9H20/BSP/Driver/Source/SYS\wb_timer.c **** 	{
 675:F:/ARM_Project/W55FA92/N9H20/BSP/Driver/Source/SYS\wb_timer.c **** 		//_debug_msg("DOS_Time_To_UTC - illegal time!! %d-%d-%d %d:%d:%d\n", year, month, day, hour, minu
 676:F:/ARM_Project/W55FA92/N9H20/BSP/Driver/Source/SYS\wb_timer.c **** 		return WB_INVALID_TIME;
 1983              		.loc 1 676 0
 1984 0058 84009F15 		ldrne	r0, .L224
 673:F:/ARM_Project/W55FA92/N9H20/BSP/Driver/Source/SYS\wb_timer.c **** 	{
 1985              		.loc 1 673 0
 1986 005c 1900001A 		bne	.L215
 1987 0060 18109DE5 		ldr	r1, [sp, #24]
 1988              	.LVL116:
 677:F:/ARM_Project/W55FA92/N9H20/BSP/Driver/Source/SYS\wb_timer.c **** 	}
 678:F:/ARM_Project/W55FA92/N9H20/BSP/Driver/Source/SYS\wb_timer.c **** 
 679:F:/ARM_Project/W55FA92/N9H20/BSP/Driver/Source/SYS\wb_timer.c **** 	ltime.year = ltime.year - 1970;		/* DOS is 1980 started, UTC is 1970 started */
 680:F:/ARM_Project/W55FA92/N9H20/BSP/Driver/Source/SYS\wb_timer.c **** 	
 681:F:/ARM_Project/W55FA92/N9H20/BSP/Driver/Source/SYS\wb_timer.c **** 	leap_year_cnt = (ltime.year + 1) / 4;
 682:F:/ARM_Project/W55FA92/N9H20/BSP/Driver/Source/SYS\wb_timer.c **** 	
 683:F:/ARM_Project/W55FA92/N9H20/BSP/Driver/Source/SYS\wb_timer.c **** 	utc = ltime.year * SECONDS_365_DAY + leap_year_cnt * SECONDS_PER_DAY;
 1989              		.loc 1 683 0
 1990 0064 7C209FE5 		ldr	r2, .L224+4
 681:F:/ARM_Project/W55FA92/N9H20/BSP/Driver/Source/SYS\wb_timer.c **** 	
 1991              		.loc 1 681 0
 1992 0068 7BCE41E2 		sub	ip, r1, #1968
 679:F:/ARM_Project/W55FA92/N9H20/BSP/Driver/Source/SYS\wb_timer.c **** 	
 1993              		.loc 1 679 0
 1994 006c 7B1E41E2 		sub	r1, r1, #1968
 1995              	.LVL117:
 1996 0070 028041E2 		sub	r8, r1, #2
 1997              		.loc 1 683 0
 1998 0074 920800E0 		mul	r0, r2, r8
 1999 0078 6C309FE5 		ldr	r3, .L224+8
 684:F:/ARM_Project/W55FA92/N9H20/BSP/Driver/Source/SYS\wb_timer.c **** 	
 685:F:/ARM_Project/W55FA92/N9H20/BSP/Driver/Source/SYS\wb_timer.c **** 	if ((ltime.year + 2) % 4 == 0)
 2000              		.loc 1 685 0
 2001 007c 030011E3 		tst	r1, #3
 681:F:/ARM_Project/W55FA92/N9H20/BSP/Driver/Source/SYS\wb_timer.c **** 	
 2002              		.loc 1 681 0
 2003 0080 01C04CE2 		sub	ip, ip, #1
 686:F:/ARM_Project/W55FA92/N9H20/BSP/Driver/Source/SYS\wb_timer.c **** 		month_seconds[1] = 29 * SECONDS_PER_DAY;	/* leap year */
 2004              		.loc 1 686 0
 2005 0084 64209F05 		ldreq	r2, .L224+12
 687:F:/ARM_Project/W55FA92/N9H20/BSP/Driver/Source/SYS\wb_timer.c **** 	else
 688:F:/ARM_Project/W55FA92/N9H20/BSP/Driver/Source/SYS\wb_timer.c **** 		month_seconds[1] = 28 * SECONDS_PER_DAY;	/* non-leap year */
 2006              		.loc 1 688 0
 2007 0088 64209F15 		ldrne	r2, .L224+16
 681:F:/ARM_Project/W55FA92/N9H20/BSP/Driver/Source/SYS\wb_timer.c **** 	
 2008              		.loc 1 681 0
 2009 008c 2CC1A0E1 		lsr	ip, ip, #2
 2010 0090 60109FE5 		ldr	r1, .L224+20
 683:F:/ARM_Project/W55FA92/N9H20/BSP/Driver/Source/SYS\wb_timer.c **** 	
 2011              		.loc 1 683 0
 2012 0094 930C28E0 		mla	r8, r3, ip, r0
 2013              	.LVL118:
 2014              		.loc 1 688 0
 2015 0098 042081E5 		str	r2, [r1, #4]
 2016              	.LVL119:
 689:F:/ARM_Project/W55FA92/N9H20/BSP/Driver/Source/SYS\wb_timer.c **** 	
 690:F:/ARM_Project/W55FA92/N9H20/BSP/Driver/Source/SYS\wb_timer.c **** 	for (i = 0; i < ltime.mon - 1; i++) 
 2017              		.loc 1 690 0
 2018 009c 0020A0E3 		mov	r2, #0
 2019              	.LVL120:
 2020              	.L219:
 2021              		.loc 1 690 0 is_stmt 0 discriminator 1
 2022 00a0 020057E1 		cmp	r7, r2
 2023 00a4 0A00008A 		bhi	.L220
 2024              	.LVL121:
 691:F:/ARM_Project/W55FA92/N9H20/BSP/Driver/Source/SYS\wb_timer.c **** 		utc += month_seconds[i];
 692:F:/ARM_Project/W55FA92/N9H20/BSP/Driver/Source/SYS\wb_timer.c **** 		
 693:F:/ARM_Project/W55FA92/N9H20/BSP/Driver/Source/SYS\wb_timer.c **** 	utc += (ltime.day - 1) * SECONDS_PER_DAY;
 694:F:/ARM_Project/W55FA92/N9H20/BSP/Driver/Source/SYS\wb_timer.c **** 	
 695:F:/ARM_Project/W55FA92/N9H20/BSP/Driver/Source/SYS\wb_timer.c **** 	utc += ltime.hour * SECONDS_PER_HOUR + ltime.min * 60 + ltime.sec;
 2025              		.loc 1 695 0 is_stmt 1
 2026 00a8 152A44E2 		sub	r2, r4, #86016
 2027              	.LVL122:
 2028 00ac 062D42E2 		sub	r2, r2, #384
 2029 00b0 962321E0 		mla	r1, r6, r3, r2
 2030 00b4 E12EA0E3 		mov	r2, #3600
 2031 00b8 921520E0 		mla	r0, r2, r5, r1
 2032 00bc 3C20A0E3 		mov	r2, #60
 2033 00c0 920E23E0 		mla	r3, r2, lr, r0
 2034 00c4 080083E0 		add	r0, r3, r8
 2035              	.LVL123:
 2036              	.L215:
 696:F:/ARM_Project/W55FA92/N9H20/BSP/Driver/Source/SYS\wb_timer.c **** 	
 697:F:/ARM_Project/W55FA92/N9H20/BSP/Driver/Source/SYS\wb_timer.c **** 	return utc;
 698:F:/ARM_Project/W55FA92/N9H20/BSP/Driver/Source/SYS\wb_timer.c **** }
 2037              		.loc 1 698 0
 2038 00c8 F041BDE8 		pop	{r4, r5, r6, r7, r8, lr}
 2039              		.cfi_remember_state
 2040              		.cfi_restore 14
 2041              		.cfi_restore 8
 2042              		.cfi_restore 7
 2043              		.cfi_restore 6
 2044              		.cfi_restore 5
 2045              		.cfi_restore 4
 2046              		.cfi_def_cfa_offset 16
 2047              	.LVL124:
 2048 00cc 10D08DE2 		add	sp, sp, #16
 2049              		.cfi_def_cfa_offset 0
 2050              	.LVL125:
 2051 00d0 1EFF2FE1 		bx	lr
 2052              	.LVL126:
 2053              	.L220:
 2054              		.cfi_restore_state
 691:F:/ARM_Project/W55FA92/N9H20/BSP/Driver/Source/SYS\wb_timer.c **** 		utc += month_seconds[i];
 2055              		.loc 1 691 0 discriminator 3
 2056 00d4 02C191E7 		ldr	ip, [r1, r2, lsl #2]
 690:F:/ARM_Project/W55FA92/N9H20/BSP/Driver/Source/SYS\wb_timer.c **** 		utc += month_seconds[i];
 2057              		.loc 1 690 0 discriminator 3
 2058 00d8 012082E2 		add	r2, r2, #1
 2059              	.LVL127:
 691:F:/ARM_Project/W55FA92/N9H20/BSP/Driver/Source/SYS\wb_timer.c **** 		utc += month_seconds[i];
 2060              		.loc 1 691 0 discriminator 3
 2061 00dc 0C8088E0 		add	r8, r8, ip
 2062              	.LVL128:
 2063 00e0 EEFFFFEA 		b	.L219
 2064              	.L225:
 2065              		.align	2
 2066              	.L224:
 2067 00e4 090AFFFF 		.word	-62967
 2068 00e8 8033E101 		.word	31536000
 2069 00ec 80510100 		.word	86400
 2070 00f0 803B2600 		.word	2505600
 2071 00f4 00EA2400 		.word	2419200
 2072 00f8 00000000 		.word	.LANCHOR20
 2073              		.cfi_endproc
 2074              	.LFE26:
 2076              		.global	__aeabi_idiv
 2077              		.global	__aeabi_idivmod
 2078              		.section	.text.sysUTC_To_DOS_Time,"ax",%progbits
 2079              		.align	2
 2080              		.global	sysUTC_To_DOS_Time
 2081              		.syntax unified
 2082              		.arm
 2083              		.fpu softvfp
 2085              	sysUTC_To_DOS_Time:
 2086              	.LFB27:
 699:F:/ARM_Project/W55FA92/N9H20/BSP/Driver/Source/SYS\wb_timer.c **** 
 700:F:/ARM_Project/W55FA92/N9H20/BSP/Driver/Source/SYS\wb_timer.c **** 
 701:F:/ARM_Project/W55FA92/N9H20/BSP/Driver/Source/SYS\wb_timer.c **** VOID  sysUTC_To_DOS_Time(UINT32 utc, DateTime_T *dos_tm)
 702:F:/ARM_Project/W55FA92/N9H20/BSP/Driver/Source/SYS\wb_timer.c **** {
 2087              		.loc 1 702 0
 2088              		.cfi_startproc
 2089              		@ args = 0, pretend = 0, frame = 0
 2090              		@ frame_needed = 0, uses_anonymous_args = 0
 2091              	.LVL129:
 2092 0000 70402DE9 		push	{r4, r5, r6, lr}
 2093              		.cfi_def_cfa_offset 16
 2094              		.cfi_offset 4, -16
 2095              		.cfi_offset 5, -12
 2096              		.cfi_offset 6, -8
 2097              		.cfi_offset 14, -4
 703:F:/ARM_Project/W55FA92/N9H20/BSP/Driver/Source/SYS\wb_timer.c **** 	int		the_year = 1970;
 2098              		.loc 1 703 0
 2099 0004 D4309FE5 		ldr	r3, .L238
 704:F:/ARM_Project/W55FA92/N9H20/BSP/Driver/Source/SYS\wb_timer.c **** 	int		i, seconds;
 705:F:/ARM_Project/W55FA92/N9H20/BSP/Driver/Source/SYS\wb_timer.c **** 		
 706:F:/ARM_Project/W55FA92/N9H20/BSP/Driver/Source/SYS\wb_timer.c **** 	while (1)
 707:F:/ARM_Project/W55FA92/N9H20/BSP/Driver/Source/SYS\wb_timer.c **** 	{
 708:F:/ARM_Project/W55FA92/N9H20/BSP/Driver/Source/SYS\wb_timer.c **** 		if (the_year % 4 == 0)
 709:F:/ARM_Project/W55FA92/N9H20/BSP/Driver/Source/SYS\wb_timer.c **** 			seconds = SECONDS_366_DAY;
 710:F:/ARM_Project/W55FA92/N9H20/BSP/Driver/Source/SYS\wb_timer.c **** 		else
 711:F:/ARM_Project/W55FA92/N9H20/BSP/Driver/Source/SYS\wb_timer.c **** 			seconds = SECONDS_365_DAY;
 2100              		.loc 1 711 0
 2101 0008 D4C09FE5 		ldr	ip, .L238+4
 2102 000c D4E09FE5 		ldr	lr, .L238+8
 702:F:/ARM_Project/W55FA92/N9H20/BSP/Driver/Source/SYS\wb_timer.c **** 	int		the_year = 1970;
 2103              		.loc 1 702 0
 2104 0010 0150A0E1 		mov	r5, r1
 2105              	.LVL130:
 2106              	.L229:
 2107              		.loc 1 711 0
 2108 0014 031013E2 		ands	r1, r3, #3
 2109 0018 0C20A001 		moveq	r2, ip
 2110 001c 0E20A011 		movne	r2, lr
 2111              	.LVL131:
 712:F:/ARM_Project/W55FA92/N9H20/BSP/Driver/Source/SYS\wb_timer.c **** 		if (utc >= seconds)
 2112              		.loc 1 712 0
 2113 0020 000052E1 		cmp	r2, r0
 713:F:/ARM_Project/W55FA92/N9H20/BSP/Driver/Source/SYS\wb_timer.c **** 		{
 714:F:/ARM_Project/W55FA92/N9H20/BSP/Driver/Source/SYS\wb_timer.c **** 			utc -= seconds;
 2114              		.loc 1 714 0
 2115 0024 02004090 		subls	r0, r0, r2
 2116              	.LVL132:
 715:F:/ARM_Project/W55FA92/N9H20/BSP/Driver/Source/SYS\wb_timer.c **** 			the_year++;
 2117              		.loc 1 715 0
 2118 0028 01308392 		addls	r3, r3, #1
 2119              	.LVL133:
 708:F:/ARM_Project/W55FA92/N9H20/BSP/Driver/Source/SYS\wb_timer.c **** 			seconds = SECONDS_366_DAY;
 2120              		.loc 1 708 0
 2121 002c F8FFFF9A 		bls	.L229
 2122              	.L228:
 716:F:/ARM_Project/W55FA92/N9H20/BSP/Driver/Source/SYS\wb_timer.c **** 		}
 717:F:/ARM_Project/W55FA92/N9H20/BSP/Driver/Source/SYS\wb_timer.c **** 		else
 718:F:/ARM_Project/W55FA92/N9H20/BSP/Driver/Source/SYS\wb_timer.c **** 			break;
 719:F:/ARM_Project/W55FA92/N9H20/BSP/Driver/Source/SYS\wb_timer.c **** 	}
 720:F:/ARM_Project/W55FA92/N9H20/BSP/Driver/Source/SYS\wb_timer.c **** 	
 721:F:/ARM_Project/W55FA92/N9H20/BSP/Driver/Source/SYS\wb_timer.c **** 	dos_tm->year = the_year;
 722:F:/ARM_Project/W55FA92/N9H20/BSP/Driver/Source/SYS\wb_timer.c **** 	
 723:F:/ARM_Project/W55FA92/N9H20/BSP/Driver/Source/SYS\wb_timer.c **** 	if (the_year % 4 == 0)
 2123              		.loc 1 723 0
 2124 0030 000051E3 		cmp	r1, #0
 721:F:/ARM_Project/W55FA92/N9H20/BSP/Driver/Source/SYS\wb_timer.c **** 	
 2125              		.loc 1 721 0
 2126 0034 003085E5 		str	r3, [r5]
 2127 0038 AC109FE5 		ldr	r1, .L238+12
 724:F:/ARM_Project/W55FA92/N9H20/BSP/Driver/Source/SYS\wb_timer.c **** 		month_seconds[1] = 29 * SECONDS_PER_DAY;
 2128              		.loc 1 724 0
 2129 003c AC309F05 		ldreq	r3, .L238+16
 2130              	.LVL134:
 725:F:/ARM_Project/W55FA92/N9H20/BSP/Driver/Source/SYS\wb_timer.c **** 	else
 726:F:/ARM_Project/W55FA92/N9H20/BSP/Driver/Source/SYS\wb_timer.c **** 		month_seconds[1] = 28 * SECONDS_PER_DAY;
 2131              		.loc 1 726 0
 2132 0040 AC309F15 		ldrne	r3, .L238+20
 2133 0044 043081E5 		str	r3, [r1, #4]
 2134              	.LVL135:
 727:F:/ARM_Project/W55FA92/N9H20/BSP/Driver/Source/SYS\wb_timer.c **** 	
 728:F:/ARM_Project/W55FA92/N9H20/BSP/Driver/Source/SYS\wb_timer.c **** 	dos_tm->mon = 1;
 2135              		.loc 1 728 0
 2136 0048 0130A0E3 		mov	r3, #1
 2137 004c 043085E5 		str	r3, [r5, #4]
 2138              	.LVL136:
 729:F:/ARM_Project/W55FA92/N9H20/BSP/Driver/Source/SYS\wb_timer.c **** 	for (i = 0; i < 11; i++)
 2139              		.loc 1 729 0
 2140 0050 0030A0E3 		mov	r3, #0
 2141              	.LVL137:
 2142              	.L233:
 730:F:/ARM_Project/W55FA92/N9H20/BSP/Driver/Source/SYS\wb_timer.c **** 	{
 731:F:/ARM_Project/W55FA92/N9H20/BSP/Driver/Source/SYS\wb_timer.c **** 		if (utc >= month_seconds[i])
 2143              		.loc 1 731 0
 2144 0054 032191E7 		ldr	r2, [r1, r3, lsl #2]
 2145 0058 000052E1 		cmp	r2, r0
 2146 005c 0600008A 		bhi	.L232
 732:F:/ARM_Project/W55FA92/N9H20/BSP/Driver/Source/SYS\wb_timer.c **** 		{
 733:F:/ARM_Project/W55FA92/N9H20/BSP/Driver/Source/SYS\wb_timer.c **** 			utc -= month_seconds[i];
 2147              		.loc 1 733 0 discriminator 2
 2148 0060 020040E0 		sub	r0, r0, r2
 2149              	.LVL138:
 734:F:/ARM_Project/W55FA92/N9H20/BSP/Driver/Source/SYS\wb_timer.c **** 			dos_tm->mon++;
 2150              		.loc 1 734 0 discriminator 2
 2151 0064 042095E5 		ldr	r2, [r5, #4]
 729:F:/ARM_Project/W55FA92/N9H20/BSP/Driver/Source/SYS\wb_timer.c **** 	{
 2152              		.loc 1 729 0 discriminator 2
 2153 0068 013083E2 		add	r3, r3, #1
 2154              	.LVL139:
 2155              		.loc 1 734 0 discriminator 2
 2156 006c 012082E2 		add	r2, r2, #1
 729:F:/ARM_Project/W55FA92/N9H20/BSP/Driver/Source/SYS\wb_timer.c **** 	{
 2157              		.loc 1 729 0 discriminator 2
 2158 0070 0B0053E3 		cmp	r3, #11
 2159              		.loc 1 734 0 discriminator 2
 2160 0074 042085E5 		str	r2, [r5, #4]
 729:F:/ARM_Project/W55FA92/N9H20/BSP/Driver/Source/SYS\wb_timer.c **** 	{
 2161              		.loc 1 729 0 discriminator 2
 2162 0078 F5FFFF1A 		bne	.L233
 2163              	.L232:
 735:F:/ARM_Project/W55FA92/N9H20/BSP/Driver/Source/SYS\wb_timer.c **** 		}
 736:F:/ARM_Project/W55FA92/N9H20/BSP/Driver/Source/SYS\wb_timer.c **** 		else
 737:F:/ARM_Project/W55FA92/N9H20/BSP/Driver/Source/SYS\wb_timer.c **** 			break;
 738:F:/ARM_Project/W55FA92/N9H20/BSP/Driver/Source/SYS\wb_timer.c **** 	}
 739:F:/ARM_Project/W55FA92/N9H20/BSP/Driver/Source/SYS\wb_timer.c **** 	
 740:F:/ARM_Project/W55FA92/N9H20/BSP/Driver/Source/SYS\wb_timer.c **** 	dos_tm->day = 1 + (utc / SECONDS_PER_DAY);
 2164              		.loc 1 740 0
 2165 007c 74109FE5 		ldr	r1, .L238+24
 2166 0080 902183E0 		umull	r2, r3, r0, r1
 741:F:/ARM_Project/W55FA92/N9H20/BSP/Driver/Source/SYS\wb_timer.c **** 	utc %= SECONDS_PER_DAY;
 742:F:/ARM_Project/W55FA92/N9H20/BSP/Driver/Source/SYS\wb_timer.c **** 	
 743:F:/ARM_Project/W55FA92/N9H20/BSP/Driver/Source/SYS\wb_timer.c **** 	dos_tm->hour = utc / SECONDS_PER_HOUR;
 2167              		.loc 1 743 0
 2168 0084 E11EA0E3 		mov	r1, #3600
 740:F:/ARM_Project/W55FA92/N9H20/BSP/Driver/Source/SYS\wb_timer.c **** 	utc %= SECONDS_PER_DAY;
 2169              		.loc 1 740 0
 2170 0088 2328A0E1 		lsr	r2, r3, #16
 2171 008c 013082E2 		add	r3, r2, #1
 2172              	.LVL140:
 2173 0090 083085E5 		str	r3, [r5, #8]
 741:F:/ARM_Project/W55FA92/N9H20/BSP/Driver/Source/SYS\wb_timer.c **** 	utc %= SECONDS_PER_DAY;
 2174              		.loc 1 741 0
 2175 0094 60309FE5 		ldr	r3, .L238+28
 2176 0098 930204E0 		mul	r4, r3, r2
 2177 009c 044040E0 		sub	r4, r0, r4
 2178              	.LVL141:
 2179              		.loc 1 743 0
 2180 00a0 0400A0E1 		mov	r0, r4
 2181 00a4 FEFFFFEB 		bl	__aeabi_idiv
 2182              	.LVL142:
 744:F:/ARM_Project/W55FA92/N9H20/BSP/Driver/Source/SYS\wb_timer.c **** 	utc %= SECONDS_PER_HOUR;
 2183              		.loc 1 744 0
 2184 00a8 E11EA0E3 		mov	r1, #3600
 743:F:/ARM_Project/W55FA92/N9H20/BSP/Driver/Source/SYS\wb_timer.c **** 	utc %= SECONDS_PER_HOUR;
 2185              		.loc 1 743 0
 2186 00ac 0C0085E5 		str	r0, [r5, #12]
 2187              		.loc 1 744 0
 2188 00b0 0400A0E1 		mov	r0, r4
 2189 00b4 FEFFFFEB 		bl	__aeabi_idivmod
 2190              	.LVL143:
 2191 00b8 0140A0E1 		mov	r4, r1
 2192              	.LVL144:
 745:F:/ARM_Project/W55FA92/N9H20/BSP/Driver/Source/SYS\wb_timer.c **** 	
 746:F:/ARM_Project/W55FA92/N9H20/BSP/Driver/Source/SYS\wb_timer.c **** 	dos_tm->min = utc / 60;
 2193              		.loc 1 746 0
 2194 00bc 0400A0E1 		mov	r0, r4
 2195 00c0 3C10A0E3 		mov	r1, #60
 2196              	.LVL145:
 2197 00c4 FEFFFFEB 		bl	__aeabi_idiv
 2198              	.LVL146:
 747:F:/ARM_Project/W55FA92/N9H20/BSP/Driver/Source/SYS\wb_timer.c **** 	dos_tm->sec = utc % 60;
 2199              		.loc 1 747 0
 2200 00c8 3C10A0E3 		mov	r1, #60
 746:F:/ARM_Project/W55FA92/N9H20/BSP/Driver/Source/SYS\wb_timer.c **** 	dos_tm->sec = utc % 60;
 2201              		.loc 1 746 0
 2202 00cc 100085E5 		str	r0, [r5, #16]
 2203              		.loc 1 747 0
 2204 00d0 0400A0E1 		mov	r0, r4
 2205 00d4 FEFFFFEB 		bl	__aeabi_idivmod
 2206              	.LVL147:
 2207 00d8 141085E5 		str	r1, [r5, #20]
 748:F:/ARM_Project/W55FA92/N9H20/BSP/Driver/Source/SYS\wb_timer.c **** }
 2208              		.loc 1 748 0
 2209 00dc 7080BDE8 		pop	{r4, r5, r6, pc}
 2210              	.L239:
 2211              		.align	2
 2212              	.L238:
 2213 00e0 B2070000 		.word	1970
 2214 00e4 0085E201 		.word	31622400
 2215 00e8 8033E101 		.word	31536000
 2216 00ec 00000000 		.word	.LANCHOR20
 2217 00f0 803B2600 		.word	2505600
 2218 00f4 00EA2400 		.word	2419200
 2219 00f8 07452EC2 		.word	-1037155065
 2220 00fc 80510100 		.word	86400
 2221              		.cfi_endproc
 2222              	.LFE27:
 2224              		.section	.text.sysSetLocalTime,"ax",%progbits
 2225              		.align	2
 2226              		.global	sysSetLocalTime
 2227              		.syntax unified
 2228              		.arm
 2229              		.fpu softvfp
 2231              	sysSetLocalTime:
 2232              	.LFB28:
 749:F:/ARM_Project/W55FA92/N9H20/BSP/Driver/Source/SYS\wb_timer.c **** 
 750:F:/ARM_Project/W55FA92/N9H20/BSP/Driver/Source/SYS\wb_timer.c **** 
 751:F:/ARM_Project/W55FA92/N9H20/BSP/Driver/Source/SYS\wb_timer.c **** VOID sysSetLocalTime(DateTime_T ltime)
 752:F:/ARM_Project/W55FA92/N9H20/BSP/Driver/Source/SYS\wb_timer.c **** {
 2233              		.loc 1 752 0
 2234              		.cfi_startproc
 2235              		@ args = 24, pretend = 16, frame = 0
 2236              		@ frame_needed = 0, uses_anonymous_args = 0
 2237 0000 10D04DE2 		sub	sp, sp, #16
 2238              		.cfi_def_cfa_offset 16
 2239 0004 07402DE9 		push	{r0, r1, r2, lr}
 2240              		.cfi_def_cfa_offset 32
 2241              		.cfi_offset 14, -20
 2242              		.loc 1 752 0
 2243 0008 10C08DE2 		add	ip, sp, #16
 2244 000c 0F008CE8 		stm	ip, {r0, r1, r2, r3}
 753:F:/ARM_Project/W55FA92/N9H20/BSP/Driver/Source/SYS\wb_timer.c **** 	_sys_ReferenceTime_Clock = _sys_uTimer0Count;
 2245              		.loc 1 753 0
 2246 0010 34309FE5 		ldr	r3, .L242
 2247 0014 002093E5 		ldr	r2, [r3]
 2248 0018 30309FE5 		ldr	r3, .L242+4
 2249 001c 002083E5 		str	r2, [r3]
 754:F:/ARM_Project/W55FA92/N9H20/BSP/Driver/Source/SYS\wb_timer.c **** 	_sys_ReferenceTime_UTC = sysDOS_Time_To_UTC(ltime);
 2250              		.loc 1 754 0
 2251 0020 20308DE2 		add	r3, sp, #32
 2252 0024 030093E8 		ldm	r3, {r0, r1}
 2253 0028 03008DE8 		stm	sp, {r0, r1}
 2254 002c 0F009CE8 		ldm	ip, {r0, r1, r2, r3}
 2255 0030 FEFFFFEB 		bl	sysDOS_Time_To_UTC
 2256              	.LVL148:
 2257 0034 18309FE5 		ldr	r3, .L242+8
 2258 0038 000083E5 		str	r0, [r3]
 755:F:/ARM_Project/W55FA92/N9H20/BSP/Driver/Source/SYS\wb_timer.c **** }
 2259              		.loc 1 755 0
 2260 003c 0CD08DE2 		add	sp, sp, #12
 2261              		.cfi_def_cfa_offset 20
 2262              		@ sp needed
 2263 0040 04E09DE4 		ldr	lr, [sp], #4
 2264              		.cfi_restore 14
 2265              		.cfi_def_cfa_offset 16
 2266 0044 10D08DE2 		add	sp, sp, #16
 2267              		.cfi_def_cfa_offset 0
 2268 0048 1EFF2FE1 		bx	lr
 2269              	.L243:
 2270              		.align	2
 2271              	.L242:
 2272 004c 00000000 		.word	.LANCHOR0
 2273 0050 00000000 		.word	.LANCHOR21
 2274 0054 00000000 		.word	_sys_ReferenceTime_UTC
 2275              		.cfi_endproc
 2276              	.LFE28:
 2278              		.section	.text.sysGetCurrentTime,"ax",%progbits
 2279              		.align	2
 2280              		.global	sysGetCurrentTime
 2281              		.syntax unified
 2282              		.arm
 2283              		.fpu softvfp
 2285              	sysGetCurrentTime:
 2286              	.LFB29:
 756:F:/ARM_Project/W55FA92/N9H20/BSP/Driver/Source/SYS\wb_timer.c **** 
 757:F:/ARM_Project/W55FA92/N9H20/BSP/Driver/Source/SYS\wb_timer.c **** VOID sysGetCurrentTime(DateTime_T *curTime)
 758:F:/ARM_Project/W55FA92/N9H20/BSP/Driver/Source/SYS\wb_timer.c **** {
 2287              		.loc 1 758 0
 2288              		.cfi_startproc
 2289              		@ args = 0, pretend = 0, frame = 0
 2290              		@ frame_needed = 0, uses_anonymous_args = 0
 2291              	.LVL149:
 759:F:/ARM_Project/W55FA92/N9H20/BSP/Driver/Source/SYS\wb_timer.c **** 	UINT32 clock, utc_time;
 760:F:/ARM_Project/W55FA92/N9H20/BSP/Driver/Source/SYS\wb_timer.c **** 
 761:F:/ARM_Project/W55FA92/N9H20/BSP/Driver/Source/SYS\wb_timer.c **** 	clock = _sys_uTimer0Count;
 2292              		.loc 1 761 0
 2293 0000 38309FE5 		ldr	r3, .L246
 758:F:/ARM_Project/W55FA92/N9H20/BSP/Driver/Source/SYS\wb_timer.c **** 	UINT32 clock, utc_time;
 2294              		.loc 1 758 0
 2295 0004 70402DE9 		push	{r4, r5, r6, lr}
 2296              		.cfi_def_cfa_offset 16
 2297              		.cfi_offset 4, -16
 2298              		.cfi_offset 5, -12
 2299              		.cfi_offset 6, -8
 2300              		.cfi_offset 14, -4
 762:F:/ARM_Project/W55FA92/N9H20/BSP/Driver/Source/SYS\wb_timer.c **** #if 1
 763:F:/ARM_Project/W55FA92/N9H20/BSP/Driver/Source/SYS\wb_timer.c **** 	// To skip Timer 0 not work	
 764:F:/ARM_Project/W55FA92/N9H20/BSP/Driver/Source/SYS\wb_timer.c **** 	utc_time = _sys_ReferenceTime_UTC + (clock - _sys_ReferenceTime_Clock) / _sys_uTimer0TickPerSecond
 2301              		.loc 1 764 0
 2302 0008 34209FE5 		ldr	r2, .L246+4
 758:F:/ARM_Project/W55FA92/N9H20/BSP/Driver/Source/SYS\wb_timer.c **** 	UINT32 clock, utc_time;
 2303              		.loc 1 758 0
 2304 000c 0050A0E1 		mov	r5, r0
 761:F:/ARM_Project/W55FA92/N9H20/BSP/Driver/Source/SYS\wb_timer.c **** #if 1
 2305              		.loc 1 761 0
 2306 0010 000093E5 		ldr	r0, [r3]
 2307              	.LVL150:
 2308              		.loc 1 764 0
 2309 0014 2C309FE5 		ldr	r3, .L246+8
 2310 0018 003093E5 		ldr	r3, [r3]
 2311 001c 001092E5 		ldr	r1, [r2]
 2312 0020 24209FE5 		ldr	r2, .L246+12
 2313 0024 030040E0 		sub	r0, r0, r3
 2314              	.LVL151:
 2315 0028 004092E5 		ldr	r4, [r2]
 2316 002c FEFFFFEB 		bl	__aeabi_uidiv
 2317              	.LVL152:
 765:F:/ARM_Project/W55FA92/N9H20/BSP/Driver/Source/SYS\wb_timer.c **** #else
 766:F:/ARM_Project/W55FA92/N9H20/BSP/Driver/Source/SYS\wb_timer.c **** 	utc_time = 20;
 767:F:/ARM_Project/W55FA92/N9H20/BSP/Driver/Source/SYS\wb_timer.c **** #endif	
 768:F:/ARM_Project/W55FA92/N9H20/BSP/Driver/Source/SYS\wb_timer.c **** 
 769:F:/ARM_Project/W55FA92/N9H20/BSP/Driver/Source/SYS\wb_timer.c **** 	sysUTC_To_DOS_Time(utc_time, curTime);
 2318              		.loc 1 769 0
 2319 0030 0510A0E1 		mov	r1, r5
 2320 0034 040080E0 		add	r0, r0, r4
 770:F:/ARM_Project/W55FA92/N9H20/BSP/Driver/Source/SYS\wb_timer.c **** }
 2321              		.loc 1 770 0
 2322 0038 7040BDE8 		pop	{r4, r5, r6, lr}
 2323              		.cfi_restore 14
 2324              		.cfi_restore 6
 2325              		.cfi_restore 5
 2326              		.cfi_restore 4
 2327              		.cfi_def_cfa_offset 0
 2328              	.LVL153:
 769:F:/ARM_Project/W55FA92/N9H20/BSP/Driver/Source/SYS\wb_timer.c **** }
 2329              		.loc 1 769 0
 2330 003c FEFFFFEA 		b	sysUTC_To_DOS_Time
 2331              	.LVL154:
 2332              	.L247:
 2333              		.align	2
 2334              	.L246:
 2335 0040 00000000 		.word	.LANCHOR0
 2336 0044 00000000 		.word	_sys_uTimer0TickPerSecond
 2337 0048 00000000 		.word	.LANCHOR21
 2338 004c 00000000 		.word	_sys_ReferenceTime_UTC
 2339              		.cfi_endproc
 2340              	.LFE29:
 2342              		.section	.text.sysDelay,"ax",%progbits
 2343              		.align	2
 2344              		.global	sysDelay
 2345              		.syntax unified
 2346              		.arm
 2347              		.fpu softvfp
 2349              	sysDelay:
 2350              	.LFB30:
 771:F:/ARM_Project/W55FA92/N9H20/BSP/Driver/Source/SYS\wb_timer.c **** 
 772:F:/ARM_Project/W55FA92/N9H20/BSP/Driver/Source/SYS\wb_timer.c **** 
 773:F:/ARM_Project/W55FA92/N9H20/BSP/Driver/Source/SYS\wb_timer.c **** VOID sysDelay(UINT32 uTicks)
 774:F:/ARM_Project/W55FA92/N9H20/BSP/Driver/Source/SYS\wb_timer.c **** {
 2351              		.loc 1 774 0
 2352              		.cfi_startproc
 2353              		@ args = 0, pretend = 0, frame = 8
 2354              		@ frame_needed = 0, uses_anonymous_args = 0
 2355              	.LVL155:
 775:F:/ARM_Project/W55FA92/N9H20/BSP/Driver/Source/SYS\wb_timer.c **** 	UINT32 volatile btime;
 776:F:/ARM_Project/W55FA92/N9H20/BSP/Driver/Source/SYS\wb_timer.c **** 
 777:F:/ARM_Project/W55FA92/N9H20/BSP/Driver/Source/SYS\wb_timer.c **** 	if(!_sys_bIsTimer0Initial)
 2356              		.loc 1 777 0
 2357 0000 4C309FE5 		ldr	r3, .L253
 774:F:/ARM_Project/W55FA92/N9H20/BSP/Driver/Source/SYS\wb_timer.c **** 	UINT32 volatile btime;
 2358              		.loc 1 774 0
 2359 0004 13402DE9 		push	{r0, r1, r4, lr}
 2360              		.cfi_def_cfa_offset 16
 2361              		.cfi_offset 4, -8
 2362              		.cfi_offset 14, -4
 774:F:/ARM_Project/W55FA92/N9H20/BSP/Driver/Source/SYS\wb_timer.c **** 	UINT32 volatile btime;
 2363              		.loc 1 774 0
 2364 0008 0040A0E1 		mov	r4, r0
 2365              		.loc 1 777 0
 2366 000c 0000D3E5 		ldrb	r0, [r3]	@ zero_extendqisi2
 2367              	.LVL156:
 2368 0010 000CA0E1 		lsl	r0, r0, #24
 2369 0014 400CA0E1 		asr	r0, r0, #24
 2370 0018 000050E3 		cmp	r0, #0
 2371 001c 0200001A 		bne	.L249
 778:F:/ARM_Project/W55FA92/N9H20/BSP/Driver/Source/SYS\wb_timer.c **** 	{
 779:F:/ARM_Project/W55FA92/N9H20/BSP/Driver/Source/SYS\wb_timer.c **** 	    	sysStartTimer(TIMER0, 100, PERIODIC_MODE);
 2372              		.loc 1 779 0
 2373 0020 0120A0E3 		mov	r2, #1
 2374 0024 6410A0E3 		mov	r1, #100
 2375 0028 FEFFFFEB 		bl	sysStartTimer
 2376              	.LVL157:
 2377              	.L249:
 2378              	.LBB6:
 2379              	.LBB7:
 210:F:/ARM_Project/W55FA92/N9H20/BSP/Driver/Source/SYS\wb_timer.c **** 		case TIMER1:
 2380              		.loc 1 210 0
 2381 002c 24309FE5 		ldr	r3, .L253+4
 2382 0030 002093E5 		ldr	r2, [r3]
 2383              	.LVL158:
 2384              	.LBE7:
 2385              	.LBE6:
 780:F:/ARM_Project/W55FA92/N9H20/BSP/Driver/Source/SYS\wb_timer.c **** 	}
 781:F:/ARM_Project/W55FA92/N9H20/BSP/Driver/Source/SYS\wb_timer.c **** 
 782:F:/ARM_Project/W55FA92/N9H20/BSP/Driver/Source/SYS\wb_timer.c **** 	btime = sysGetTicks(TIMER0);
 2386              		.loc 1 782 0
 2387 0034 04208DE5 		str	r2, [sp, #4]
 2388              	.L250:
 2389              	.LVL159:
 2390              	.LBB8:
 2391              	.LBB9:
 210:F:/ARM_Project/W55FA92/N9H20/BSP/Driver/Source/SYS\wb_timer.c **** 		case TIMER1:
 2392              		.loc 1 210 0
 2393 0038 002093E5 		ldr	r2, [r3]
 2394              	.LVL160:
 2395              	.LBE9:
 2396              	.LBE8:
 783:F:/ARM_Project/W55FA92/N9H20/BSP/Driver/Source/SYS\wb_timer.c **** 	while(1)
 784:F:/ARM_Project/W55FA92/N9H20/BSP/Driver/Source/SYS\wb_timer.c **** 	{
 785:F:/ARM_Project/W55FA92/N9H20/BSP/Driver/Source/SYS\wb_timer.c **** 		if((sysGetTicks(TIMER0) - btime) > uTicks)
 2397              		.loc 1 785 0
 2398 003c 04109DE5 		ldr	r1, [sp, #4]
 2399 0040 012042E0 		sub	r2, r2, r1
 2400 0044 040052E1 		cmp	r2, r4
 2401 0048 FAFFFF9A 		bls	.L250
 786:F:/ARM_Project/W55FA92/N9H20/BSP/Driver/Source/SYS\wb_timer.c **** 		{
 787:F:/ARM_Project/W55FA92/N9H20/BSP/Driver/Source/SYS\wb_timer.c **** 		    	break;
 788:F:/ARM_Project/W55FA92/N9H20/BSP/Driver/Source/SYS\wb_timer.c **** 		}
 789:F:/ARM_Project/W55FA92/N9H20/BSP/Driver/Source/SYS\wb_timer.c **** 	}
 790:F:/ARM_Project/W55FA92/N9H20/BSP/Driver/Source/SYS\wb_timer.c **** }
 2402              		.loc 1 790 0
 2403 004c 08D08DE2 		add	sp, sp, #8
 2404              		.cfi_def_cfa_offset 8
 2405              		@ sp needed
 2406 0050 1080BDE8 		pop	{r4, pc}
 2407              	.LVL161:
 2408              	.L254:
 2409              		.align	2
 2410              	.L253:
 2411 0054 00000000 		.word	.LANCHOR12
 2412 0058 00000000 		.word	.LANCHOR0
 2413              		.cfi_endproc
 2414              	.LFE30:
 2416              		.comm	_sys_ReferenceTime_UTC,4,4
 2417              		.global	_sys_ReferenceTime_Clock
 2418              		.comm	tTime3Event,160,4
 2419              		.comm	tTime2Event,160,4
 2420              		.comm	tTime1Event,160,4
 2421              		.comm	tTime0Event,160,4
 2422              		.global	_sys_bIsTimer3Initial
 2423              		.global	_sys_bIsSetTime3Event
 2424              		.comm	_sys_uTimer3TickPerSecond,4,4
 2425              		.global	_sys_uTime3EventCount
 2426              		.global	_sys_uTimer3Count
 2427              		.global	_sys_uTimer3ClockRate
 2428              		.comm	_sys_pvOldTimer3Vect,4,4
 2429              		.global	_sys_bIsTimer2Initial
 2430              		.global	_sys_bIsSetTime2Event
 2431              		.comm	_sys_uTimer2TickPerSecond,4,4
 2432              		.global	_sys_uTime2EventCount
 2433              		.global	_sys_uTimer2Count
 2434              		.global	_sys_uTimer2ClockRate
 2435              		.comm	_sys_pvOldTimer2Vect,4,4
 2436              		.global	_sys_bIsTimer1Initial
 2437              		.global	_sys_bIsSetTime1Event
 2438              		.comm	_sys_uTimer1TickPerSecond,4,4
 2439              		.global	_sys_uTime1EventCount
 2440              		.global	_sys_uTimer1Count
 2441              		.global	_sys_uTimer1ClockRate
 2442              		.comm	_sys_pvOldTimer1Vect,4,4
 2443              		.global	_sys_bIsTimer0Initial
 2444              		.global	_sys_bIsSetTime0Event
 2445              		.comm	_sys_uTimer0TickPerSecond,4,4
 2446              		.global	_sys_uTime0EventCount
 2447              		.global	_sys_uTimer0Count
 2448              		.global	_sys_uTimer0ClockRate
 2449              		.comm	_sys_pvOldTimer0Vect,4,4
 2450              		.section	.bss._sys_ReferenceTime_Clock,"aw",%nobits
 2451              		.align	2
 2452              		.set	.LANCHOR21,. + 0
 2455              	_sys_ReferenceTime_Clock:
 2456 0000 00000000 		.space	4
 2457              		.section	.bss._sys_bIsSetTime0Event,"aw",%nobits
 2458              		.set	.LANCHOR1,. + 0
 2461              	_sys_bIsSetTime0Event:
 2462 0000 00       		.space	1
 2463              		.section	.bss._sys_bIsSetTime1Event,"aw",%nobits
 2464              		.set	.LANCHOR3,. + 0
 2467              	_sys_bIsSetTime1Event:
 2468 0000 00       		.space	1
 2469              		.section	.bss._sys_bIsSetTime2Event,"aw",%nobits
 2470              		.set	.LANCHOR5,. + 0
 2473              	_sys_bIsSetTime2Event:
 2474 0000 00       		.space	1
 2475              		.section	.bss._sys_bIsSetTime3Event,"aw",%nobits
 2476              		.set	.LANCHOR7,. + 0
 2479              	_sys_bIsSetTime3Event:
 2480 0000 00       		.space	1
 2481              		.section	.bss._sys_bIsTimer0Initial,"aw",%nobits
 2482              		.set	.LANCHOR12,. + 0
 2485              	_sys_bIsTimer0Initial:
 2486 0000 00       		.space	1
 2487              		.section	.bss._sys_bIsTimer1Initial,"aw",%nobits
 2488              		.set	.LANCHOR13,. + 0
 2491              	_sys_bIsTimer1Initial:
 2492 0000 00       		.space	1
 2493              		.section	.bss._sys_bIsTimer2Initial,"aw",%nobits
 2494              		.set	.LANCHOR14,. + 0
 2497              	_sys_bIsTimer2Initial:
 2498 0000 00       		.space	1
 2499              		.section	.bss._sys_bIsTimer3Initial,"aw",%nobits
 2500              		.set	.LANCHOR15,. + 0
 2503              	_sys_bIsTimer3Initial:
 2504 0000 00       		.space	1
 2505              		.section	.bss._sys_uTime0EventCount,"aw",%nobits
 2506              		.align	2
 2507              		.set	.LANCHOR16,. + 0
 2510              	_sys_uTime0EventCount:
 2511 0000 00000000 		.space	4
 2512              		.section	.bss._sys_uTime1EventCount,"aw",%nobits
 2513              		.align	2
 2514              		.set	.LANCHOR17,. + 0
 2517              	_sys_uTime1EventCount:
 2518 0000 00000000 		.space	4
 2519              		.section	.bss._sys_uTime2EventCount,"aw",%nobits
 2520              		.align	2
 2521              		.set	.LANCHOR18,. + 0
 2524              	_sys_uTime2EventCount:
 2525 0000 00000000 		.space	4
 2526              		.section	.bss._sys_uTime3EventCount,"aw",%nobits
 2527              		.align	2
 2528              		.set	.LANCHOR19,. + 0
 2531              	_sys_uTime3EventCount:
 2532 0000 00000000 		.space	4
 2533              		.section	.bss._sys_uTimer0Count,"aw",%nobits
 2534              		.align	2
 2535              		.set	.LANCHOR0,. + 0
 2538              	_sys_uTimer0Count:
 2539 0000 00000000 		.space	4
 2540              		.section	.bss._sys_uTimer1Count,"aw",%nobits
 2541              		.align	2
 2542              		.set	.LANCHOR2,. + 0
 2545              	_sys_uTimer1Count:
 2546 0000 00000000 		.space	4
 2547              		.section	.bss._sys_uTimer2Count,"aw",%nobits
 2548              		.align	2
 2549              		.set	.LANCHOR4,. + 0
 2552              	_sys_uTimer2Count:
 2553 0000 00000000 		.space	4
 2554              		.section	.bss._sys_uTimer3Count,"aw",%nobits
 2555              		.align	2
 2556              		.set	.LANCHOR6,. + 0
 2559              	_sys_uTimer3Count:
 2560 0000 00000000 		.space	4
 2561              		.section	.data._sys_uTimer0ClockRate,"aw",%progbits
 2562              		.align	2
 2563              		.set	.LANCHOR8,. + 0
 2566              	_sys_uTimer0ClockRate:
 2567 0000 001BB700 		.word	12000000
 2568              		.section	.data._sys_uTimer1ClockRate,"aw",%progbits
 2569              		.align	2
 2570              		.set	.LANCHOR9,. + 0
 2573              	_sys_uTimer1ClockRate:
 2574 0000 001BB700 		.word	12000000
 2575              		.section	.data._sys_uTimer2ClockRate,"aw",%progbits
 2576              		.align	2
 2577              		.set	.LANCHOR10,. + 0
 2580              	_sys_uTimer2ClockRate:
 2581 0000 001BB700 		.word	12000000
 2582              		.section	.data._sys_uTimer3ClockRate,"aw",%progbits
 2583              		.align	2
 2584              		.set	.LANCHOR11,. + 0
 2587              	_sys_uTimer3ClockRate:
 2588 0000 001BB700 		.word	12000000
 2589              		.section	.data.month_seconds,"aw",%progbits
 2590              		.align	2
 2591              		.set	.LANCHOR20,. + 0
 2594              	month_seconds:
 2595 0000 80DE2800 		.word	2678400
 2596 0004 00EA2400 		.word	2419200
 2597 0008 80DE2800 		.word	2678400
 2598 000c 008D2700 		.word	2592000
 2599 0010 80DE2800 		.word	2678400
 2600 0014 008D2700 		.word	2592000
 2601 0018 80DE2800 		.word	2678400
 2602 001c 80DE2800 		.word	2678400
 2603 0020 008D2700 		.word	2592000
 2604 0024 80DE2800 		.word	2678400
 2605 0028 008D2700 		.word	2592000
 2606 002c 80DE2800 		.word	2678400
 2607              		.section	.rodata.sysStartTimer.str1.1,"aMS",%progbits,1
 2608              	.LC0:
 2609 0000 49742069 		.ascii	"It is warm reset\012\000"
 2609      73207761 
 2609      726D2072 
 2609      65736574 
 2609      0A00
 2610              	.LC1:
 2611 0012 49742069 		.ascii	"It is cold reset\012\000"
 2611      7320636F 
 2611      6C642072 
 2611      65736574 
 2611      0A00
 2612              		.text
 2613              	.Letext0:
 2614              		.file 2 "c:\\program files (x86)\\gnu tools arm embedded\\7 2018-q2-update\\arm-none-eabi\\include
 2615              		.file 3 "c:\\program files (x86)\\gnu tools arm embedded\\7 2018-q2-update\\arm-none-eabi\\include
 2616              		.file 4 "c:\\program files (x86)\\gnu tools arm embedded\\7 2018-q2-update\\lib\\gcc\\arm-none-eab
 2617              		.file 5 "c:\\program files (x86)\\gnu tools arm embedded\\7 2018-q2-update\\arm-none-eabi\\include
 2618              		.file 6 "f:\\arm_project\\w55fa92\\n9h20\\bsp\\driver\\include\\wbtypes.h"
 2619              		.file 7 "f:\\arm_project\\w55fa92\\n9h20\\bsp\\driver\\include\\wblib.h"